Component: ARM Compiler 5.06 update 5 (build 528) Tool: armlink [4d35e2]

==============================================================================

Section Cross References

    application.o(.text) refers to memseta.o(.text) for __aeabi_memclr
    application.o(.text) refers to gdu_logger.o(.text) for GduLogger_LogOutput
    application.o(.text) refers to strcmp.o(.text) for strcmp
    application.o(.text) refers to strncpy.o(.text) for strncpy
    application.o(.text) refers to memcpya.o(.text) for __aeabi_memcpy
    application.o(.text) refers to uart.o(.text) for UART_Init
    application.o(.text) refers to led.o(.text) for Led_Init
    application.o(.text) refers to gdu_platform.o(.text) for GduPlatform_RegOsalHandler
    application.o(.text) refers to printfa.o(i.__0printf) for __2printf
    application.o(.text) refers to gdu_core.o(.text) for GduCore_Init
    application.o(.text) refers to gdu_aircraft_info.o(.text) for GduAircraftInfo_GetBaseInfo
    application.o(.text) refers to test_power_management.o(.text) for GduTest_RegApplyHighPowerHandler
    application.o(.text) refers to test_payload_cam_emu_base.o(.text) for GduTest_CameraEmuBaseStartService
    application.o(.text) refers to test_widget.o(.text) for GduTest_WidgetStartService
    application.o(.text) refers to test_fc_subscription.o(.text) for GduTest_FcSubscriptionStartService
    application.o(.text) refers to test_payload_gimbal_emu.o(.text) for GduTest_GimbalStartService
    application.o(.text) refers to test_time_sync.o(.text) for GduTest_TimeSyncRegHandler
    application.o(.text) refers to test_positioning.o(.text) for GduTest_PositioningStartService
    application.o(.text) refers to application.o(.constdata) for __FUNCTION__
    application.o(.text) refers to application.o(.conststring) for .conststring
    application.o(.text) refers to test_playload_ppk.o(.text) for GduTest_PPKStartService
    application.o(.text) refers to test_upgrade.o(.text) for GduTest_UpgradeStartService
    application.o(.text) refers to osal.o(.text) for Osal_TaskSleepMs
    application.o(.text) refers to tasks.o(.text) for xTaskGetCurrentTaskHandle
    application.o(.text) refers to heap_4.o(.text) for xPortGetFreeHeapSize
    application.o(.text) refers to application.o(.data) for runIndicateTaskStep
    application.o(.constdata) refers to osal.o(.text) for Osal_TaskCreate
    application.o(.constdata) refers to application.o(.text) for GduUser_PrintConsole
    application.o(.constdata) refers to hal_uart.o(.text) for HalUart_Init
    application.o(.constdata) refers to apply_high_power.o(.text) for GduTest_HighPowerApplyPinInit
    application.o(.constdata) refers to pps.o(.text) for GduTest_PpsSignalResponseInit
    application.o(.constdata) refers to upgrade_platform_opt_stm32.o(.text) for GduUpgradePlatformStm32_RebootSystem
    hal_uart.o(.text) refers to malloc.o(i.malloc) for malloc
    hal_uart.o(.text) refers to uart.o(.text) for UART_Init
    hal_uart.o(.text) refers to usbh_cdc.o(.text) for USBH_CDC_WriteData
    main.o(.text) refers to memseta.o(.text) for __aeabi_memclr4
    main.o(.text) refers to stm32f4xx_hal_rcc.o(.text) for HAL_RCC_OscConfig
    main.o(.text) refers to stm32f4xx_hal.o(.text) for HAL_Init
    main.o(.text) refers to tasks.o(.text) for xTaskCreate
    main.o(.text) refers to main.o(.data) for startTask
    main.o(.text) refers to application.o(.text) for GduUser_StartTask
    osal.o(.text) refers to strncpy.o(.text) for strncpy
    osal.o(.text) refers to tasks.o(.text) for xTaskCreate
    osal.o(.text) refers to queue.o(.text) for xQueueCreateMutex
    osal.o(.text) refers to heap_4.o(.text) for pvPortMalloc
    flash_if.o(.text) refers to stm32f4xx_hal_flash.o(.text) for HAL_FLASH_Unlock
    flash_if.o(.text) refers to stm32f4xx_hal_flash_ex.o(.text) for HAL_FLASHEx_Erase
    freertos.o(.text) refers to freertos.o(.bss) for xIdleTaskTCBBuffer
    led.o(.text) refers to stm32f4xx_hal_gpio.o(.text) for HAL_GPIO_Init
    led.o(.text) refers to led.o(.constdata) for s_ledPin
    led.o(.text) refers to led.o(.data) for s_ledPort
    pps.o(.text) refers to osal.o(.text) for Osal_GetTimeMs
    pps.o(.text) refers to gdu_logger.o(.text) for GduLogger_LogOutput
    pps.o(.text) refers to stm32f4xx_hal_gpio.o(.text) for HAL_GPIO_Init
    pps.o(.text) refers to stm32f4xx_hal_cortex.o(.text) for HAL_NVIC_SetPriority
    pps.o(.text) refers to pps.o(.data) for s_ppsNewestTriggerLocalTimeMs
    pps.o(.text) refers to pps.o(.constdata) for __FUNCTION__
    startup_stm32f407xx.o(RESET) refers to startup_stm32f407xx.o(STACK) for __initial_sp
    startup_stm32f407xx.o(RESET) refers to startup_stm32f407xx.o(.text) for Reset_Handler
    startup_stm32f407xx.o(RESET) refers to stm32f4xx_it.o(.text) for NMI_Handler
    startup_stm32f407xx.o(RESET) refers to port.o(.emb_text) for SVC_Handler
    startup_stm32f407xx.o(RESET) refers to port.o(.text) for SysTick_Handler
    startup_stm32f407xx.o(RESET) refers to pps.o(.text) for EXTI2_IRQHandler
    startup_stm32f407xx.o(RESET) refers to uart.o(.text) for USART1_IRQHandler
    startup_stm32f407xx.o(.text) refers to system_stm32f4xx.o(.text) for SystemInit
    startup_stm32f407xx.o(.text) refers to entry.o(.ARM.Collect$$$$00000000) for __main
    stm32f4xx_hal_msp.o(.text) refers to stm32f4xx_hal_cortex.o(.text) for HAL_NVIC_SetPriority
    stm32f4xx_hal_msp.o(.text) refers to stm32f4xx_hal_gpio.o(.text) for HAL_GPIO_Init
    stm32f4xx_hal_timebase_tim.o(.text) refers to stm32f4xx_hal_cortex.o(.text) for HAL_NVIC_SetPriority
    stm32f4xx_hal_timebase_tim.o(.text) refers to stm32f4xx_hal_rcc.o(.text) for HAL_RCC_GetClockConfig
    stm32f4xx_hal_timebase_tim.o(.text) refers to stm32f4xx_hal_tim.o(.text) for HAL_TIM_Base_Init
    stm32f4xx_hal_timebase_tim.o(.text) refers to stm32f4xx_it.o(.bss) for htim1
    stm32f4xx_it.o(.text) refers to stm32f4xx_hal_tim.o(.text) for HAL_TIM_IRQHandler
    stm32f4xx_it.o(.text) refers to stm32f4xx_hal_hcd.o(.text) for HAL_HCD_IRQHandler
    stm32f4xx_it.o(.text) refers to stm32f4xx_it.o(.bss) for htim1
    stm32f4xx_it.o(.text) refers to stm32f4xx_it.o(.data) for usbIrqFlag
    system_stm32f4xx.o(.text) refers to system_stm32f4xx.o(.data) for SystemCoreClock
    system_stm32f4xx.o(.text) refers to system_stm32f4xx.o(.constdata) for AHBPrescTable
    uart.o(.text) refers to gdu_ringbuffer.o(.text) for RingBuf_Init
    uart.o(.text) refers to stm32f4xx_hal_uart.o(.text) for HAL_UART_Init
    uart.o(.text) refers to osal.o(.text) for Osal_MutexCreate
    uart.o(.text) refers to uart.o(.bss) for s_uart1ReadBuf
    uart.o(.text) refers to uart.o(.data) for s_uart1Mutex
    usbh_cdc.o(.text) refers to queue.o(.text) for xQueueGenericCreate
    usbh_cdc.o(.text) refers to usbh_core.o(.text) for USBH_FindInterface
    usbh_cdc.o(.text) refers to printfa.o(i.__0printf) for __2printf
    usbh_cdc.o(.text) refers to malloc.o(i.malloc) for malloc
    usbh_cdc.o(.text) refers to memseta.o(.text) for __aeabi_memclr4
    usbh_cdc.o(.text) refers to usbh_pipes.o(.text) for USBH_AllocPipe
    usbh_cdc.o(.text) refers to usbh_conf.o(.text) for USBH_LL_SetToggle
    usbh_cdc.o(.text) refers to malloc.o(i.free) for free
    usbh_cdc.o(.text) refers to cmsis_os.o(.text) for osDelay
    usbh_cdc.o(.text) refers to usbh_cdc.o(.data) for ACMDataRecvQueue
    usbh_cdc.o(.text) refers to usbh_cdc.o(.conststring) for .conststring
    usbh_cdc.o(.text) refers to usbh_ioreq.o(.text) for USBH_BulkReceiveData
    usbh_cdc.o(.text) refers to usbh_ctlreq.o(.text) for USBH_CtlReq
    usbh_cdc.o(.text) refers to usbh_cdc.o(.bss) for cdcBuff
    usbh_cdc.o(.data) refers to usbh_cdc.o(.conststring) for .conststring
    usbh_cdc.o(.data) refers to usbh_cdc.o(.text) for USBH_CDC_InterfaceInit
    usbh_core.o(.text) refers to printfa.o(i.__0printf) for __2printf
    usbh_core.o(.text) refers to cmsis_os.o(.text) for osMessageCreate
    usbh_core.o(.text) refers to memcpya.o(.text) for __aeabi_memcpy4
    usbh_core.o(.text) refers to usbh_conf.o(.text) for USBH_LL_Init
    usbh_core.o(.text) refers to usbh_pipes.o(.text) for USBH_FreePipe
    usbh_core.o(.text) refers to usbh_ctlreq.o(.text) for USBH_Get_DevDesc
    usbh_core.o(.text) refers to usbh_core.o(.constdata) for .constdata
    usbh_core.o(.text) refers to usbh_core.o(.conststring) for .conststring
    usbh_core.o(.constdata) refers to usbh_core.o(.conststring) for .conststring
    usbh_core.o(.constdata) refers to usbh_core.o(.text) for USBH_Process_OS
    usbh_ctlreq.o(.text) refers to usbh_ioreq.o(.text) for USBH_CtlSendSetup
    usbh_ctlreq.o(.text) refers to usbh_conf.o(.text) for USBH_LL_GetURBState
    usbh_ctlreq.o(.text) refers to cmsis_os.o(.text) for osMessagePut
    usbh_ctlreq.o(.text) refers to printfa.o(i.__0printf) for __2printf
    usbh_ctlreq.o(.text) refers to usbh_pipes.o(.text) for USBH_FreePipe
    usbh_ioreq.o(.text) refers to usbh_conf.o(.text) for USBH_LL_SubmitURB
    usbh_pipes.o(.text) refers to usbh_conf.o(.text) for USBH_LL_OpenPipe
    gdu_ringbuffer.o(.text) refers to memcpya.o(.text) for __aeabi_memcpy
    apply_high_power.o(.text) refers to stm32f4xx_hal_gpio.o(.text) for HAL_GPIO_Init
    apply_high_power.o(.text) refers to gdu_logger.o(.text) for GduLogger_LogOutput
    apply_high_power.o(.text) refers to apply_high_power.o(.constdata) for __FUNCTION__
    upgrade_platform_opt_stm32.o(.text) refers to flash_if.o(.text) for FLASH_If_Erase
    upgrade_platform_opt_stm32.o(.text) refers to memcpya.o(.text) for __aeabi_memcpy4
    upgrade_platform_opt_stm32.o(.text) refers to upgrade_platform_opt_stm32.o(.bss) for s_upgradeFileInfo
    stm32f4xx_hal.o(.text) refers to stm32f4xx_hal_cortex.o(.text) for HAL_SYSTICK_Config
    stm32f4xx_hal.o(.text) refers to stm32f4xx_hal_timebase_tim.o(.text) for HAL_InitTick
    stm32f4xx_hal.o(.text) refers to stm32f4xx_hal_msp.o(.text) for HAL_MspInit
    stm32f4xx_hal.o(.text) refers to stm32f4xx_hal.o(.data) for uwTickFreq
    stm32f4xx_hal.o(.text) refers to system_stm32f4xx.o(.data) for SystemCoreClock
    stm32f4xx_hal_dma.o(.text) refers to stm32f4xx_hal.o(.text) for HAL_GetTick
    stm32f4xx_hal_dma.o(.text) refers to stm32f4xx_hal_dma.o(.constdata) for flagBitshiftOffset
    stm32f4xx_hal_dma.o(.text) refers to system_stm32f4xx.o(.data) for SystemCoreClock
    stm32f4xx_hal_flash.o(.text) refers to stm32f4xx_hal.o(.text) for HAL_GetTick
    stm32f4xx_hal_flash.o(.text) refers to stm32f4xx_hal_flash_ex.o(.text) for FLASH_Erase_Sector
    stm32f4xx_hal_flash.o(.text) refers to stm32f4xx_hal_flash.o(.bss) for pFlash
    stm32f4xx_hal_flash_ex.o(.text) refers to stm32f4xx_hal_flash.o(.text) for FLASH_WaitForLastOperation
    stm32f4xx_hal_flash_ex.o(.text) refers to stm32f4xx_hal_flash.o(.bss) for pFlash
    stm32f4xx_hal_hcd.o(.text) refers to usbh_conf.o(.text) for HAL_HCD_MspInit
    stm32f4xx_hal_hcd.o(.text) refers to stm32f4xx_ll_usb.o(.text) for USB_DisableGlobalInt
    stm32f4xx_hal_hcd.o(.text) refers to memcpya.o(.text) for __aeabi_memcpy4
    stm32f4xx_hal_pwr_ex.o(.text) refers to stm32f4xx_hal.o(.text) for HAL_GetTick
    stm32f4xx_hal_rcc.o(.text) refers to stm32f4xx_hal.o(.text) for HAL_GetTick
    stm32f4xx_hal_rcc.o(.text) refers to uldiv.o(.text) for __aeabi_uldivmod
    stm32f4xx_hal_rcc.o(.text) refers to stm32f4xx_hal_timebase_tim.o(.text) for HAL_InitTick
    stm32f4xx_hal_rcc.o(.text) refers to stm32f4xx_hal_gpio.o(.text) for HAL_GPIO_Init
    stm32f4xx_hal_rcc.o(.text) refers to system_stm32f4xx.o(.constdata) for AHBPrescTable
    stm32f4xx_hal_rcc.o(.text) refers to system_stm32f4xx.o(.data) for SystemCoreClock
    stm32f4xx_hal_rcc.o(.text) refers to stm32f4xx_hal.o(.data) for uwTickPrio
    stm32f4xx_hal_rcc_ex.o(.text) refers to stm32f4xx_hal.o(.text) for HAL_GetTick
    stm32f4xx_hal_rcc_ex.o(.text) refers to stm32f4xx_hal_timebase_tim.o(.text) for HAL_InitTick
    stm32f4xx_hal_rcc_ex.o(.text) refers to system_stm32f4xx.o(.data) for SystemCoreClock
    stm32f4xx_hal_rcc_ex.o(.text) refers to stm32f4xx_hal.o(.data) for uwTickPrio
    stm32f4xx_hal_tim.o(.text) refers to main.o(.text) for HAL_TIM_PeriodElapsedCallback
    stm32f4xx_hal_tim.o(.text) refers to stm32f4xx_hal_dma.o(.text) for HAL_DMA_Start_IT
    stm32f4xx_hal_tim.o(.text) refers to stm32f4xx_hal_tim_ex.o(.text) for HAL_TIMEx_BreakCallback
    stm32f4xx_hal_tim_ex.o(.text) refers to stm32f4xx_hal_tim.o(.text) for TIM_Base_SetConfig
    stm32f4xx_hal_tim_ex.o(.text) refers to stm32f4xx_hal_dma.o(.text) for HAL_DMA_Start_IT
    stm32f4xx_hal_uart.o(.text) refers to stm32f4xx_hal_rcc.o(.text) for HAL_RCC_GetPCLK2Freq
    stm32f4xx_hal_uart.o(.text) refers to uldiv.o(.text) for __aeabi_uldivmod
    stm32f4xx_hal_uart.o(.text) refers to stm32f4xx_hal_msp.o(.text) for HAL_UART_MspInit
    stm32f4xx_hal_uart.o(.text) refers to stm32f4xx_hal.o(.text) for HAL_GetTick
    stm32f4xx_hal_uart.o(.text) refers to stm32f4xx_hal_dma.o(.text) for HAL_DMA_Start_IT
    stm32f4xx_ll_usb.o(.text) refers to stm32f4xx_hal.o(.text) for HAL_Delay
    cmsis_os.o(.text) refers to tasks.o(.text) for vTaskStartScheduler
    cmsis_os.o(.text) refers to queue.o(.text) for xQueueCreateMutex
    cmsis_os.o(.text) refers to heap_4.o(.text) for pvPortMalloc
    cmsis_os.o(.text) refers to port.o(.text) for vPortEnterCritical
    heap_4.o(.text) refers to tasks.o(.text) for vTaskSuspendAll
    heap_4.o(.text) refers to port.o(.text) for vPortEnterCritical
    heap_4.o(.text) refers to heap_4.o(.data) for xStart
    heap_4.o(.text) refers to heap_4.o(.bss) for ucHeap
    port.o(.emb_text) refers to tasks.o(.text) for vTaskSwitchContext
    port.o(.emb_text) refers to tasks.o(.data) for pxCurrentTCB
    port.o(.text) refers to port.o(.emb_text) for __asm___6_port_c_39a90d8d__prvEnableVFP
    port.o(.text) refers to tasks.o(.text) for xTaskIncrementTick
    port.o(.text) refers to port.o(.data) for uxCriticalNesting
    port.o(.text) refers to system_stm32f4xx.o(.data) for SystemCoreClock
    event_groups.o(.text) refers to heap_4.o(.text) for pvPortMalloc
    event_groups.o(.text) refers to list.o(.text) for vListInitialise
    event_groups.o(.text) refers to tasks.o(.text) for vTaskSuspendAll
    event_groups.o(.text) refers to port.o(.text) for vPortEnterCritical
    queue.o(.text) refers to port.o(.text) for vPortEnterCritical
    queue.o(.text) refers to tasks.o(.text) for xTaskRemoveFromEventList
    queue.o(.text) refers to list.o(.text) for vListInitialise
    queue.o(.text) refers to heap_4.o(.text) for pvPortMalloc
    queue.o(.text) refers to memcpya.o(.text) for __aeabi_memcpy
    queue.o(.text) refers to queue.o(.bss) for xQueueRegistry
    tasks.o(.text) refers to list.o(.text) for vListInitialise
    tasks.o(.text) refers to port.o(.text) for vPortEnterCritical
    tasks.o(.text) refers to heap_4.o(.text) for pvPortMalloc
    tasks.o(.text) refers to tasks.o(.bss) for pxReadyTasksLists
    tasks.o(.text) refers to tasks.o(.data) for pxDelayedTaskList
    usb_host.o(.text) refers to usbh_cdc.o(.text) for USBH_CDC_DataQueueInit
    usb_host.o(.text) refers to usbh_core.o(.text) for USBH_Init
    usb_host.o(.text) refers to main.o(.text) for Error_Handler
    usb_host.o(.text) refers to usb_host.o(.data) for ApplicaionState
    usb_host.o(.text) refers to usb_host.o(.bss) for hUsbHostFS
    usb_host.o(.text) refers to usbh_cdc.o(.data) for CDC_Class
    usbh_conf.o(.text) refers to memseta.o(.text) for __aeabi_memclr4
    usbh_conf.o(.text) refers to stm32f4xx_hal_gpio.o(.text) for HAL_GPIO_Init
    usbh_conf.o(.text) refers to stm32f4xx_hal_cortex.o(.text) for HAL_NVIC_SetPriority
    usbh_conf.o(.text) refers to usbh_core.o(.text) for USBH_LL_IncTimer
    usbh_conf.o(.text) refers to stm32f4xx_hal_hcd.o(.text) for HAL_HCD_Init
    usbh_conf.o(.text) refers to main.o(.text) for Error_Handler
    usbh_conf.o(.text) refers to stm32f4xx_hal.o(.text) for HAL_Delay
    usbh_conf.o(.text) refers to stm32f4xx_it.o(.bss) for hhcd_USB_OTG_FS
    test_payload_cam_emu_base.o(.text) refers to gdu_platform.o(.text) for GduPlatform_GetOsalHandler
    test_payload_cam_emu_base.o(.text) refers to gdu_logger.o(.text) for GduLogger_LogOutput
    test_payload_cam_emu_base.o(.text) refers to memcpya.o(.text) for __aeabi_memcpy
    test_payload_cam_emu_base.o(.text) refers to test_payload_cam_emu_base.o(.data) for s_commonMutex
    test_payload_cam_emu_base.o(.text) refers to test_payload_cam_emu_base.o(.constdata) for __FUNCTION__
    test_payload_cam_emu_base.o(.text) refers to test_payload_cam_emu_base.o(.bss) for s_cameraState
    test_payload_cam_emu_base.o(.text) refers to memseta.o(.text) for __aeabi_memclr4
    test_payload_cam_emu_base.o(.text) refers to f2d.o(.text) for __aeabi_f2d
    test_payload_cam_emu_base.o(.text) refers to test_payload_cam_emu_base.o(.conststring) for .conststring
    test_payload_cam_emu_base.o(.text) refers to atan2f.o(i.__hardfp_atan2f) for __hardfp_atan2f
    test_payload_cam_emu_base.o(.text) refers to gdu_payload_camera.o(.text) for GduPayloadCamera_Init
    test_payload_cam_emu_base.o(.text) refers to gdu_aircraft_info.o(.text) for GduAircraftInfo_GetBaseInfo
    test_fc_subscription.o(.text) refers to memseta.o(.text) for __aeabi_memclr4
    test_fc_subscription.o(.text) refers to gdu_platform.o(.text) for GduPlatform_GetOsalHandler
    test_fc_subscription.o(.text) refers to gdu_subscribeinfo.o(.text) for GduFcSubscription_GetLatestValueOfTopic
    test_fc_subscription.o(.text) refers to gdu_logger.o(.text) for GduLogger_LogOutput
    test_fc_subscription.o(.text) refers to f2d.o(.text) for __aeabi_f2d
    test_fc_subscription.o(.text) refers to asinf.o(i.__hardfp_asinf) for __hardfp_asinf
    test_fc_subscription.o(.text) refers to dmul.o(.text) for __aeabi_dmul
    test_fc_subscription.o(.text) refers to atan2f.o(i.__hardfp_atan2f) for __hardfp_atan2f
    test_fc_subscription.o(.text) refers to test_fc_subscription.o(.constdata) for __FUNCTION__
    test_fc_subscription.o(.text) refers to test_fc_subscription.o(.data) for s_userFcSubscriptionDataShow
    test_fc_subscription.o(.text) refers to test_fc_subscription.o(.conststring) for .conststring
    test_payload_gimbal_emu.o(.text) refers to gdu_logger.o(.text) for GduLogger_LogOutput
    test_payload_gimbal_emu.o(.text) refers to gdu_platform.o(.text) for GduPlatform_GetOsalHandler
    test_payload_gimbal_emu.o(.text) refers to test_payload_gimbal_emu.o(.constdata) for __FUNCTION__
    test_payload_gimbal_emu.o(.text) refers to test_payload_gimbal_emu.o(.bss) for s_systemState
    test_payload_gimbal_emu.o(.text) refers to test_payload_gimbal_emu.o(.data) for step
    test_payload_gimbal_emu.o(.text) refers to memcmp.o(.text) for memcmp
    test_payload_gimbal_emu.o(.text) refers to test_payload_gimbal_emu.o(.conststring) for .conststring
    test_payload_gimbal_emu.o(.text) refers to memcpya.o(.text) for __aeabi_memcpy
    test_payload_gimbal_emu.o(.text) refers to gdu_gimbal.o(.text) for GduGimbal_RegCommonHandler
    test_positioning.o(.text) refers to memseta.o(.text) for __aeabi_memclr4
    test_positioning.o(.text) refers to gdu_platform.o(.text) for GduPlatform_GetOsalHandler
    test_positioning.o(.text) refers to test_fc_subscription.o(.text) for GduTest_FcSubscriptionGetTotalSatelliteNumber
    test_positioning.o(.text) refers to gdu_logger.o(.text) for GduLogger_LogOutput
    test_positioning.o(.text) refers to test_time_sync.o(.text) for GduTest_TimeSyncGetNewestPpsTriggerLocalTimeUs
    test_positioning.o(.text) refers to time_sync.o(.text) for GduTimeSync_TransferToAircraftTime
    test_positioning.o(.text) refers to gdu_positioning.o(.text) for GduPositioning_GetPositionInformationSync
    test_positioning.o(.text) refers to test_positioning.o(.constdata) for __FUNCTION__
    test_positioning.o(.text) refers to test_positioning.o(.data) for s_eventIndex
    test_positioning.o(.text) refers to test_positioning.o(.conststring) for .conststring
    test_time_sync.o(.text) refers to gdu_logger.o(.text) for GduLogger_LogOutput
    test_time_sync.o(.text) refers to gdu_platform.o(.text) for GduPlatform_GetOsalHandler
    test_time_sync.o(.text) refers to test_fc_subscription.o(.text) for GduTest_FcSubscriptionGetTotalSatelliteNumber
    test_time_sync.o(.text) refers to time_sync.o(.text) for GduTimeSync_TransferToAircraftTime
    test_time_sync.o(.text) refers to test_time_sync.o(.constdata) for __FUNCTION__
    test_time_sync.o(.text) refers to test_time_sync.o(.conststring) for .conststring
    test_time_sync.o(.text) refers to test_time_sync.o(.data) for s_timeSyncHandler
    util_buffer.o(.text) refers to memcpya.o(.text) for __aeabi_memcpy
    util_md5.o(.text) refers to memseta.o(.text) for __aeabi_memclr4
    test_power_management.o(.text) refers to gdu_logger.o(.text) for GduLogger_LogOutput
    test_power_management.o(.text) refers to gdu_power_management.o(.text) for GduPowerManagement_Init
    test_power_management.o(.text) refers to gdu_aircraft_info.o(.text) for GduAircraftInfo_GetBaseInfo
    test_power_management.o(.text) refers to test_power_management.o(.constdata) for __FUNCTION__
    test_power_management.o(.text) refers to test_power_management.o(.data) for s_applyHighPowerHandler
    file_binary_array_list_en.o(.data) refers to file_binary_array_list_en.o(.conststring) for .conststring
    file_binary_array_list_en.o(.data) refers to file_binary_array_list_en.o(.constdata) for widget_config_json_fileBinaryArray
    test_widget.o(.text) refers to gdu_platform.o(.text) for GduPlatform_GetOsalHandler
    test_widget.o(.text) refers to gdu_logger.o(.text) for GduLogger_LogOutput
    test_widget.o(.text) refers to printfa.o(i.__0snprintf) for __2snprintf
    test_widget.o(.text) refers to gdu_widget.o(.text) for GduWidgetFloatingWindow_ShowMessage
    test_widget.o(.text) refers to memseta.o(.text) for __aeabi_memclr4
    test_widget.o(.text) refers to strlen.o(.text) for strlen
    test_widget.o(.text) refers to memcpya.o(.text) for __aeabi_memcpy
    test_widget.o(.text) refers to test_widget.o(.constdata) for __FUNCTION__
    test_widget.o(.text) refers to test_widget.o(.conststring) for .conststring
    test_widget.o(.text) refers to file_binary_array_list_en.o(.data) for g_EnBinaryArrayCount
    test_widget.o(.text) refers to test_widget.o(.data) for s_widgetTestThread
    test_widget.o(.text) refers to test_widget.o(.bss) for s_widgetFileDirPath
    test_widget.o(.constdata) refers to test_widget.o(.text) for GduTestWidget_SetWidgetValue
    test_widget.o(.data) refers to test_widget.o(.conststring) for .conststring
    test_upgrade.o(.text) refers to gdu_platform.o(.text) for GduPlatform_GetOsalHandler
    test_upgrade.o(.text) refers to test_upgrade_platform_opt.o(.text) for GduTest_CleanUpgradeProgramFileStoreArea
    test_upgrade.o(.text) refers to gdu_logger.o(.text) for GduLogger_LogOutput
    test_upgrade.o(.text) refers to gdu_upgrade.o(.text) for GduUpgrade_PushUpgradeState
    test_upgrade.o(.text) refers to memcpya.o(.text) for __aeabi_memcpy4
    test_upgrade.o(.text) refers to test_upgrade.o(.data) for s_isNeedEnterUpgradeModeProcess
    test_upgrade.o(.text) refers to test_upgrade.o(.constdata) for __FUNCTION__
    test_upgrade.o(.text) refers to test_upgrade.o(.conststring) for .conststring
    test_upgrade.o(.constdata) refers to test_upgrade_common_file_transfer.o(.text) for GduTestCommonFileTransfer_Start
    test_upgrade.o(.constdata) refers to test_upgrade.o(.text) for GduTest_EnterUpgradeMode
    test_upgrade_common_file_transfer.o(.text) refers to memseta.o(.text) for __aeabi_memclr4
    test_upgrade_common_file_transfer.o(.text) refers to test_upgrade_platform_opt.o(.text) for GduTest_CreateUpgradeProgramFile
    test_upgrade_common_file_transfer.o(.text) refers to gdu_logger.o(.text) for GduLogger_LogOutput
    test_upgrade_common_file_transfer.o(.text) refers to memcpya.o(.text) for __aeabi_memcpy4
    test_upgrade_common_file_transfer.o(.text) refers to util_md5.o(.text) for UtilMd5_Init
    test_upgrade_common_file_transfer.o(.text) refers to memcmp.o(.text) for memcmp
    test_upgrade_common_file_transfer.o(.text) refers to test_upgrade_common_file_transfer.o(.bss) for s_upgradeFileInfo
    test_upgrade_common_file_transfer.o(.text) refers to test_upgrade_common_file_transfer.o(.data) for s_alreadyTransferFileSize
    test_upgrade_common_file_transfer.o(.text) refers to test_upgrade_common_file_transfer.o(.constdata) for __FUNCTION__
    test_upgrade_common_file_transfer.o(.text) refers to test_upgrade_common_file_transfer.o(.conststring) for .conststring
    test_upgrade_platform_opt.o(.text) refers to gdu_logger.o(.text) for GduLogger_LogOutput
    test_upgrade_platform_opt.o(.text) refers to memcpya.o(.text) for __aeabi_memcpy4
    test_upgrade_platform_opt.o(.text) refers to test_upgrade_platform_opt.o(.constdata) for __FUNCTION__
    test_upgrade_platform_opt.o(.text) refers to test_upgrade_platform_opt.o(.bss) for s_upgradePlatformOpt
    test_flight_control.o(.text) refers to gdu_flight_controller.o(.text) for GduFlightController_Deinit
    test_flight_control.o(.text) refers to gdu_logger.o(.text) for GduLogger_LogOutput
    test_flight_control.o(.text) refers to gdu_subscribeinfo.o(.text) for GduFcSubscription_DeInit
    test_flight_control.o(.text) refers to test_widget.o(.text) for GduTest_WidgetLogAppend
    test_flight_control.o(.text) refers to test_flight_control.o(.constdata) for __FUNCTION__
    test_flight_control.o(.text) refers to test_flight_control.o(.conststring) for .conststring
    test_flight_control.o(.text) refers to test_flight_control.o(.data) for s_osalHandler
    test_flight_control.o(.text) refers to memseta.o(.text) for __aeabi_memclr4
    test_flight_control.o(.text) refers to f2d.o(.text) for __aeabi_f2d
    test_flight_control.o(.text) refers to memcpya.o(.text) for __aeabi_memcpy
    test_flight_control.o(.text) refers to cdrcmple.o(.text) for __aeabi_cdrcmple
    test_flight_control.o(.text) refers to cdcmple.o(.text) for __aeabi_cdcmple
    test_flight_control.o(.text) refers to pow.o(i.__hardfp_pow) for __hardfp_pow
    test_flight_control.o(.text) refers to dadd.o(.text) for __aeabi_dadd
    test_flight_control.o(.text) refers to sqrt.o(i.__hardfp_sqrt) for __hardfp_sqrt
    test_flight_control.o(.text) refers to d2f.o(.text) for __aeabi_d2f
    test_flight_control.o(.text) refers to fabs.o(i.__hardfp_fabs) for __hardfp_fabs
    test_flight_control.o(.text) refers to dmul.o(.text) for __aeabi_dmul
    test_flight_control.o(.text) refers to cos.o(i.__hardfp_cos) for __hardfp_cos
    test_flight_control.o(.text) refers to asin.o(i.__hardfp_asin) for __hardfp_asin
    test_flight_control.o(.text) refers to atan2.o(i.__hardfp_atan2) for __hardfp_atan2
    test_flight_control.o(.text) refers to ddiv.o(.text) for __aeabi_ddiv
    test_flight_control.o(.text) refers to gdu_platform.o(.text) for GduPlatform_GetOsalHandler
    test_flight_control.o(.constdata) refers to test_flight_control.o(.conststring) for .conststring
    test_playload_ppk.o(.text) refers to gdu_logger.o(.text) for GduLogger_LogOutput
    test_playload_ppk.o(.text) refers to gdu_platform.o(.text) for GduPlatform_GetOsalHandler
    test_playload_ppk.o(.text) refers to uart.o(.text) for UART_Init
    test_playload_ppk.o(.text) refers to gdu_ppk.o(.text) for GduPPK_GetRawData
    test_playload_ppk.o(.text) refers to test_playload_ppk.o(.constdata) for __FUNCTION__
    test_playload_ppk.o(.text) refers to test_playload_ppk.o(.data) for osalHandler
    test_playload_ppk.o(.text) refers to test_playload_ppk.o(.bss) for GduPPKHandlerList
    cjson.o(.text) refers to tolower.o(.text) for tolower
    cjson.o(.text) refers to strlen.o(.text) for strlen
    cjson.o(.text) refers to memcpya.o(.text) for __aeabi_memcpy
    cjson.o(.text) refers to memseta.o(.text) for __aeabi_memclr4
    cjson.o(.text) refers to dflti.o(.text) for __aeabi_i2d
    cjson.o(.text) refers to dmul.o(.text) for __aeabi_dmul
    cjson.o(.text) refers to dadd.o(.text) for __aeabi_dadd
    cjson.o(.text) refers to pow.o(i.__hardfp_pow) for __hardfp_pow
    cjson.o(.text) refers to dfixi.o(.text) for __aeabi_d2iz
    cjson.o(.text) refers to cdcmple.o(.text) for __aeabi_cdcmpeq
    cjson.o(.text) refers to fabs.o(i.__hardfp_fabs) for __hardfp_fabs
    cjson.o(.text) refers to cjson.o(.data) for ep
    cjson.o(.text) refers to malloc.o(i.malloc) for malloc
    cjson.o(.text) refers to malloc.o(i.free) for free
    cjson.o(.text) refers to cdrcmple.o(.text) for __aeabi_cdrcmple
    cjson.o(.text) refers to printfa.o(i.__0sprintf) for __2sprintf
    cjson.o(.text) refers to floor.o(i.__hardfp_floor) for __hardfp_floor
    cjson.o(.text) refers to cjson.o(.constdata) for firstByteMark
    cjson.o(.text) refers to strcpy.o(.text) for strcpy
    cjson.o(.text) refers to strchr.o(.text) for strchr
    cjson.o(.text) refers to strncmp.o(.text) for strncmp
    cjson.o(.text) refers to f2d.o(.text) for __aeabi_f2d
    cjson.o(.data) refers to malloc.o(i.malloc) for malloc
    cjson.o(.data) refers to malloc.o(i.free) for free
    gdu_aircraft_info.o(.text) refers to basemsghandle.o(.text) for get_appInfo
    gdu_core.o(.text) refers to memcpya.o(.text) for __aeabi_memcpy
    gdu_core.o(.text) refers to memseta.o(.text) for __aeabi_memclr
    gdu_core.o(.text) refers to npc.o(.text) for npcSendData
    gdu_core.o(.text) refers to strlen.o(.text) for strlen
    gdu_core.o(.text) refers to gdu_platform.o(.text) for GduPlatform_GetOsalHandler
    gdu_core.o(.text) refers to gdu_logger.o(.text) for GduLogger_LogOutput
    gdu_core.o(.text) refers to atol.o(.text) for atol
    gdu_core.o(.text) refers to gdu_serial.o(.text) for GduSerial_Init
    gdu_core.o(.text) refers to strcpy.o(.text) for strcpy
    gdu_core.o(.text) refers to basemsghandle.o(.text) for GduPayloadBaseMsg_Init
    gdu_core.o(.text) refers to gdu_core.o(.data) for NPCUartLink
    gdu_core.o(.text) refers to gdu_core.o(.bss) for ProductAlias
    gdu_core.o(.text) refers to gdu_platform.o(.data) for OsalHandler
    gdu_core.o(.text) refers to gdu_core.o(.constdata) for __FUNCTION__
    gdu_core.o(.text) refers to gdu_cache.o(.text) for GetQueuePercentUsed
    gdu_flight_controller.o(.text) refers to memcpya.o(.text) for __aeabi_memcpy
    gdu_flight_controller.o(.text) refers to memseta.o(.text) for __aeabi_memclr4
    gdu_flight_controller.o(.text) refers to gdu_core.o(.text) for GduCore_SendData
    gdu_flight_controller.o(.text) refers to gdu_logger.o(.text) for GduLogger_LogOutput
    gdu_flight_controller.o(.text) refers to gdu_flight_controller.o(.bss) for avoidanceState
    gdu_flight_controller.o(.text) refers to gdu_flight_controller.o(.data) for SysInfo
    gdu_flight_controller.o(.text) refers to gdu_flight_controller.o(.constdata) for __FUNCTION__
    gdu_flight_controller.o(.text) refers to gdu_platform.o(.text) for GduPlatform_GetOsalHandler
    gdu_flight_controller.o(.text) refers to gdu_flight_controller.o(.conststring) for .conststring
    gdu_flight_controller.o(.text) refers to dfixi.o(.text) for __aeabi_d2iz
    gdu_flight_controller.o(.text) refers to gdu_subscribeinfo.o(.text) for GduFcSubscription_GetLatestValueOfTopic
    gdu_flight_controller.o(.data) refers to gdu_flight_controller.o(.text) for GduFlightController_getSubDirAvoidanceState
    gdu_gimbal.o(.text) refers to gdu_logger.o(.text) for GduLogger_LogOutput
    gdu_gimbal.o(.text) refers to memseta.o(.text) for __aeabi_memclr4
    gdu_gimbal.o(.text) refers to dflti.o(.text) for __aeabi_i2d
    gdu_gimbal.o(.text) refers to dmul.o(.text) for __aeabi_dmul
    gdu_gimbal.o(.text) refers to dfixi.o(.text) for __aeabi_d2iz
    gdu_gimbal.o(.text) refers to memcpya.o(.text) for __aeabi_memcpy
    gdu_gimbal.o(.text) refers to gdu_gimbal.o(.constdata) for __FUNCTION__
    gdu_gimbal.o(.text) refers to gdu_gimbal.o(.data) for GimbalCommonHandler
    gdu_gimbal.o(.text) refers to gdu_platform.o(.text) for GduPlatform_GetOsalHandler
    gdu_gimbal.o(.text) refers to gdu_core.o(.text) for GduCore_Reg_FunList
    gdu_gimbal.o(.text) refers to gdu_glink.o(.text) for glink_encode
    gdu_gimbal.o(.text) refers to gdu_gimbal.o(.bss) for status
    gdu_gimbal.o(.data) refers to gdu_gimbal.o(.text) for GduGimbal_PTZ_CtrlCmd
    gdu_logger.o(.text) refers to gdu_platform.o(.text) for GduPlatform_GetOsalHandler
    gdu_logger.o(.text) refers to printfa.o(i.__0printf) for __2printf
    gdu_logger.o(.text) refers to f2d.o(.text) for __aeabi_f2d
    gdu_logger.o(.text) refers to printfa.o(i.__0sprintf) for __2sprintf
    gdu_logger.o(.text) refers to strlen.o(.text) for strlen
    gdu_logger.o(.text) refers to printfa.o(i.__0vsprintf) for vsprintf
    gdu_logger.o(.text) refers to gdu_logger.o(.data) for loogerMutexHandle
    gdu_logger.o(.text) refers to gdu_platform.o(.data) for OsalHandler
    gdu_logger.o(.text) refers to gdu_logger.o(.constdata) for .constdata
    gdu_logger.o(.text) refers to gdu_logger.o(.bss) for sprint_buf
    gdu_logger.o(.constdata) refers to gdu_logger.o(.conststring) for .conststring
    gdu_payload_camera.o(.text) refers to memcpya.o(.text) for __aeabi_memcpy
    gdu_payload_camera.o(.text) refers to gdu_core.o(.text) for GduCore_SendData
    gdu_payload_camera.o(.text) refers to gdu_platform.o(.text) for GduPlatform_GetOsalHandler
    gdu_payload_camera.o(.text) refers to gdu_logger.o(.text) for GduLogger_LogOutput
    gdu_payload_camera.o(.text) refers to gdu_payload_camera.o(.data) for submodule_function
    gdu_payload_camera.o(.text) refers to gdu_payload_camera.o(.bss) for CameraSDCardState
    gdu_payload_camera.o(.text) refers to gdu_payload_camera.o(.constdata) for __FUNCTION__
    gdu_payload_camera.o(.text) refers to gdu_payload_camera.o(.conststring) for .conststring
    gdu_payload_camera.o(.text) refers to memseta.o(.text) for __aeabi_memclr
    gdu_payload_camera.o(.data) refers to gdu_payload_camera.o(.text) for GduCam_GetParam
    gdu_platform.o(.text) refers to gdu_platform.o(.data) for HalUartHandler
    gdu_positioning.o(.text) refers to memcpya.o(.text) for __aeabi_memcpy
    gdu_positioning.o(.text) refers to memseta.o(.text) for __aeabi_memclr4
    gdu_positioning.o(.text) refers to gdu_core.o(.text) for GduCore_SendData
    gdu_positioning.o(.text) refers to gdu_logger.o(.text) for GduLogger_LogOutput
    gdu_positioning.o(.text) refers to gdu_platform.o(.text) for GduPlatform_GetOsalHandler
    gdu_positioning.o(.text) refers to printfa.o(i.__0sprintf) for __2sprintf
    gdu_positioning.o(.text) refers to time_sync.o(.text) for standard_to_stamp
    gdu_positioning.o(.text) refers to gdu_positioning.o(.bss) for posState
    gdu_positioning.o(.text) refers to gdu_positioning.o(.data) for SysInfo
    gdu_positioning.o(.text) refers to gdu_positioning.o(.constdata) for __FUNCTION__
    gdu_positioning.o(.text) refers to uldiv.o(.text) for __aeabi_uldivmod
    gdu_positioning.o(.text) refers to dflti.o(.text) for __aeabi_i2d
    gdu_positioning.o(.text) refers to gdu_positioning.o(.conststring) for .conststring
    gdu_positioning.o(.text) refers to dadd.o(.text) for __aeabi_dsub
    gdu_positioning.o(.text) refers to ddiv.o(.text) for __aeabi_ddiv
    gdu_positioning.o(.text) refers to dmul.o(.text) for __aeabi_dmul
    gdu_positioning.o(.text) refers to gdu_subscribeinfo.o(.text) for GduFcSubscription_getPosSolutionProperty
    gdu_positioning.o(.text) refers to dfixi.o(.text) for __aeabi_d2iz
    gdu_power_management.o(.text) refers to gdu_power_management.o(.data) for GduWriteHighPowerApplyPin
    gdu_ppk.o(.text) refers to memcpya.o(.text) for __aeabi_memcpy
    gdu_ppk.o(.text) refers to gdu_core.o(.text) for GduCode_GetIdInfo
    gdu_ppk.o(.text) refers to gdu_logger.o(.text) for GduLogger_LogOutput
    gdu_ppk.o(.text) refers to gdu_cache.o(.text) for EnQueue
    gdu_ppk.o(.text) refers to gdu_platform.o(.text) for GduPlatform_GetOsalHandler
    gdu_ppk.o(.text) refers to dflti.o(.text) for __aeabi_i2d
    gdu_ppk.o(.text) refers to ddiv.o(.text) for __aeabi_ddiv
    gdu_ppk.o(.text) refers to dadd.o(.text) for __aeabi_dadd
    gdu_ppk.o(.text) refers to printfa.o(i.__0snprintf) for __2snprintf
    gdu_ppk.o(.text) refers to gdu_ppk.o(.data) for PPKHandler
    gdu_ppk.o(.text) refers to gdu_ppk.o(.constdata) for __FUNCTION__
    gdu_ppk.o(.text) refers to gdu_ppk.o(.bss) for PPKQueueMemCache
    gdu_subscribeinfo.o(.text) refers to gdu_logger.o(.text) for GduLogger_LogOutput
    gdu_subscribeinfo.o(.text) refers to gdu_core.o(.text) for GduCore_Subscibe
    gdu_subscribeinfo.o(.text) refers to gdu_platform.o(.text) for GduPlatform_GetOsalHandler
    gdu_subscribeinfo.o(.text) refers to time_sync.o(.text) for GduTimeSync_TransferToAircraftTime
    gdu_subscribeinfo.o(.text) refers to memcpya.o(.text) for __aeabi_memcpy
    gdu_subscribeinfo.o(.text) refers to dflti.o(.text) for __aeabi_i2d
    gdu_subscribeinfo.o(.text) refers to ddiv.o(.text) for __aeabi_ddiv
    gdu_subscribeinfo.o(.text) refers to gdu_subscribeinfo.o(.data) for positionSolutionProperty
    gdu_subscribeinfo.o(.text) refers to gdu_subscribeinfo.o(.constdata) for __FUNCTION__
    gdu_subscribeinfo.o(.text) refers to gdu_subscribeinfo.o(.bss) for posAndTime
    gdu_subscribeinfo.o(.text) refers to printfa.o(i.__0sprintf) for __2sprintf
    gdu_subscribeinfo.o(.text) refers to atoi.o(.text) for atoi
    gdu_subscribeinfo.o(.text) refers to memseta.o(.text) for __aeabi_memclr
    gdu_subscribeinfo.o(.data) refers to gdu_subscribeinfo.o(.text) for aircraft_fc_basic_state_1_Handle
    gdu_upgrade.o(.text) refers to memcpya.o(.text) for __aeabi_memcpy
    gdu_upgrade.o(.text) refers to strstr.o(.text) for strstr
    gdu_upgrade.o(.text) refers to atoi.o(.text) for atoi
    gdu_upgrade.o(.text) refers to memseta.o(.text) for __aeabi_memclr4
    gdu_upgrade.o(.text) refers to printfa.o(i.__0sprintf) for __2sprintf
    gdu_upgrade.o(.text) refers to strlen.o(.text) for strlen
    gdu_upgrade.o(.text) refers to gdu_core.o(.text) for GduCore_SendData
    gdu_upgrade.o(.text) refers to gdu_logger.o(.text) for GduLogger_LogOutput
    gdu_upgrade.o(.text) refers to gdu_upgrade.o(.bss) for status
    gdu_upgrade.o(.text) refers to gdu_upgrade.o(.data) for SysInfo
    gdu_upgrade.o(.text) refers to gdu_upgrade.o(.constdata) for __FUNCTION__
    gdu_upgrade.o(.text) refers to gdu_platform.o(.text) for GduPlatform_GetOsalHandler
    gdu_widget.o(.text) refers to memcpya.o(.text) for __aeabi_memcpy
    gdu_widget.o(.text) refers to gdu_core.o(.text) for GduCore_SendData
    gdu_widget.o(.text) refers to strlen.o(.text) for strlen
    gdu_widget.o(.text) refers to gdu_widget.o(.bss) for status
    gdu_widget.o(.text) refers to gdu_widget.o(.data) for SysInfo
    gdu_widget.o(.text) refers to gdu_platform.o(.text) for GduPlatform_GetOsalHandler
    gdu_widget.o(.text) refers to memseta.o(.text) for __aeabi_memclr4
    gdu_widget.o(.text) refers to strcmp.o(.text) for strcmp
    gdu_widget.o(.data) refers to gdu_widget.o(.text) for GduWidget_ReceiveCmd
    time_sync.o(.text) refers to memseta.o(.text) for __aeabi_memclr4
    time_sync.o(.text) refers to atoi.o(.text) for atoi
    time_sync.o(.text) refers to mktime.o(.text) for mktime
    time_sync.o(.text) refers to gdu_platform.o(.text) for GduPlatform_GetOsalHandler
    time_sync.o(.text) refers to gdu_logger.o(.text) for GduLogger_LogOutput
    time_sync.o(.text) refers to strcmp.o(.text) for strcmp
    time_sync.o(.text) refers to strstr.o(.text) for strstr
    time_sync.o(.text) refers to printfa.o(i.__0sprintf) for __2sprintf
    time_sync.o(.text) refers to strncmp.o(.text) for strncmp
    time_sync.o(.text) refers to gdu_positioning.o(.text) for GduPositioning_getDate
    time_sync.o(.text) refers to gdu_core.o(.text) for GduCore_Reg_FunList
    time_sync.o(.text) refers to time_sync.o(.data) for timeSyncMsg
    time_sync.o(.text) refers to time_sync.o(.constdata) for __FUNCTION__
    time_sync.o(.text) refers to uldiv.o(.text) for __aeabi_uldivmod
    time_sync.o(.text) refers to localtime_w.o(.text) for localtime
    basemsghandle.o(.text) refers to memcpya.o(.text) for __aeabi_memcpy
    basemsghandle.o(.text) refers to memseta.o(.text) for __aeabi_memclr4
    basemsghandle.o(.text) refers to gdu_core.o(.text) for GduCore_SendData
    basemsghandle.o(.text) refers to gdu_logger.o(.text) for GduLogger_LogOutput
    basemsghandle.o(.text) refers to strcmp.o(.text) for strcmp
    basemsghandle.o(.text) refers to printfa.o(i.__0sprintf) for __2sprintf
    basemsghandle.o(.text) refers to gdu_platform.o(.text) for GduPlatform_GetOsalHandler
    basemsghandle.o(.text) refers to strlen.o(.text) for strlen
    basemsghandle.o(.text) refers to basemsghandle.o(.bss) for adapterRingSn
    basemsghandle.o(.text) refers to basemsghandle.o(.data) for comId
    basemsghandle.o(.text) refers to basemsghandle.o(.constdata) for __FUNCTION__
    basemsghandle.o(.data) refers to basemsghandle.o(.text) for baseMsg_assignComId_ack
    gdu_serial.o(.text) refers to gdu_logger.o(.text) for GduLogger_LogOutput
    gdu_serial.o(.text) refers to gdu_platform.o(.data) for HalUartHandler
    gdu_serial.o(.text) refers to gdu_serial.o(.constdata) for __FUNCTION__
    gdu_serial.o(.text) refers to gdu_serial.o(.data) for UartHandle_Data
    npc.o(.text) refers to memcpya.o(.text) for __aeabi_memcpy
    npc.o(.text) refers to general_linked_list.o(.text) for glListInit
    npc.o(.text) refers to gdu_platform.o(.text) for GduPlatform_GetOsalHandler
    npc.o(.text) refers to memseta.o(.text) for __aeabi_memclr4
    npc.o(.text) refers to malloc.o(i.malloc) for malloc
    npc.o(.text) refers to gdu_logger.o(.text) for GduLogger_LogOutput
    npc.o(.text) refers to gdu_cache.o(.text) for EnQueue
    npc.o(.text) refers to npc.o(.data) for commList
    npc.o(.text) refers to npc.o(.constdata) for __FUNCTION__
    gdu_glink.o(.text) refers to gdu_core.o(.text) for GduCode_GetIdInfo
    gdu_glink.o(.text) refers to memcpya.o(.text) for __aeabi_memcpy
    general_linked_list.o(.text) refers to gdu_platform.o(.text) for GduPlatform_GetOsalHandler
    asin.o(i.__hardfp_asin) refers (Special) to iusefp.o(.text) for __I$use$fp
    asin.o(i.__hardfp_asin) refers to dunder.o(i.__mathlib_dbl_infnan) for __mathlib_dbl_infnan
    asin.o(i.__hardfp_asin) refers to dmul.o(.text) for __aeabi_dmul
    asin.o(i.__hardfp_asin) refers to dadd.o(.text) for __aeabi_dadd
    asin.o(i.__hardfp_asin) refers to errno.o(i.__set_errno) for __set_errno
    asin.o(i.__hardfp_asin) refers to dunder.o(i.__mathlib_dbl_invalid) for __mathlib_dbl_invalid
    asin.o(i.__hardfp_asin) refers to fpclassify.o(i.__ARM_fpclassify) for __ARM_fpclassify
    asin.o(i.__hardfp_asin) refers to dunder.o(i.__mathlib_dbl_underflow) for __mathlib_dbl_underflow
    asin.o(i.__hardfp_asin) refers to poly.o(i.__kernel_poly) for __kernel_poly
    asin.o(i.__hardfp_asin) refers to ddiv.o(.text) for __aeabi_ddiv
    asin.o(i.__hardfp_asin) refers to fabs.o(i.fabs) for fabs
    asin.o(i.__hardfp_asin) refers to sqrt.o(i.sqrt) for sqrt
    asin.o(i.__hardfp_asin) refers to asin.o(.constdata) for .constdata
    asin.o(i.__softfp_asin) refers (Special) to iusefp.o(.text) for __I$use$fp
    asin.o(i.__softfp_asin) refers to asin.o(i.__hardfp_asin) for __hardfp_asin
    asin.o(i.asin) refers (Special) to iusefp.o(.text) for __I$use$fp
    asin.o(i.asin) refers to asin.o(i.__hardfp_asin) for __hardfp_asin
    asin.o(.constdata) refers (Special) to iusefp.o(.text) for __I$use$fp
    asin_x.o(i.____hardfp_asin$lsc) refers (Special) to iusefp.o(.text) for __I$use$fp
    asin_x.o(i.____hardfp_asin$lsc) refers to dunder.o(i.__mathlib_dbl_infnan) for __mathlib_dbl_infnan
    asin_x.o(i.____hardfp_asin$lsc) refers to dmul.o(.text) for __aeabi_dmul
    asin_x.o(i.____hardfp_asin$lsc) refers to dadd.o(.text) for __aeabi_dadd
    asin_x.o(i.____hardfp_asin$lsc) refers to errno.o(i.__set_errno) for __set_errno
    asin_x.o(i.____hardfp_asin$lsc) refers to poly.o(i.__kernel_poly) for __kernel_poly
    asin_x.o(i.____hardfp_asin$lsc) refers to ddiv.o(.text) for __aeabi_ddiv
    asin_x.o(i.____hardfp_asin$lsc) refers to fabs.o(i.fabs) for fabs
    asin_x.o(i.____hardfp_asin$lsc) refers to sqrt.o(i.sqrt) for sqrt
    asin_x.o(i.____hardfp_asin$lsc) refers to asin_x.o(.constdata) for .constdata
    asin_x.o(i.____softfp_asin$lsc) refers (Special) to iusefp.o(.text) for __I$use$fp
    asin_x.o(i.____softfp_asin$lsc) refers to asin_x.o(i.____hardfp_asin$lsc) for ____hardfp_asin$lsc
    asin_x.o(i.__asin$lsc) refers (Special) to iusefp.o(.text) for __I$use$fp
    asin_x.o(i.__asin$lsc) refers to asin_x.o(i.____hardfp_asin$lsc) for ____hardfp_asin$lsc
    asin_x.o(.constdata) refers (Special) to iusefp.o(.text) for __I$use$fp
    asinf.o(i.__hardfp_asinf) refers (Special) to iusefp.o(.text) for __I$use$fp
    asinf.o(i.__hardfp_asinf) refers to sqrtf.o(i.sqrtf) for sqrtf
    asinf.o(i.__hardfp_asinf) refers to fpclassifyf.o(i.__ARM_fpclassifyf) for __ARM_fpclassifyf
    asinf.o(i.__hardfp_asinf) refers to funder.o(i.__mathlib_flt_underflow) for __mathlib_flt_underflow
    asinf.o(i.__hardfp_asinf) refers to funder.o(i.__mathlib_flt_infnan) for __mathlib_flt_infnan
    asinf.o(i.__hardfp_asinf) refers to errno.o(i.__set_errno) for __set_errno
    asinf.o(i.__hardfp_asinf) refers to funder.o(i.__mathlib_flt_invalid) for __mathlib_flt_invalid
    asinf.o(i.__softfp_asinf) refers (Special) to iusefp.o(.text) for __I$use$fp
    asinf.o(i.__softfp_asinf) refers to asinf.o(i.__hardfp_asinf) for __hardfp_asinf
    asinf.o(i.asinf) refers (Special) to iusefp.o(.text) for __I$use$fp
    asinf.o(i.asinf) refers to asinf.o(i.__hardfp_asinf) for __hardfp_asinf
    asinf_x.o(i.____hardfp_asinf$lsc) refers (Special) to iusefp.o(.text) for __I$use$fp
    asinf_x.o(i.____hardfp_asinf$lsc) refers to sqrtf.o(i.sqrtf) for sqrtf
    asinf_x.o(i.____hardfp_asinf$lsc) refers to funder.o(i.__mathlib_flt_infnan) for __mathlib_flt_infnan
    asinf_x.o(i.____hardfp_asinf$lsc) refers to errno.o(i.__set_errno) for __set_errno
    asinf_x.o(i.____softfp_asinf$lsc) refers (Special) to iusefp.o(.text) for __I$use$fp
    asinf_x.o(i.____softfp_asinf$lsc) refers to asinf_x.o(i.____hardfp_asinf$lsc) for ____hardfp_asinf$lsc
    asinf_x.o(i.__asinf$lsc) refers (Special) to iusefp.o(.text) for __I$use$fp
    asinf_x.o(i.__asinf$lsc) refers to asinf_x.o(i.____hardfp_asinf$lsc) for ____hardfp_asinf$lsc
    atan2.o(i.__hardfp_atan2) refers (Special) to iusefp.o(.text) for __I$use$fp
    atan2.o(i.__hardfp_atan2) refers to dunder.o(i.__mathlib_dbl_infnan2) for __mathlib_dbl_infnan2
    atan2.o(i.__hardfp_atan2) refers to atan.o(i.atan) for atan
    atan2.o(i.__hardfp_atan2) refers to ddiv.o(.text) for __aeabi_ddiv
    atan2.o(i.__hardfp_atan2) refers to fabs.o(i.fabs) for fabs
    atan2.o(i.__hardfp_atan2) refers to dadd.o(.text) for __aeabi_dsub
    atan2.o(i.__hardfp_atan2) refers to qnan.o(.constdata) for __mathlib_zero
    atan2.o(i.__softfp_atan2) refers (Special) to iusefp.o(.text) for __I$use$fp
    atan2.o(i.__softfp_atan2) refers to atan2.o(i.__hardfp_atan2) for __hardfp_atan2
    atan2.o(i.atan2) refers (Special) to iusefp.o(.text) for __I$use$fp
    atan2.o(i.atan2) refers to atan2.o(i.__hardfp_atan2) for __hardfp_atan2
    atan2_x.o(i.____hardfp_atan2$lsc) refers (Special) to iusefp.o(.text) for __I$use$fp
    atan2_x.o(i.____hardfp_atan2$lsc) refers to dunder.o(i.__mathlib_dbl_infnan2) for __mathlib_dbl_infnan2
    atan2_x.o(i.____hardfp_atan2$lsc) refers to atan.o(i.atan) for atan
    atan2_x.o(i.____hardfp_atan2$lsc) refers to errno.o(i.__set_errno) for __set_errno
    atan2_x.o(i.____hardfp_atan2$lsc) refers to ddiv.o(.text) for __aeabi_ddiv
    atan2_x.o(i.____hardfp_atan2$lsc) refers to fabs.o(i.fabs) for fabs
    atan2_x.o(i.____hardfp_atan2$lsc) refers to dadd.o(.text) for __aeabi_dsub
    atan2_x.o(i.____hardfp_atan2$lsc) refers to qnan.o(.constdata) for __mathlib_zero
    atan2_x.o(i.____softfp_atan2$lsc) refers (Special) to iusefp.o(.text) for __I$use$fp
    atan2_x.o(i.____softfp_atan2$lsc) refers to atan2_x.o(i.____hardfp_atan2$lsc) for ____hardfp_atan2$lsc
    atan2_x.o(i.__atan2$lsc) refers (Special) to iusefp.o(.text) for __I$use$fp
    atan2_x.o(i.__atan2$lsc) refers to atan2_x.o(i.____hardfp_atan2$lsc) for ____hardfp_atan2$lsc
    atan2f.o(i.__hardfp_atan2f) refers (Special) to iusefp.o(.text) for __I$use$fp
    atan2f.o(i.__hardfp_atan2f) refers to fpclassifyf.o(i.__ARM_fpclassifyf) for __ARM_fpclassifyf
    atan2f.o(i.__hardfp_atan2f) refers to funder.o(i.__mathlib_flt_underflow) for __mathlib_flt_underflow
    atan2f.o(i.__hardfp_atan2f) refers to funder.o(i.__mathlib_flt_infnan2) for __mathlib_flt_infnan2
    atan2f.o(i.__softfp_atan2f) refers (Special) to iusefp.o(.text) for __I$use$fp
    atan2f.o(i.__softfp_atan2f) refers to atan2f.o(i.__hardfp_atan2f) for __hardfp_atan2f
    atan2f.o(i.atan2f) refers (Special) to iusefp.o(.text) for __I$use$fp
    atan2f.o(i.atan2f) refers to atan2f.o(i.__hardfp_atan2f) for __hardfp_atan2f
    atan2f_x.o(i.____hardfp_atan2f$lsc) refers (Special) to iusefp.o(.text) for __I$use$fp
    atan2f_x.o(i.____hardfp_atan2f$lsc) refers to funder.o(i.__mathlib_flt_infnan2) for __mathlib_flt_infnan2
    atan2f_x.o(i.____hardfp_atan2f$lsc) refers to errno.o(i.__set_errno) for __set_errno
    atan2f_x.o(i.____softfp_atan2f$lsc) refers (Special) to iusefp.o(.text) for __I$use$fp
    atan2f_x.o(i.____softfp_atan2f$lsc) refers to atan2f_x.o(i.____hardfp_atan2f$lsc) for ____hardfp_atan2f$lsc
    atan2f_x.o(i.__atan2f$lsc) refers (Special) to iusefp.o(.text) for __I$use$fp
    atan2f_x.o(i.__atan2f$lsc) refers to atan2f_x.o(i.____hardfp_atan2f$lsc) for ____hardfp_atan2f$lsc
    cos.o(i.__hardfp_cos) refers (Special) to iusefp.o(.text) for __I$use$fp
    cos.o(i.__hardfp_cos) refers to errno.o(i.__set_errno) for __set_errno
    cos.o(i.__hardfp_cos) refers to dunder.o(i.__mathlib_dbl_invalid) for __mathlib_dbl_invalid
    cos.o(i.__hardfp_cos) refers to dunder.o(i.__mathlib_dbl_infnan) for __mathlib_dbl_infnan
    cos.o(i.__hardfp_cos) refers to rred.o(i.__ieee754_rem_pio2) for __ieee754_rem_pio2
    cos.o(i.__hardfp_cos) refers to sin_i.o(i.__kernel_sin) for __kernel_sin
    cos.o(i.__hardfp_cos) refers to cos_i.o(i.__kernel_cos) for __kernel_cos
    cos.o(i.__softfp_cos) refers (Special) to iusefp.o(.text) for __I$use$fp
    cos.o(i.__softfp_cos) refers to cos.o(i.__hardfp_cos) for __hardfp_cos
    cos.o(i.cos) refers (Special) to iusefp.o(.text) for __I$use$fp
    cos.o(i.cos) refers to cos.o(i.__hardfp_cos) for __hardfp_cos
    cos_x.o(i.____hardfp_cos$lsc) refers (Special) to iusefp.o(.text) for __I$use$fp
    cos_x.o(i.____hardfp_cos$lsc) refers to errno.o(i.__set_errno) for __set_errno
    cos_x.o(i.____hardfp_cos$lsc) refers to dunder.o(i.__mathlib_dbl_infnan) for __mathlib_dbl_infnan
    cos_x.o(i.____hardfp_cos$lsc) refers to rred.o(i.__ieee754_rem_pio2) for __ieee754_rem_pio2
    cos_x.o(i.____hardfp_cos$lsc) refers to sin_i.o(i.__kernel_sin) for __kernel_sin
    cos_x.o(i.____hardfp_cos$lsc) refers to cos_i.o(i.__kernel_cos) for __kernel_cos
    cos_x.o(i.____softfp_cos$lsc) refers (Special) to iusefp.o(.text) for __I$use$fp
    cos_x.o(i.____softfp_cos$lsc) refers to cos_x.o(i.____hardfp_cos$lsc) for ____hardfp_cos$lsc
    cos_x.o(i.__cos$lsc) refers (Special) to iusefp.o(.text) for __I$use$fp
    cos_x.o(i.__cos$lsc) refers to cos_x.o(i.____hardfp_cos$lsc) for ____hardfp_cos$lsc
    fabs.o(i.__hardfp_fabs) refers (Special) to iusefp.o(.text) for __I$use$fp
    fabs.o(i.__softfp_fabs) refers (Special) to iusefp.o(.text) for __I$use$fp
    fabs.o(i.fabs) refers (Special) to iusefp.o(.text) for __I$use$fp
    floor.o(i.__hardfp_floor) refers (Special) to iusefp.o(.text) for __I$use$fp
    floor.o(i.__hardfp_floor) refers to dadd.o(.text) for __aeabi_dadd
    floor.o(i.__hardfp_floor) refers to cdrcmple.o(.text) for __aeabi_cdrcmple
    floor.o(i.__softfp_floor) refers (Special) to iusefp.o(.text) for __I$use$fp
    floor.o(i.__softfp_floor) refers to floor.o(i.__hardfp_floor) for __hardfp_floor
    floor.o(i.floor) refers (Special) to iusefp.o(.text) for __I$use$fp
    floor.o(i.floor) refers to floor.o(i.__hardfp_floor) for __hardfp_floor
    pow.o(i.__hardfp_pow) refers (Special) to iusefp.o(.text) for __I$use$fp
    pow.o(i.__hardfp_pow) refers to dunder.o(i.__mathlib_dbl_infnan2) for __mathlib_dbl_infnan2
    pow.o(i.__hardfp_pow) refers to errno.o(i.__set_errno) for __set_errno
    pow.o(i.__hardfp_pow) refers to dunder.o(i.__mathlib_dbl_divzero) for __mathlib_dbl_divzero
    pow.o(i.__hardfp_pow) refers to dunder.o(i.__mathlib_dbl_overflow) for __mathlib_dbl_overflow
    pow.o(i.__hardfp_pow) refers to ddiv.o(.text) for __aeabi_ddiv
    pow.o(i.__hardfp_pow) refers to sqrt.o(i.sqrt) for sqrt
    pow.o(i.__hardfp_pow) refers to fabs.o(i.fabs) for fabs
    pow.o(i.__hardfp_pow) refers to dflti.o(.text) for __aeabi_i2d
    pow.o(i.__hardfp_pow) refers to dunder.o(i.__mathlib_dbl_invalid) for __mathlib_dbl_invalid
    pow.o(i.__hardfp_pow) refers to dmul.o(.text) for __aeabi_dmul
    pow.o(i.__hardfp_pow) refers to dunder.o(i.__mathlib_dbl_underflow) for __mathlib_dbl_underflow
    pow.o(i.__hardfp_pow) refers to dadd.o(.text) for __aeabi_dsub
    pow.o(i.__hardfp_pow) refers to qnan.o(.constdata) for __mathlib_zero
    pow.o(i.__hardfp_pow) refers to poly.o(i.__kernel_poly) for __kernel_poly
    pow.o(i.__hardfp_pow) refers to pow.o(.constdata) for .constdata
    pow.o(i.__hardfp_pow) refers to cdrcmple.o(.text) for __aeabi_cdrcmple
    pow.o(i.__hardfp_pow) refers to dscalb.o(.text) for __ARM_scalbn
    pow.o(i.__hardfp_pow) refers to fpclassify.o(i.__ARM_fpclassify) for __ARM_fpclassify
    pow.o(i.__softfp_pow) refers (Special) to iusefp.o(.text) for __I$use$fp
    pow.o(i.__softfp_pow) refers to pow.o(i.__hardfp_pow) for __hardfp_pow
    pow.o(i.pow) refers (Special) to iusefp.o(.text) for __I$use$fp
    pow.o(i.pow) refers to pow.o(i.__hardfp_pow) for __hardfp_pow
    pow.o(.constdata) refers (Special) to iusefp.o(.text) for __I$use$fp
    pow_x.o(i.____hardfp_pow$lsc) refers (Special) to iusefp.o(.text) for __I$use$fp
    pow_x.o(i.____hardfp_pow$lsc) refers to dunder.o(i.__mathlib_dbl_infnan2) for __mathlib_dbl_infnan2
    pow_x.o(i.____hardfp_pow$lsc) refers to errno.o(i.__set_errno) for __set_errno
    pow_x.o(i.____hardfp_pow$lsc) refers to ddiv.o(.text) for __aeabi_ddiv
    pow_x.o(i.____hardfp_pow$lsc) refers to sqrt.o(i.sqrt) for sqrt
    pow_x.o(i.____hardfp_pow$lsc) refers to fabs.o(i.fabs) for fabs
    pow_x.o(i.____hardfp_pow$lsc) refers to dflti.o(.text) for __aeabi_i2d
    pow_x.o(i.____hardfp_pow$lsc) refers to dmul.o(.text) for __aeabi_dmul
    pow_x.o(i.____hardfp_pow$lsc) refers to dadd.o(.text) for __aeabi_dsub
    pow_x.o(i.____hardfp_pow$lsc) refers to qnan.o(.constdata) for __mathlib_zero
    pow_x.o(i.____hardfp_pow$lsc) refers to poly.o(i.__kernel_poly) for __kernel_poly
    pow_x.o(i.____hardfp_pow$lsc) refers to pow_x.o(.constdata) for .constdata
    pow_x.o(i.____hardfp_pow$lsc) refers to cdrcmple.o(.text) for __aeabi_cdrcmple
    pow_x.o(i.____hardfp_pow$lsc) refers to dscalb.o(.text) for __ARM_scalbn
    pow_x.o(i.____softfp_pow$lsc) refers (Special) to iusefp.o(.text) for __I$use$fp
    pow_x.o(i.____softfp_pow$lsc) refers to pow_x.o(i.____hardfp_pow$lsc) for ____hardfp_pow$lsc
    pow_x.o(i.__pow$lsc) refers (Special) to iusefp.o(.text) for __I$use$fp
    pow_x.o(i.__pow$lsc) refers to pow_x.o(i.____hardfp_pow$lsc) for ____hardfp_pow$lsc
    pow_x.o(.constdata) refers (Special) to iusefp.o(.text) for __I$use$fp
    sqrt.o(i.__hardfp_sqrt) refers (Special) to iusefp.o(.text) for __I$use$fp
    sqrt.o(i.__hardfp_sqrt) refers to dsqrt.o(.text) for _dsqrt
    sqrt.o(i.__hardfp_sqrt) refers to errno.o(i.__set_errno) for __set_errno
    sqrt.o(i.__softfp_sqrt) refers (Special) to iusefp.o(.text) for __I$use$fp
    sqrt.o(i.__softfp_sqrt) refers to dsqrt.o(.text) for _dsqrt
    sqrt.o(i.__softfp_sqrt) refers to errno.o(i.__set_errno) for __set_errno
    sqrt.o(i.sqrt) refers (Special) to iusefp.o(.text) for __I$use$fp
    sqrt.o(i.sqrt) refers to dsqrt.o(.text) for _dsqrt
    sqrt.o(i.sqrt) refers to errno.o(i.__set_errno) for __set_errno
    sqrt_x.o(i.____hardfp_sqrt$lsc) refers (Special) to iusefp.o(.text) for __I$use$fp
    sqrt_x.o(i.____hardfp_sqrt$lsc) refers to cdcmple.o(.text) for __aeabi_cdcmple
    sqrt_x.o(i.____hardfp_sqrt$lsc) refers to errno.o(i.__set_errno) for __set_errno
    sqrt_x.o(i.____hardfp_sqrt$lsc) refers to dsqrt.o(.text) for _dsqrt
    sqrt_x.o(i.____softfp_sqrt$lsc) refers (Special) to iusefp.o(.text) for __I$use$fp
    sqrt_x.o(i.____softfp_sqrt$lsc) refers to cdcmple.o(.text) for __aeabi_cdcmple
    sqrt_x.o(i.____softfp_sqrt$lsc) refers to errno.o(i.__set_errno) for __set_errno
    sqrt_x.o(i.____softfp_sqrt$lsc) refers to dsqrt.o(.text) for _dsqrt
    sqrt_x.o(i.__sqrt$lsc) refers (Special) to iusefp.o(.text) for __I$use$fp
    sqrt_x.o(i.__sqrt$lsc) refers to cdcmple.o(.text) for __aeabi_cdcmple
    sqrt_x.o(i.__sqrt$lsc) refers to errno.o(i.__set_errno) for __set_errno
    sqrt_x.o(i.__sqrt$lsc) refers to dsqrt.o(.text) for _dsqrt
    entry.o(.ARM.Collect$$$$00000000) refers (Special) to entry10a.o(.ARM.Collect$$$$0000000D) for __rt_final_cpp
    entry.o(.ARM.Collect$$$$00000000) refers (Special) to entry11a.o(.ARM.Collect$$$$0000000F) for __rt_final_exit
    entry.o(.ARM.Collect$$$$00000000) refers (Special) to entry7b.o(.ARM.Collect$$$$00000008) for _main_clock
    entry.o(.ARM.Collect$$$$00000000) refers (Special) to entry8b.o(.ARM.Collect$$$$0000000A) for _main_cpp_init
    entry.o(.ARM.Collect$$$$00000000) refers (Special) to entry9a.o(.ARM.Collect$$$$0000000B) for _main_init
    entry.o(.ARM.Collect$$$$00000000) refers (Special) to entry5.o(.ARM.Collect$$$$00000004) for _main_scatterload
    entry.o(.ARM.Collect$$$$00000000) refers (Special) to entry2.o(.ARM.Collect$$$$00000001) for _main_stk
    uldiv.o(.text) refers to llushr.o(.text) for __aeabi_llsr
    uldiv.o(.text) refers to llshl.o(.text) for __aeabi_llsl
    localtime.o(.text) refers to localtime.o(.bss) for .bss
    localtime.o(.text) refers to localtime.o(.constdata) for .constdata
    mktime.o(.text) refers to localtime_i.o(.text) for _localtime
    mktime.o(.text) refers to mktime.o(.constdata) for .constdata
    printfb.o(i.__0fprintf$bare) refers to printfb.o(i._printf_core) for _printf_core
    printfb.o(i.__0fprintf$bare) refers to uart.o(.text) for fputc
    printfb.o(i.__0printf$bare) refers to printfb.o(i._printf_core) for _printf_core
    printfb.o(i.__0printf$bare) refers to uart.o(.text) for fputc
    printfb.o(i.__0printf$bare) refers to stdout.o(.data) for __stdout
    printfb.o(i.__0snprintf$bare) refers to printfb.o(i._printf_core) for _printf_core
    printfb.o(i.__0snprintf$bare) refers to printfb.o(i._snputc) for _snputc
    printfb.o(i.__0sprintf$bare) refers to printfb.o(i._printf_core) for _printf_core
    printfb.o(i.__0sprintf$bare) refers to printfb.o(i._sputc) for _sputc
    printfb.o(i.__0vfprintf$bare) refers to printfb.o(i._printf_core) for _printf_core
    printfb.o(i.__0vfprintf$bare) refers to uart.o(.text) for fputc
    printfb.o(i.__0vprintf$bare) refers to printfb.o(i._printf_core) for _printf_core
    printfb.o(i.__0vprintf$bare) refers to uart.o(.text) for fputc
    printfb.o(i.__0vprintf$bare) refers to stdout.o(.data) for __stdout
    printfb.o(i.__0vsnprintf$bare) refers to printfb.o(i._printf_core) for _printf_core
    printfb.o(i.__0vsnprintf$bare) refers to printfb.o(i._snputc) for _snputc
    printfb.o(i.__0vsprintf$bare) refers to printfb.o(i._printf_core) for _printf_core
    printfb.o(i.__0vsprintf$bare) refers to printfb.o(i._sputc) for _sputc
    printf0.o(i.__0fprintf$0) refers to printf0.o(i._printf_core) for _printf_core
    printf0.o(i.__0fprintf$0) refers to uart.o(.text) for fputc
    printf0.o(i.__0printf$0) refers to printf0.o(i._printf_core) for _printf_core
    printf0.o(i.__0printf$0) refers to uart.o(.text) for fputc
    printf0.o(i.__0printf$0) refers to stdout.o(.data) for __stdout
    printf0.o(i.__0snprintf$0) refers to printf0.o(i._printf_core) for _printf_core
    printf0.o(i.__0snprintf$0) refers to printf0.o(i._snputc) for _snputc
    printf0.o(i.__0sprintf$0) refers to printf0.o(i._printf_core) for _printf_core
    printf0.o(i.__0sprintf$0) refers to printf0.o(i._sputc) for _sputc
    printf0.o(i.__0vfprintf$0) refers to printf0.o(i._printf_core) for _printf_core
    printf0.o(i.__0vfprintf$0) refers to uart.o(.text) for fputc
    printf0.o(i.__0vprintf$0) refers to printf0.o(i._printf_core) for _printf_core
    printf0.o(i.__0vprintf$0) refers to uart.o(.text) for fputc
    printf0.o(i.__0vprintf$0) refers to stdout.o(.data) for __stdout
    printf0.o(i.__0vsnprintf$0) refers to printf0.o(i._printf_core) for _printf_core
    printf0.o(i.__0vsnprintf$0) refers to printf0.o(i._snputc) for _snputc
    printf0.o(i.__0vsprintf$0) refers to printf0.o(i._printf_core) for _printf_core
    printf0.o(i.__0vsprintf$0) refers to printf0.o(i._sputc) for _sputc
    printf1.o(i.__0fprintf$1) refers to printf1.o(i._printf_core) for _printf_core
    printf1.o(i.__0fprintf$1) refers to uart.o(.text) for fputc
    printf1.o(i.__0printf$1) refers to printf1.o(i._printf_core) for _printf_core
    printf1.o(i.__0printf$1) refers to uart.o(.text) for fputc
    printf1.o(i.__0printf$1) refers to stdout.o(.data) for __stdout
    printf1.o(i.__0snprintf$1) refers to printf1.o(i._printf_core) for _printf_core
    printf1.o(i.__0snprintf$1) refers to printf1.o(i._snputc) for _snputc
    printf1.o(i.__0sprintf$1) refers to printf1.o(i._printf_core) for _printf_core
    printf1.o(i.__0sprintf$1) refers to printf1.o(i._sputc) for _sputc
    printf1.o(i.__0vfprintf$1) refers to printf1.o(i._printf_core) for _printf_core
    printf1.o(i.__0vfprintf$1) refers to uart.o(.text) for fputc
    printf1.o(i.__0vprintf$1) refers to printf1.o(i._printf_core) for _printf_core
    printf1.o(i.__0vprintf$1) refers to uart.o(.text) for fputc
    printf1.o(i.__0vprintf$1) refers to stdout.o(.data) for __stdout
    printf1.o(i.__0vsnprintf$1) refers to printf1.o(i._printf_core) for _printf_core
    printf1.o(i.__0vsnprintf$1) refers to printf1.o(i._snputc) for _snputc
    printf1.o(i.__0vsprintf$1) refers to printf1.o(i._printf_core) for _printf_core
    printf1.o(i.__0vsprintf$1) refers to printf1.o(i._sputc) for _sputc
    printf1.o(i._printf_core) refers to uidiv.o(.text) for __aeabi_uidivmod
    printf2.o(i.__0fprintf$2) refers to printf2.o(i._printf_core) for _printf_core
    printf2.o(i.__0fprintf$2) refers to uart.o(.text) for fputc
    printf2.o(i.__0printf$2) refers to printf2.o(i._printf_core) for _printf_core
    printf2.o(i.__0printf$2) refers to uart.o(.text) for fputc
    printf2.o(i.__0printf$2) refers to stdout.o(.data) for __stdout
    printf2.o(i.__0snprintf$2) refers to printf2.o(i._printf_core) for _printf_core
    printf2.o(i.__0snprintf$2) refers to printf2.o(i._snputc) for _snputc
    printf2.o(i.__0sprintf$2) refers to printf2.o(i._printf_core) for _printf_core
    printf2.o(i.__0sprintf$2) refers to printf2.o(i._sputc) for _sputc
    printf2.o(i.__0vfprintf$2) refers to printf2.o(i._printf_core) for _printf_core
    printf2.o(i.__0vfprintf$2) refers to uart.o(.text) for fputc
    printf2.o(i.__0vprintf$2) refers to printf2.o(i._printf_core) for _printf_core
    printf2.o(i.__0vprintf$2) refers to uart.o(.text) for fputc
    printf2.o(i.__0vprintf$2) refers to stdout.o(.data) for __stdout
    printf2.o(i.__0vsnprintf$2) refers to printf2.o(i._printf_core) for _printf_core
    printf2.o(i.__0vsnprintf$2) refers to printf2.o(i._snputc) for _snputc
    printf2.o(i.__0vsprintf$2) refers to printf2.o(i._printf_core) for _printf_core
    printf2.o(i.__0vsprintf$2) refers to printf2.o(i._sputc) for _sputc
    printf3.o(i.__0fprintf$3) refers to printf3.o(i._printf_core) for _printf_core
    printf3.o(i.__0fprintf$3) refers to uart.o(.text) for fputc
    printf3.o(i.__0printf$3) refers to printf3.o(i._printf_core) for _printf_core
    printf3.o(i.__0printf$3) refers to uart.o(.text) for fputc
    printf3.o(i.__0printf$3) refers to stdout.o(.data) for __stdout
    printf3.o(i.__0snprintf$3) refers to printf3.o(i._printf_core) for _printf_core
    printf3.o(i.__0snprintf$3) refers to printf3.o(i._snputc) for _snputc
    printf3.o(i.__0sprintf$3) refers to printf3.o(i._printf_core) for _printf_core
    printf3.o(i.__0sprintf$3) refers to printf3.o(i._sputc) for _sputc
    printf3.o(i.__0vfprintf$3) refers to printf3.o(i._printf_core) for _printf_core
    printf3.o(i.__0vfprintf$3) refers to uart.o(.text) for fputc
    printf3.o(i.__0vprintf$3) refers to printf3.o(i._printf_core) for _printf_core
    printf3.o(i.__0vprintf$3) refers to uart.o(.text) for fputc
    printf3.o(i.__0vprintf$3) refers to stdout.o(.data) for __stdout
    printf3.o(i.__0vsnprintf$3) refers to printf3.o(i._printf_core) for _printf_core
    printf3.o(i.__0vsnprintf$3) refers to printf3.o(i._snputc) for _snputc
    printf3.o(i.__0vsprintf$3) refers to printf3.o(i._printf_core) for _printf_core
    printf3.o(i.__0vsprintf$3) refers to printf3.o(i._sputc) for _sputc
    printf3.o(i._printf_core) refers to uidiv.o(.text) for __aeabi_uidivmod
    printf4.o(i.__0fprintf$4) refers to printf4.o(i._printf_core) for _printf_core
    printf4.o(i.__0fprintf$4) refers to uart.o(.text) for fputc
    printf4.o(i.__0printf$4) refers to printf4.o(i._printf_core) for _printf_core
    printf4.o(i.__0printf$4) refers to uart.o(.text) for fputc
    printf4.o(i.__0printf$4) refers to stdout.o(.data) for __stdout
    printf4.o(i.__0snprintf$4) refers to printf4.o(i._printf_core) for _printf_core
    printf4.o(i.__0snprintf$4) refers to printf4.o(i._snputc) for _snputc
    printf4.o(i.__0sprintf$4) refers to printf4.o(i._printf_core) for _printf_core
    printf4.o(i.__0sprintf$4) refers to printf4.o(i._sputc) for _sputc
    printf4.o(i.__0vfprintf$4) refers to printf4.o(i._printf_core) for _printf_core
    printf4.o(i.__0vfprintf$4) refers to uart.o(.text) for fputc
    printf4.o(i.__0vprintf$4) refers to printf4.o(i._printf_core) for _printf_core
    printf4.o(i.__0vprintf$4) refers to uart.o(.text) for fputc
    printf4.o(i.__0vprintf$4) refers to stdout.o(.data) for __stdout
    printf4.o(i.__0vsnprintf$4) refers to printf4.o(i._printf_core) for _printf_core
    printf4.o(i.__0vsnprintf$4) refers to printf4.o(i._snputc) for _snputc
    printf4.o(i.__0vsprintf$4) refers to printf4.o(i._printf_core) for _printf_core
    printf4.o(i.__0vsprintf$4) refers to printf4.o(i._sputc) for _sputc
    printf4.o(i._printf_core) refers to uldiv.o(.text) for __aeabi_uldivmod
    printf5.o(i.__0fprintf$5) refers to printf5.o(i._printf_core) for _printf_core
    printf5.o(i.__0fprintf$5) refers to uart.o(.text) for fputc
    printf5.o(i.__0printf$5) refers to printf5.o(i._printf_core) for _printf_core
    printf5.o(i.__0printf$5) refers to uart.o(.text) for fputc
    printf5.o(i.__0printf$5) refers to stdout.o(.data) for __stdout
    printf5.o(i.__0snprintf$5) refers to printf5.o(i._printf_core) for _printf_core
    printf5.o(i.__0snprintf$5) refers to printf5.o(i._snputc) for _snputc
    printf5.o(i.__0sprintf$5) refers to printf5.o(i._printf_core) for _printf_core
    printf5.o(i.__0sprintf$5) refers to printf5.o(i._sputc) for _sputc
    printf5.o(i.__0vfprintf$5) refers to printf5.o(i._printf_core) for _printf_core
    printf5.o(i.__0vfprintf$5) refers to uart.o(.text) for fputc
    printf5.o(i.__0vprintf$5) refers to printf5.o(i._printf_core) for _printf_core
    printf5.o(i.__0vprintf$5) refers to uart.o(.text) for fputc
    printf5.o(i.__0vprintf$5) refers to stdout.o(.data) for __stdout
    printf5.o(i.__0vsnprintf$5) refers to printf5.o(i._printf_core) for _printf_core
    printf5.o(i.__0vsnprintf$5) refers to printf5.o(i._snputc) for _snputc
    printf5.o(i.__0vsprintf$5) refers to printf5.o(i._printf_core) for _printf_core
    printf5.o(i.__0vsprintf$5) refers to printf5.o(i._sputc) for _sputc
    printf5.o(i._printf_core) refers to uldiv.o(.text) for __aeabi_uldivmod
    printf6.o(i.__0fprintf$6) refers to printf6.o(i._printf_core) for _printf_core
    printf6.o(i.__0fprintf$6) refers to uart.o(.text) for fputc
    printf6.o(i.__0printf$6) refers to printf6.o(i._printf_core) for _printf_core
    printf6.o(i.__0printf$6) refers to uart.o(.text) for fputc
    printf6.o(i.__0printf$6) refers to stdout.o(.data) for __stdout
    printf6.o(i.__0snprintf$6) refers to printf6.o(i._printf_core) for _printf_core
    printf6.o(i.__0snprintf$6) refers to printf6.o(i._snputc) for _snputc
    printf6.o(i.__0sprintf$6) refers to printf6.o(i._printf_core) for _printf_core
    printf6.o(i.__0sprintf$6) refers to printf6.o(i._sputc) for _sputc
    printf6.o(i.__0vfprintf$6) refers to printf6.o(i._printf_core) for _printf_core
    printf6.o(i.__0vfprintf$6) refers to uart.o(.text) for fputc
    printf6.o(i.__0vprintf$6) refers to printf6.o(i._printf_core) for _printf_core
    printf6.o(i.__0vprintf$6) refers to uart.o(.text) for fputc
    printf6.o(i.__0vprintf$6) refers to stdout.o(.data) for __stdout
    printf6.o(i.__0vsnprintf$6) refers to printf6.o(i._printf_core) for _printf_core
    printf6.o(i.__0vsnprintf$6) refers to printf6.o(i._snputc) for _snputc
    printf6.o(i.__0vsprintf$6) refers to printf6.o(i._printf_core) for _printf_core
    printf6.o(i.__0vsprintf$6) refers to printf6.o(i._sputc) for _sputc
    printf6.o(i._printf_core) refers to printf6.o(i._printf_pre_padding) for _printf_pre_padding
    printf6.o(i._printf_core) refers to uidiv.o(.text) for __aeabi_uidivmod
    printf6.o(i._printf_core) refers to printf6.o(i._printf_post_padding) for _printf_post_padding
    printf7.o(i.__0fprintf$7) refers to printf7.o(i._printf_core) for _printf_core
    printf7.o(i.__0fprintf$7) refers to uart.o(.text) for fputc
    printf7.o(i.__0printf$7) refers to printf7.o(i._printf_core) for _printf_core
    printf7.o(i.__0printf$7) refers to uart.o(.text) for fputc
    printf7.o(i.__0printf$7) refers to stdout.o(.data) for __stdout
    printf7.o(i.__0snprintf$7) refers to printf7.o(i._printf_core) for _printf_core
    printf7.o(i.__0snprintf$7) refers to printf7.o(i._snputc) for _snputc
    printf7.o(i.__0sprintf$7) refers to printf7.o(i._printf_core) for _printf_core
    printf7.o(i.__0sprintf$7) refers to printf7.o(i._sputc) for _sputc
    printf7.o(i.__0vfprintf$7) refers to printf7.o(i._printf_core) for _printf_core
    printf7.o(i.__0vfprintf$7) refers to uart.o(.text) for fputc
    printf7.o(i.__0vprintf$7) refers to printf7.o(i._printf_core) for _printf_core
    printf7.o(i.__0vprintf$7) refers to uart.o(.text) for fputc
    printf7.o(i.__0vprintf$7) refers to stdout.o(.data) for __stdout
    printf7.o(i.__0vsnprintf$7) refers to printf7.o(i._printf_core) for _printf_core
    printf7.o(i.__0vsnprintf$7) refers to printf7.o(i._snputc) for _snputc
    printf7.o(i.__0vsprintf$7) refers to printf7.o(i._printf_core) for _printf_core
    printf7.o(i.__0vsprintf$7) refers to printf7.o(i._sputc) for _sputc
    printf7.o(i._printf_core) refers to printf7.o(i._printf_pre_padding) for _printf_pre_padding
    printf7.o(i._printf_core) refers to uldiv.o(.text) for __aeabi_uldivmod
    printf7.o(i._printf_core) refers to printf7.o(i._printf_post_padding) for _printf_post_padding
    printf8.o(i.__0fprintf$8) refers to printf8.o(i._printf_core) for _printf_core
    printf8.o(i.__0fprintf$8) refers to uart.o(.text) for fputc
    printf8.o(i.__0printf$8) refers to printf8.o(i._printf_core) for _printf_core
    printf8.o(i.__0printf$8) refers to uart.o(.text) for fputc
    printf8.o(i.__0printf$8) refers to stdout.o(.data) for __stdout
    printf8.o(i.__0snprintf$8) refers to printf8.o(i._printf_core) for _printf_core
    printf8.o(i.__0snprintf$8) refers to printf8.o(i._snputc) for _snputc
    printf8.o(i.__0sprintf$8) refers to printf8.o(i._printf_core) for _printf_core
    printf8.o(i.__0sprintf$8) refers to printf8.o(i._sputc) for _sputc
    printf8.o(i.__0vfprintf$8) refers to printf8.o(i._printf_core) for _printf_core
    printf8.o(i.__0vfprintf$8) refers to uart.o(.text) for fputc
    printf8.o(i.__0vprintf$8) refers to printf8.o(i._printf_core) for _printf_core
    printf8.o(i.__0vprintf$8) refers to uart.o(.text) for fputc
    printf8.o(i.__0vprintf$8) refers to stdout.o(.data) for __stdout
    printf8.o(i.__0vsnprintf$8) refers to printf8.o(i._printf_core) for _printf_core
    printf8.o(i.__0vsnprintf$8) refers to printf8.o(i._snputc) for _snputc
    printf8.o(i.__0vsprintf$8) refers to printf8.o(i._printf_core) for _printf_core
    printf8.o(i.__0vsprintf$8) refers to printf8.o(i._sputc) for _sputc
    printf8.o(i._printf_core) refers to printf8.o(i._printf_pre_padding) for _printf_pre_padding
    printf8.o(i._printf_core) refers to uldiv.o(.text) for __aeabi_uldivmod
    printf8.o(i._printf_core) refers to printf8.o(i._printf_post_padding) for _printf_post_padding
    printfa.o(i.__0fprintf) refers (Special) to iusefp.o(.text) for __I$use$fp
    printfa.o(i.__0fprintf) refers to printfa.o(i._printf_core) for _printf_core
    printfa.o(i.__0fprintf) refers to uart.o(.text) for fputc
    printfa.o(i.__0printf) refers (Special) to iusefp.o(.text) for __I$use$fp
    printfa.o(i.__0printf) refers to printfa.o(i._printf_core) for _printf_core
    printfa.o(i.__0printf) refers to uart.o(.text) for fputc
    printfa.o(i.__0printf) refers to stdout.o(.data) for __stdout
    printfa.o(i.__0snprintf) refers (Special) to iusefp.o(.text) for __I$use$fp
    printfa.o(i.__0snprintf) refers to printfa.o(i._printf_core) for _printf_core
    printfa.o(i.__0snprintf) refers to printfa.o(i._snputc) for _snputc
    printfa.o(i.__0sprintf) refers (Special) to iusefp.o(.text) for __I$use$fp
    printfa.o(i.__0sprintf) refers to printfa.o(i._printf_core) for _printf_core
    printfa.o(i.__0sprintf) refers to printfa.o(i._sputc) for _sputc
    printfa.o(i.__0vfprintf) refers (Special) to iusefp.o(.text) for __I$use$fp
    printfa.o(i.__0vfprintf) refers to printfa.o(i._printf_core) for _printf_core
    printfa.o(i.__0vfprintf) refers to uart.o(.text) for fputc
    printfa.o(i.__0vprintf) refers (Special) to iusefp.o(.text) for __I$use$fp
    printfa.o(i.__0vprintf) refers to printfa.o(i._printf_core) for _printf_core
    printfa.o(i.__0vprintf) refers to uart.o(.text) for fputc
    printfa.o(i.__0vprintf) refers to stdout.o(.data) for __stdout
    printfa.o(i.__0vsnprintf) refers (Special) to iusefp.o(.text) for __I$use$fp
    printfa.o(i.__0vsnprintf) refers to printfa.o(i._printf_core) for _printf_core
    printfa.o(i.__0vsnprintf) refers to printfa.o(i._snputc) for _snputc
    printfa.o(i.__0vsprintf) refers (Special) to iusefp.o(.text) for __I$use$fp
    printfa.o(i.__0vsprintf) refers to printfa.o(i._printf_core) for _printf_core
    printfa.o(i.__0vsprintf) refers to printfa.o(i._sputc) for _sputc
    printfa.o(i._fp_digits) refers (Special) to iusefp.o(.text) for __I$use$fp
    printfa.o(i._fp_digits) refers to dmul.o(.text) for __aeabi_dmul
    printfa.o(i._fp_digits) refers to ddiv.o(.text) for __aeabi_ddiv
    printfa.o(i._fp_digits) refers to cdrcmple.o(.text) for __aeabi_cdrcmple
    printfa.o(i._fp_digits) refers to dadd.o(.text) for __aeabi_dadd
    printfa.o(i._fp_digits) refers to dfixul.o(.text) for __aeabi_d2ulz
    printfa.o(i._fp_digits) refers to uldiv.o(.text) for __aeabi_uldivmod
    printfa.o(i._printf_core) refers (Special) to iusefp.o(.text) for __I$use$fp
    printfa.o(i._printf_core) refers to printfa.o(i._printf_pre_padding) for _printf_pre_padding
    printfa.o(i._printf_core) refers to uldiv.o(.text) for __aeabi_uldivmod
    printfa.o(i._printf_core) refers to printfa.o(i._printf_post_padding) for _printf_post_padding
    printfa.o(i._printf_core) refers to printfa.o(i._fp_digits) for _fp_digits
    printfa.o(i._printf_core) refers to uidiv.o(.text) for __aeabi_uidivmod
    printfa.o(i._printf_post_padding) refers (Special) to iusefp.o(.text) for __I$use$fp
    printfa.o(i._printf_pre_padding) refers (Special) to iusefp.o(.text) for __I$use$fp
    printfa.o(i._snputc) refers (Special) to iusefp.o(.text) for __I$use$fp
    printfa.o(i._sputc) refers (Special) to iusefp.o(.text) for __I$use$fp
    malloc.o(i.free) refers to mvars.o(.data) for __microlib_freelist
    malloc.o(i.malloc) refers to mvars.o(.data) for __microlib_freelist_initialised
    malloc.o(i.malloc) refers to mvars.o(.data) for __microlib_freelist
    malloc.o(i.malloc) refers to startup_stm32f407xx.o(HEAP) for __heap_base
    mallocr.o(i.__free$realloc) refers to mvars.o(.data) for __microlib_freelist
    mallocr.o(i.__malloc$realloc) refers to mallocr.o(i.internal_alloc) for internal_alloc
    mallocr.o(i.__malloc$realloc) refers to mvars.o(.data) for __microlib_freelist_initialised
    mallocr.o(i.__malloc$realloc) refers to startup_stm32f407xx.o(HEAP) for __heap_base
    mallocr.o(i.__malloc$realloc) refers to mvars.o(.data) for __microlib_freelist
    mallocr.o(i.internal_alloc) refers to memcpya.o(.text) for __aeabi_memcpy
    mallocr.o(i.internal_alloc) refers to mvars.o(.data) for __microlib_freelist
    mallocr.o(i.realloc) refers to mallocr.o(i.__free$realloc) for __free$realloc
    mallocr.o(i.realloc) refers to mallocr.o(i.internal_alloc) for internal_alloc
    mallocr.o(i.realloc) refers to mallocr.o(i.__malloc$realloc) for __malloc$realloc
    mallocr.o(i.realloc) refers to mvars.o(.data) for __microlib_freelist
    malloca.o(i.__aligned_malloc) refers to mvars.o(.data) for __microlib_freelist_initialised
    malloca.o(i.__aligned_malloc) refers to mvars.o(.data) for __microlib_freelist
    malloca.o(i.__aligned_malloc) refers to startup_stm32f407xx.o(HEAP) for __heap_base
    malloca.o(i.__free$memalign) refers to mvars.o(.data) for __microlib_freelist
    malloca.o(i.__malloc$memalign) refers to malloca.o(i.__aligned_malloc) for __aligned_malloc
    mallocra.o(i.__aligned_malloc$realloc) refers to mallocra.o(i.internal_alloc) for internal_alloc
    mallocra.o(i.__aligned_malloc$realloc) refers to mvars.o(.data) for __microlib_freelist_initialised
    mallocra.o(i.__aligned_malloc$realloc) refers to startup_stm32f407xx.o(HEAP) for __heap_base
    mallocra.o(i.__aligned_malloc$realloc) refers to mvars.o(.data) for __microlib_freelist
    mallocra.o(i.__free$realloc$memalign) refers to mvars.o(.data) for __microlib_freelist
    mallocra.o(i.__malloc$realloc$memalign) refers to mallocra.o(i.__aligned_malloc$realloc) for __aligned_malloc$realloc
    mallocra.o(i.__realloc$memalign) refers to mallocra.o(i.__free$realloc$memalign) for __free$realloc$memalign
    mallocra.o(i.__realloc$memalign) refers to mallocra.o(i.internal_alloc) for internal_alloc
    mallocra.o(i.__realloc$memalign) refers to mallocra.o(i.__malloc$realloc$memalign) for __malloc$realloc$memalign
    mallocra.o(i.__realloc$memalign) refers to mvars.o(.data) for __microlib_freelist
    mallocra.o(i.internal_alloc) refers to memcpya.o(.text) for __aeabi_memcpy
    mallocra.o(i.internal_alloc) refers to mvars.o(.data) for __microlib_freelist
    atoi.o(.text) refers to errno.o(i.__aeabi_errno_addr) for __aeabi_errno_addr
    atoi.o(.text) refers to strtol.o(.text) for strtol
    atol.o(.text) refers to errno.o(i.__aeabi_errno_addr) for __aeabi_errno_addr
    atol.o(.text) refers to strtol.o(.text) for strtol
    dadd.o(.text) refers (Special) to iusefp.o(.text) for __I$use$fp
    dadd.o(.text) refers to llshl.o(.text) for __aeabi_llsl
    dadd.o(.text) refers to llsshr.o(.text) for __aeabi_lasr
    dadd.o(.text) refers to depilogue.o(.text) for _double_epilogue
    dmul.o(.text) refers (Special) to iusefp.o(.text) for __I$use$fp
    dmul.o(.text) refers to depilogue.o(.text) for _double_epilogue
    ddiv.o(.text) refers (Special) to iusefp.o(.text) for __I$use$fp
    ddiv.o(.text) refers to depilogue.o(.text) for _double_round
    dflti.o(.text) refers (Special) to iusefp.o(.text) for __I$use$fp
    dflti.o(.text) refers to depilogue.o(.text) for _double_epilogue
    dfixi.o(.text) refers (Special) to iusefp.o(.text) for __I$use$fp
    dfixi.o(.text) refers to llushr.o(.text) for __aeabi_llsr
    f2d.o(.text) refers (Special) to iusefp.o(.text) for __I$use$fp
    cdcmple.o(.text) refers (Special) to iusefp.o(.text) for __I$use$fp
    cdrcmple.o(.text) refers (Special) to iusefp.o(.text) for __I$use$fp
    d2f.o(.text) refers (Special) to iusefp.o(.text) for __I$use$fp
    d2f.o(.text) refers to fepilogue.o(.text) for _float_round
    atan.o(i.__hardfp_atan) refers (Special) to iusefp.o(.text) for __I$use$fp
    atan.o(i.__hardfp_atan) refers to dunder.o(i.__mathlib_dbl_infnan) for __mathlib_dbl_infnan
    atan.o(i.__hardfp_atan) refers to fpclassify.o(i.__ARM_fpclassify) for __ARM_fpclassify
    atan.o(i.__hardfp_atan) refers to dunder.o(i.__mathlib_dbl_underflow) for __mathlib_dbl_underflow
    atan.o(i.__hardfp_atan) refers to fabs.o(i.fabs) for fabs
    atan.o(i.__hardfp_atan) refers to dadd.o(.text) for __aeabi_dadd
    atan.o(i.__hardfp_atan) refers to dmul.o(.text) for __aeabi_dmul
    atan.o(i.__hardfp_atan) refers to ddiv.o(.text) for __aeabi_ddiv
    atan.o(i.__hardfp_atan) refers to poly.o(i.__kernel_poly) for __kernel_poly
    atan.o(i.__hardfp_atan) refers to atan.o(.constdata) for .constdata
    atan.o(i.__softfp_atan) refers (Special) to iusefp.o(.text) for __I$use$fp
    atan.o(i.__softfp_atan) refers to atan.o(i.__hardfp_atan) for __hardfp_atan
    atan.o(i.atan) refers (Special) to iusefp.o(.text) for __I$use$fp
    atan.o(i.atan) refers to atan.o(i.__hardfp_atan) for __hardfp_atan
    atan.o(.constdata) refers (Special) to iusefp.o(.text) for __I$use$fp
    atan_x.o(i.____hardfp_atan$lsc) refers (Special) to iusefp.o(.text) for __I$use$fp
    atan_x.o(i.____hardfp_atan$lsc) refers to dunder.o(i.__mathlib_dbl_infnan) for __mathlib_dbl_infnan
    atan_x.o(i.____hardfp_atan$lsc) refers to fabs.o(i.fabs) for fabs
    atan_x.o(i.____hardfp_atan$lsc) refers to dadd.o(.text) for __aeabi_dadd
    atan_x.o(i.____hardfp_atan$lsc) refers to dmul.o(.text) for __aeabi_dmul
    atan_x.o(i.____hardfp_atan$lsc) refers to ddiv.o(.text) for __aeabi_ddiv
    atan_x.o(i.____hardfp_atan$lsc) refers to poly.o(i.__kernel_poly) for __kernel_poly
    atan_x.o(i.____hardfp_atan$lsc) refers to atan_x.o(.constdata) for .constdata
    atan_x.o(i.____softfp_atan$lsc) refers (Special) to iusefp.o(.text) for __I$use$fp
    atan_x.o(i.____softfp_atan$lsc) refers to atan_x.o(i.____hardfp_atan$lsc) for ____hardfp_atan$lsc
    atan_x.o(i.__atan$lsc) refers (Special) to iusefp.o(.text) for __I$use$fp
    atan_x.o(i.__atan$lsc) refers to atan_x.o(i.____hardfp_atan$lsc) for ____hardfp_atan$lsc
    atan_x.o(.constdata) refers (Special) to iusefp.o(.text) for __I$use$fp
    cos_i.o(i.__kernel_cos) refers (Special) to iusefp.o(.text) for __I$use$fp
    cos_i.o(i.__kernel_cos) refers to dfixi.o(.text) for __aeabi_d2iz
    cos_i.o(i.__kernel_cos) refers to dmul.o(.text) for __aeabi_dmul
    cos_i.o(i.__kernel_cos) refers to poly.o(i.__kernel_poly) for __kernel_poly
    cos_i.o(i.__kernel_cos) refers to dadd.o(.text) for __aeabi_dsub
    cos_i.o(i.__kernel_cos) refers to cos_i.o(.constdata) for .constdata
    cos_i.o(.constdata) refers (Special) to iusefp.o(.text) for __I$use$fp
    dunder.o(i.__mathlib_dbl_divzero) refers to ddiv.o(.text) for __aeabi_ddiv
    dunder.o(i.__mathlib_dbl_infnan) refers to dadd.o(.text) for __aeabi_dadd
    dunder.o(i.__mathlib_dbl_infnan2) refers to dadd.o(.text) for __aeabi_dadd
    dunder.o(i.__mathlib_dbl_invalid) refers to ddiv.o(.text) for __aeabi_ddiv
    dunder.o(i.__mathlib_dbl_overflow) refers to dmul.o(.text) for __aeabi_dmul
    dunder.o(i.__mathlib_dbl_posinfnan) refers to dmul.o(.text) for __aeabi_dmul
    dunder.o(i.__mathlib_dbl_underflow) refers to dmul.o(.text) for __aeabi_dmul
    fpclassify.o(i.__ARM_fpclassify) refers (Special) to iusefp.o(.text) for __I$use$fp
    fpclassifyf.o(i.__ARM_fpclassifyf) refers (Special) to iusefp.o(.text) for __I$use$fp
    poly.o(i.__kernel_poly) refers (Special) to iusefp.o(.text) for __I$use$fp
    poly.o(i.__kernel_poly) refers to dmul.o(.text) for __aeabi_dmul
    poly.o(i.__kernel_poly) refers to dadd.o(.text) for __aeabi_dadd
    qnan.o(.constdata) refers (Special) to iusefp.o(.text) for __I$use$fp
    rred.o(i.__ieee754_rem_pio2) refers (Special) to iusefp.o(.text) for __I$use$fp
    rred.o(i.__ieee754_rem_pio2) refers to dadd.o(.text) for __aeabi_dsub
    rred.o(i.__ieee754_rem_pio2) refers to fabs.o(i.fabs) for fabs
    rred.o(i.__ieee754_rem_pio2) refers to dmul.o(.text) for __aeabi_dmul
    rred.o(i.__ieee754_rem_pio2) refers to dfixi.o(.text) for __aeabi_d2iz
    rred.o(i.__ieee754_rem_pio2) refers to dflti.o(.text) for __aeabi_i2d
    rred.o(i.__ieee754_rem_pio2) refers to dfltui.o(.text) for __aeabi_ui2d
    rred.o(i.__ieee754_rem_pio2) refers to rred.o(.constdata) for .constdata
    rred.o(i.__use_accurate_range_reduction) refers (Special) to iusefp.o(.text) for __I$use$fp
    rred.o(.constdata) refers (Special) to iusefp.o(.text) for __I$use$fp
    sin_i.o(i.__kernel_sin) refers (Special) to iusefp.o(.text) for __I$use$fp
    sin_i.o(i.__kernel_sin) refers to fpclassify.o(i.__ARM_fpclassify) for __ARM_fpclassify
    sin_i.o(i.__kernel_sin) refers to dunder.o(i.__mathlib_dbl_underflow) for __mathlib_dbl_underflow
    sin_i.o(i.__kernel_sin) refers to dmul.o(.text) for __aeabi_dmul
    sin_i.o(i.__kernel_sin) refers to poly.o(i.__kernel_poly) for __kernel_poly
    sin_i.o(i.__kernel_sin) refers to dadd.o(.text) for __aeabi_dsub
    sin_i.o(i.__kernel_sin) refers to sin_i.o(.constdata) for .constdata
    sin_i.o(.constdata) refers (Special) to iusefp.o(.text) for __I$use$fp
    sin_i_x.o(i.____kernel_sin$lsc) refers (Special) to iusefp.o(.text) for __I$use$fp
    sin_i_x.o(i.____kernel_sin$lsc) refers to dmul.o(.text) for __aeabi_dmul
    sin_i_x.o(i.____kernel_sin$lsc) refers to poly.o(i.__kernel_poly) for __kernel_poly
    sin_i_x.o(i.____kernel_sin$lsc) refers to dadd.o(.text) for __aeabi_dsub
    sin_i_x.o(i.____kernel_sin$lsc) refers to sin_i_x.o(.constdata) for .constdata
    sin_i_x.o(.constdata) refers (Special) to iusefp.o(.text) for __I$use$fp
    sqrtf.o(i.__hardfp_sqrtf) refers (Special) to iusefp.o(.text) for __I$use$fp
    sqrtf.o(i.__hardfp_sqrtf) refers to errno.o(i.__set_errno) for __set_errno
    sqrtf.o(i.__softfp_sqrtf) refers (Special) to iusefp.o(.text) for __I$use$fp
    sqrtf.o(i.__softfp_sqrtf) refers to errno.o(i.__set_errno) for __set_errno
    sqrtf.o(i.sqrtf) refers (Special) to iusefp.o(.text) for __I$use$fp
    sqrtf.o(i.sqrtf) refers to errno.o(i.__set_errno) for __set_errno
    sqrtf_x.o(i.____hardfp_sqrtf$lsc) refers (Special) to iusefp.o(.text) for __I$use$fp
    sqrtf_x.o(i.____hardfp_sqrtf$lsc) refers to errno.o(i.__set_errno) for __set_errno
    sqrtf_x.o(i.____softfp_sqrtf$lsc) refers (Special) to iusefp.o(.text) for __I$use$fp
    sqrtf_x.o(i.____softfp_sqrtf$lsc) refers to errno.o(i.__set_errno) for __set_errno
    sqrtf_x.o(i.__sqrtf$lsc) refers (Special) to iusefp.o(.text) for __I$use$fp
    sqrtf_x.o(i.__sqrtf$lsc) refers to errno.o(i.__set_errno) for __set_errno
    entry2.o(.ARM.Collect$$$$00000001) refers to entry2.o(.ARM.Collect$$$$00002712) for __lit__00000000
    entry2.o(.ARM.Collect$$$$00002712) refers to startup_stm32f407xx.o(STACK) for __initial_sp
    entry2.o(__vectab_stack_and_reset_area) refers to startup_stm32f407xx.o(STACK) for __initial_sp
    entry2.o(__vectab_stack_and_reset_area) refers to entry.o(.ARM.Collect$$$$00000000) for __main
    entry5.o(.ARM.Collect$$$$00000004) refers to init.o(.text) for __scatterload
    entry9a.o(.ARM.Collect$$$$0000000B) refers to main.o(.text) for main
    entry9b.o(.ARM.Collect$$$$0000000C) refers to main.o(.text) for main
    localtime_w.o(.text) refers to localtime_i.o(.text) for _localtime
    localtime_w.o(.text) refers to localtime_w.o(.bss) for .bss
    localtime_i.o(.text) refers to localtime_i.o(.constdata) for .constdata
    errno.o(i.__aeabi_errno_addr) refers to errno.o(.data) for .data
    errno.o(i.__read_errno) refers to errno.o(.data) for .data
    errno.o(i.__set_errno) refers to errno.o(.data) for .data
    strtol.o(.text) refers to ctype_o.o(.text) for __rt_ctype_table
    strtol.o(.text) refers to _strtoul.o(.text) for _strtoul
    strtol.o(.text) refers to errno.o(i.__aeabi_errno_addr) for __aeabi_errno_addr
    depilogue.o(.text) refers to llshl.o(.text) for __aeabi_llsl
    depilogue.o(.text) refers to llushr.o(.text) for __aeabi_llsr
    dsqrt.o(.text) refers to llushr.o(.text) for __aeabi_llsr
    dsqrt.o(.text) refers to depilogue.o(.text) for _double_round
    dfixul.o(.text) refers to llushr.o(.text) for __aeabi_llsr
    dfixul.o(.text) refers to llshl.o(.text) for __aeabi_llsl
    init.o(.text) refers to entry5.o(.ARM.Collect$$$$00000004) for __main_after_scatterload
    ctype_o.o(.text) refers to ctype_o.o(.constdata) for .constdata
    ctype_o.o(.constdata) refers to ctype_o.o(.constdata) for __ctype_table
    isalnum_o.o(.text) refers to ctype_o.o(.text) for __rt_ctype_table
    isalpha_o.o(.text) refers to ctype_o.o(.text) for __rt_ctype_table
    isblank_o.o(.text) refers to ctype_o.o(.constdata) for __ctype_table
    iscntrl_o.o(.text) refers to ctype_o.o(.text) for __rt_ctype_table
    isdigit_o.o(.text) refers to ctype_o.o(.text) for __rt_ctype_table
    isgraph_o.o(.text) refers to ctype_o.o(.text) for __rt_ctype_table
    islower_o.o(.text) refers to ctype_o.o(.text) for __rt_ctype_table
    isprint_o.o(.text) refers to ctype_o.o(.text) for __rt_ctype_table
    ispunct_o.o(.text) refers to ctype_o.o(.text) for __rt_ctype_table
    isspace_o.o(.text) refers to ctype_o.o(.text) for __rt_ctype_table
    isupper_o.o(.text) refers to ctype_o.o(.text) for __rt_ctype_table
    isxdigit_o.o(.text) refers to ctype_o.o(.text) for __rt_ctype_table
    _strtoul.o(.text) refers to _chval.o(.text) for _chval
    _strtoul.o(.text) refers to errno.o(i.__aeabi_errno_addr) for __aeabi_errno_addr
    dfltui.o(.text) refers to depilogue.o(.text) for _double_epilogue


==============================================================================

Removing Unused input sections from the image.

    Removing application.o(.rev16_text), (4 bytes).
    Removing application.o(.revsh_text), (4 bytes).
    Removing application.o(.rrx_text), (6 bytes).
    Removing hal_uart.o(.rev16_text), (4 bytes).
    Removing hal_uart.o(.revsh_text), (4 bytes).
    Removing hal_uart.o(.rrx_text), (6 bytes).
    Removing main.o(.rev16_text), (4 bytes).
    Removing main.o(.revsh_text), (4 bytes).
    Removing main.o(.rrx_text), (6 bytes).
    Removing flash_if.o(.rev16_text), (4 bytes).
    Removing flash_if.o(.revsh_text), (4 bytes).
    Removing flash_if.o(.rrx_text), (6 bytes).
    Removing freertos.o(.text), (24 bytes).
    Removing freertos.o(.bss), (596 bytes).
    Removing led.o(.rev16_text), (4 bytes).
    Removing led.o(.revsh_text), (4 bytes).
    Removing led.o(.rrx_text), (6 bytes).
    Removing pps.o(.rev16_text), (4 bytes).
    Removing pps.o(.revsh_text), (4 bytes).
    Removing pps.o(.rrx_text), (6 bytes).
    Removing stm32f4xx_hal_msp.o(.rev16_text), (4 bytes).
    Removing stm32f4xx_hal_msp.o(.revsh_text), (4 bytes).
    Removing stm32f4xx_hal_msp.o(.rrx_text), (6 bytes).
    Removing stm32f4xx_hal_timebase_tim.o(.rev16_text), (4 bytes).
    Removing stm32f4xx_hal_timebase_tim.o(.revsh_text), (4 bytes).
    Removing stm32f4xx_hal_timebase_tim.o(.rrx_text), (6 bytes).
    Removing stm32f4xx_it.o(.rev16_text), (4 bytes).
    Removing stm32f4xx_it.o(.revsh_text), (4 bytes).
    Removing stm32f4xx_it.o(.rrx_text), (6 bytes).
    Removing system_stm32f4xx.o(.rev16_text), (4 bytes).
    Removing system_stm32f4xx.o(.revsh_text), (4 bytes).
    Removing system_stm32f4xx.o(.rrx_text), (6 bytes).
    Removing uart.o(.rev16_text), (4 bytes).
    Removing uart.o(.revsh_text), (4 bytes).
    Removing uart.o(.rrx_text), (6 bytes).
    Removing usbh_cdc.o(.rev16_text), (4 bytes).
    Removing usbh_cdc.o(.revsh_text), (4 bytes).
    Removing usbh_cdc.o(.rrx_text), (6 bytes).
    Removing usbh_core.o(.rev16_text), (4 bytes).
    Removing usbh_core.o(.revsh_text), (4 bytes).
    Removing usbh_core.o(.rrx_text), (6 bytes).
    Removing usbh_ctlreq.o(.rev16_text), (4 bytes).
    Removing usbh_ctlreq.o(.revsh_text), (4 bytes).
    Removing usbh_ctlreq.o(.rrx_text), (6 bytes).
    Removing usbh_ioreq.o(.rev16_text), (4 bytes).
    Removing usbh_ioreq.o(.revsh_text), (4 bytes).
    Removing usbh_ioreq.o(.rrx_text), (6 bytes).
    Removing usbh_pipes.o(.rev16_text), (4 bytes).
    Removing usbh_pipes.o(.revsh_text), (4 bytes).
    Removing usbh_pipes.o(.rrx_text), (6 bytes).
    Removing apply_high_power.o(.rev16_text), (4 bytes).
    Removing apply_high_power.o(.revsh_text), (4 bytes).
    Removing apply_high_power.o(.rrx_text), (6 bytes).
    Removing upgrade_platform_opt_stm32.o(.rev16_text), (4 bytes).
    Removing upgrade_platform_opt_stm32.o(.revsh_text), (4 bytes).
    Removing upgrade_platform_opt_stm32.o(.rrx_text), (6 bytes).
    Removing stm32f4xx_hal.o(.rev16_text), (4 bytes).
    Removing stm32f4xx_hal.o(.revsh_text), (4 bytes).
    Removing stm32f4xx_hal.o(.rrx_text), (6 bytes).
    Removing stm32f4xx_hal_cortex.o(.rev16_text), (4 bytes).
    Removing stm32f4xx_hal_cortex.o(.revsh_text), (4 bytes).
    Removing stm32f4xx_hal_cortex.o(.rrx_text), (6 bytes).
    Removing stm32f4xx_hal_dma.o(.rev16_text), (4 bytes).
    Removing stm32f4xx_hal_dma.o(.revsh_text), (4 bytes).
    Removing stm32f4xx_hal_dma.o(.rrx_text), (6 bytes).
    Removing stm32f4xx_hal_dma_ex.o(.rev16_text), (4 bytes).
    Removing stm32f4xx_hal_dma_ex.o(.revsh_text), (4 bytes).
    Removing stm32f4xx_hal_dma_ex.o(.rrx_text), (6 bytes).
    Removing stm32f4xx_hal_dma_ex.o(.text), (4232 bytes).
    Removing stm32f4xx_hal_exti.o(.rev16_text), (4 bytes).
    Removing stm32f4xx_hal_exti.o(.revsh_text), (4 bytes).
    Removing stm32f4xx_hal_exti.o(.rrx_text), (6 bytes).
    Removing stm32f4xx_hal_exti.o(.text), (676 bytes).
    Removing stm32f4xx_hal_flash.o(.rev16_text), (4 bytes).
    Removing stm32f4xx_hal_flash.o(.revsh_text), (4 bytes).
    Removing stm32f4xx_hal_flash.o(.rrx_text), (6 bytes).
    Removing stm32f4xx_hal_flash_ex.o(.rev16_text), (4 bytes).
    Removing stm32f4xx_hal_flash_ex.o(.revsh_text), (4 bytes).
    Removing stm32f4xx_hal_flash_ex.o(.rrx_text), (6 bytes).
    Removing stm32f4xx_hal_flash_ramfunc.o(.rev16_text), (4 bytes).
    Removing stm32f4xx_hal_flash_ramfunc.o(.revsh_text), (4 bytes).
    Removing stm32f4xx_hal_flash_ramfunc.o(.rrx_text), (6 bytes).
    Removing stm32f4xx_hal_gpio.o(.rev16_text), (4 bytes).
    Removing stm32f4xx_hal_gpio.o(.revsh_text), (4 bytes).
    Removing stm32f4xx_hal_gpio.o(.rrx_text), (6 bytes).
    Removing stm32f4xx_hal_hcd.o(.rev16_text), (4 bytes).
    Removing stm32f4xx_hal_hcd.o(.revsh_text), (4 bytes).
    Removing stm32f4xx_hal_hcd.o(.rrx_text), (6 bytes).
    Removing stm32f4xx_hal_pwr.o(.rev16_text), (4 bytes).
    Removing stm32f4xx_hal_pwr.o(.revsh_text), (4 bytes).
    Removing stm32f4xx_hal_pwr.o(.rrx_text), (6 bytes).
    Removing stm32f4xx_hal_pwr.o(.text), (496 bytes).
    Removing stm32f4xx_hal_pwr_ex.o(.rev16_text), (4 bytes).
    Removing stm32f4xx_hal_pwr_ex.o(.revsh_text), (4 bytes).
    Removing stm32f4xx_hal_pwr_ex.o(.rrx_text), (6 bytes).
    Removing stm32f4xx_hal_pwr_ex.o(.text), (256 bytes).
    Removing stm32f4xx_hal_rcc.o(.rev16_text), (4 bytes).
    Removing stm32f4xx_hal_rcc.o(.revsh_text), (4 bytes).
    Removing stm32f4xx_hal_rcc.o(.rrx_text), (6 bytes).
    Removing stm32f4xx_hal_rcc_ex.o(.rev16_text), (4 bytes).
    Removing stm32f4xx_hal_rcc_ex.o(.revsh_text), (4 bytes).
    Removing stm32f4xx_hal_rcc_ex.o(.rrx_text), (6 bytes).
    Removing stm32f4xx_hal_rcc_ex.o(.text), (1144 bytes).
    Removing stm32f4xx_hal_tim.o(.rev16_text), (4 bytes).
    Removing stm32f4xx_hal_tim.o(.revsh_text), (4 bytes).
    Removing stm32f4xx_hal_tim.o(.rrx_text), (6 bytes).
    Removing stm32f4xx_hal_tim_ex.o(.rev16_text), (4 bytes).
    Removing stm32f4xx_hal_tim_ex.o(.revsh_text), (4 bytes).
    Removing stm32f4xx_hal_tim_ex.o(.rrx_text), (6 bytes).
    Removing stm32f4xx_hal_uart.o(.rev16_text), (4 bytes).
    Removing stm32f4xx_hal_uart.o(.revsh_text), (4 bytes).
    Removing stm32f4xx_hal_uart.o(.rrx_text), (6 bytes).
    Removing stm32f4xx_ll_usb.o(.rev16_text), (4 bytes).
    Removing stm32f4xx_ll_usb.o(.revsh_text), (4 bytes).
    Removing stm32f4xx_ll_usb.o(.rrx_text), (6 bytes).
    Removing cmsis_os.o(.rev16_text), (4 bytes).
    Removing cmsis_os.o(.revsh_text), (4 bytes).
    Removing cmsis_os.o(.rrx_text), (6 bytes).
    Removing event_groups.o(.text), (1124 bytes).
    Removing usb_host.o(.rev16_text), (4 bytes).
    Removing usb_host.o(.revsh_text), (4 bytes).
    Removing usb_host.o(.rrx_text), (6 bytes).
    Removing usb_host.o(.text), (116 bytes).
    Removing usb_host.o(.bss), (1536 bytes).
    Removing usb_host.o(.data), (1 bytes).
    Removing usbh_conf.o(.rev16_text), (4 bytes).
    Removing usbh_conf.o(.revsh_text), (4 bytes).
    Removing usbh_conf.o(.rrx_text), (6 bytes).
    Removing util_buffer.o(.text), (316 bytes).
    Removing test_flight_control.o(.text), (16700 bytes).
    Removing test_flight_control.o(.constdata), (1070 bytes).
    Removing test_flight_control.o(.conststring), (7190 bytes).
    Removing test_flight_control.o(.data), (4 bytes).
    Removing test_playload_ppk.o(.rev16_text), (4 bytes).
    Removing test_playload_ppk.o(.revsh_text), (4 bytes).
    Removing test_playload_ppk.o(.rrx_text), (6 bytes).
    Removing cjson.o(.text), (7002 bytes).
    Removing cjson.o(.constdata), (7 bytes).
    Removing cjson.o(.data), (12 bytes).
    Removing gdu_flight_controller.o(.text), (7948 bytes).
    Removing gdu_flight_controller.o(.bss), (336 bytes).
    Removing gdu_flight_controller.o(.constdata), (1128 bytes).
    Removing gdu_flight_controller.o(.conststring), (148 bytes).
    Removing gdu_flight_controller.o(.data), (96 bytes).
    Removing cdcmple.o(.text), (48 bytes).
    Removing d2f.o(.text), (56 bytes).
    Removing fepilogue.o(.text), (110 bytes).
    Removing dneg.o(.text), (6 bytes).
    Removing dscalb.o(.text), (46 bytes).
    Removing dsqrt.o(.text), (162 bytes).
    Removing dfltui.o(.text), (26 bytes).

151 unused section(s) (total 53172 bytes) removed from the image.

==============================================================================

Image Symbol Table

    Local Symbols

    Symbol Name                              Value     Ov Type        Size  Object(Section)

    ../clib/../cmprslib/zerorunl2.c          0x00000000   Number         0  __dczerorl2.o ABSOLUTE
    ../clib/microlib/ctype/ctype.c           0x00000000   Number         0  isxdigit_o.o ABSOLUTE
    ../clib/microlib/ctype/ctype.c           0x00000000   Number         0  isprint_o.o ABSOLUTE
    ../clib/microlib/ctype/ctype.c           0x00000000   Number         0  isalpha_o.o ABSOLUTE
    ../clib/microlib/ctype/ctype.c           0x00000000   Number         0  ctype_o.o ABSOLUTE
    ../clib/microlib/ctype/ctype.c           0x00000000   Number         0  ispunct_o.o ABSOLUTE
    ../clib/microlib/ctype/ctype.c           0x00000000   Number         0  isblank_o.o ABSOLUTE
    ../clib/microlib/ctype/ctype.c           0x00000000   Number         0  iscntrl_o.o ABSOLUTE
    ../clib/microlib/ctype/ctype.c           0x00000000   Number         0  isupper_o.o ABSOLUTE
    ../clib/microlib/ctype/ctype.c           0x00000000   Number         0  isdigit_o.o ABSOLUTE
    ../clib/microlib/ctype/ctype.c           0x00000000   Number         0  isspace_o.o ABSOLUTE
    ../clib/microlib/ctype/ctype.c           0x00000000   Number         0  isalnum_o.o ABSOLUTE
    ../clib/microlib/ctype/ctype.c           0x00000000   Number         0  isgraph_o.o ABSOLUTE
    ../clib/microlib/ctype/ctype.c           0x00000000   Number         0  islower_o.o ABSOLUTE
    ../clib/microlib/ctype/tolower.c         0x00000000   Number         0  tolower.o ABSOLUTE
    ../clib/microlib/division.c              0x00000000   Number         0  uidiv.o ABSOLUTE
    ../clib/microlib/division.c              0x00000000   Number         0  uldiv.o ABSOLUTE
    ../clib/microlib/errno.c                 0x00000000   Number         0  errno.o ABSOLUTE
    ../clib/microlib/init/entry.s            0x00000000   Number         0  entry11b.o ABSOLUTE
    ../clib/microlib/init/entry.s            0x00000000   Number         0  entry9a.o ABSOLUTE
    ../clib/microlib/init/entry.s            0x00000000   Number         0  entry9b.o ABSOLUTE
    ../clib/microlib/init/entry.s            0x00000000   Number         0  entry10a.o ABSOLUTE
    ../clib/microlib/init/entry.s            0x00000000   Number         0  entry10b.o ABSOLUTE
    ../clib/microlib/init/entry.s            0x00000000   Number         0  entry11a.o ABSOLUTE
    ../clib/microlib/init/entry.s            0x00000000   Number         0  entry7a.o ABSOLUTE
    ../clib/microlib/init/entry.s            0x00000000   Number         0  entry.o ABSOLUTE
    ../clib/microlib/init/entry.s            0x00000000   Number         0  entry8a.o ABSOLUTE
    ../clib/microlib/init/entry.s            0x00000000   Number         0  entry7b.o ABSOLUTE
    ../clib/microlib/init/entry.s            0x00000000   Number         0  entry5.o ABSOLUTE
    ../clib/microlib/init/entry.s            0x00000000   Number         0  entry2.o ABSOLUTE
    ../clib/microlib/init/entry.s            0x00000000   Number         0  entry8b.o ABSOLUTE
    ../clib/microlib/longlong.c              0x00000000   Number         0  llsshr.o ABSOLUTE
    ../clib/microlib/longlong.c              0x00000000   Number         0  llshl.o ABSOLUTE
    ../clib/microlib/longlong.c              0x00000000   Number         0  llushr.o ABSOLUTE
    ../clib/microlib/malloc/malloc.c         0x00000000   Number         0  mallocr.o ABSOLUTE
    ../clib/microlib/malloc/malloc.c         0x00000000   Number         0  mallocra.o ABSOLUTE
    ../clib/microlib/malloc/malloc.c         0x00000000   Number         0  malloca.o ABSOLUTE
    ../clib/microlib/malloc/malloc.c         0x00000000   Number         0  malloc.o ABSOLUTE
    ../clib/microlib/malloc/mvars.c          0x00000000   Number         0  mvars.o ABSOLUTE
    ../clib/microlib/printf/printf.c         0x00000000   Number         0  printfb.o ABSOLUTE
    ../clib/microlib/printf/printf.c         0x00000000   Number         0  printf0.o ABSOLUTE
    ../clib/microlib/printf/printf.c         0x00000000   Number         0  printf1.o ABSOLUTE
    ../clib/microlib/printf/printf.c         0x00000000   Number         0  printf2.o ABSOLUTE
    ../clib/microlib/printf/printf.c         0x00000000   Number         0  printf5.o ABSOLUTE
    ../clib/microlib/printf/printf.c         0x00000000   Number         0  printf3.o ABSOLUTE
    ../clib/microlib/printf/printf.c         0x00000000   Number         0  printf4.o ABSOLUTE
    ../clib/microlib/printf/printf.c         0x00000000   Number         0  printf6.o ABSOLUTE
    ../clib/microlib/printf/printf.c         0x00000000   Number         0  printfa.o ABSOLUTE
    ../clib/microlib/printf/printf.c         0x00000000   Number         0  printf8.o ABSOLUTE
    ../clib/microlib/printf/printf.c         0x00000000   Number         0  printf7.o ABSOLUTE
    ../clib/microlib/printf/stubs.s          0x00000000   Number         0  stubs.o ABSOLUTE
    ../clib/microlib/stdio/streams.c         0x00000000   Number         0  stdout.o ABSOLUTE
    ../clib/microlib/string/memcmp.c         0x00000000   Number         0  memcmp.o ABSOLUTE
    ../clib/microlib/string/memcpy.c         0x00000000   Number         0  memcpya.o ABSOLUTE
    ../clib/microlib/string/memcpy.c         0x00000000   Number         0  memcpyb.o ABSOLUTE
    ../clib/microlib/string/memset.c         0x00000000   Number         0  memseta.o ABSOLUTE
    ../clib/microlib/string/strchr.c         0x00000000   Number         0  strchr.o ABSOLUTE
    ../clib/microlib/string/strcmp.c         0x00000000   Number         0  strcmp.o ABSOLUTE
    ../clib/microlib/string/strcpy.c         0x00000000   Number         0  strcpy.o ABSOLUTE
    ../clib/microlib/string/strlen.c         0x00000000   Number         0  strlen.o ABSOLUTE
    ../clib/microlib/string/strncmp.c        0x00000000   Number         0  strncmp.o ABSOLUTE
    ../clib/microlib/string/strncpy.c        0x00000000   Number         0  strncpy.o ABSOLUTE
    ../clib/microlib/string/strstr.c         0x00000000   Number         0  strstr.o ABSOLUTE
    ../clib/microlib/stubs.s                 0x00000000   Number         0  iusefp.o ABSOLUTE
    ../clib/microlib/time/localtime.c        0x00000000   Number         0  localtime_i.o ABSOLUTE
    ../clib/microlib/time/localtime.c        0x00000000   Number         0  localtime_w.o ABSOLUTE
    ../clib/microlib/time/localtime.c        0x00000000   Number         0  localtime.o ABSOLUTE
    ../clib/microlib/time/mktime.c           0x00000000   Number         0  mktime.o ABSOLUTE
    ../clib/scanf.c                          0x00000000   Number         0  _strtoul.o ABSOLUTE
    ../clib/scanf.c                          0x00000000   Number         0  _chval.o ABSOLUTE
    ../clib/scanf.c                          0x00000000   Number         0  atol.o ABSOLUTE
    ../clib/scanf.c                          0x00000000   Number         0  atoi.o ABSOLUTE
    ../clib/scanf.c                          0x00000000   Number         0  strtol.o ABSOLUTE
    ../fplib/microlib/d2f.c                  0x00000000   Number         0  d2f.o ABSOLUTE
    ../fplib/microlib/f2d.c                  0x00000000   Number         0  f2d.o ABSOLUTE
    ../fplib/microlib/fpadd.c                0x00000000   Number         0  dadd.o ABSOLUTE
    ../fplib/microlib/fpdiv.c                0x00000000   Number         0  ddiv.o ABSOLUTE
    ../fplib/microlib/fpepilogue.c           0x00000000   Number         0  depilogue.o ABSOLUTE
    ../fplib/microlib/fpepilogue.c           0x00000000   Number         0  fepilogue.o ABSOLUTE
    ../fplib/microlib/fpfix.c                0x00000000   Number         0  dfixul.o ABSOLUTE
    ../fplib/microlib/fpfix.c                0x00000000   Number         0  dfixi.o ABSOLUTE
    ../fplib/microlib/fpflt.c                0x00000000   Number         0  dflti.o ABSOLUTE
    ../fplib/microlib/fpflt.c                0x00000000   Number         0  dfltui.o ABSOLUTE
    ../fplib/microlib/fpmul.c                0x00000000   Number         0  dmul.o ABSOLUTE
    ../fplib/microlib/fpneg.c                0x00000000   Number         0  dneg.o ABSOLUTE
    ../fplib/microlib/fpscalb.c              0x00000000   Number         0  dscalb.o ABSOLUTE
    ../fplib/microlib/fpsqrt.c               0x00000000   Number         0  dsqrt.o ABSOLUTE
    ../mathlib/asin.c                        0x00000000   Number         0  asin.o ABSOLUTE
    ../mathlib/asin.c                        0x00000000   Number         0  asin_x.o ABSOLUTE
    ../mathlib/asinf.c                       0x00000000   Number         0  asinf.o ABSOLUTE
    ../mathlib/asinf.c                       0x00000000   Number         0  asinf_x.o ABSOLUTE
    ../mathlib/atan.c                        0x00000000   Number         0  atan_x.o ABSOLUTE
    ../mathlib/atan.c                        0x00000000   Number         0  atan.o ABSOLUTE
    ../mathlib/atan2.c                       0x00000000   Number         0  atan2.o ABSOLUTE
    ../mathlib/atan2.c                       0x00000000   Number         0  atan2_x.o ABSOLUTE
    ../mathlib/atan2f.c                      0x00000000   Number         0  atan2f.o ABSOLUTE
    ../mathlib/atan2f.c                      0x00000000   Number         0  atan2f_x.o ABSOLUTE
    ../mathlib/cos.c                         0x00000000   Number         0  cos.o ABSOLUTE
    ../mathlib/cos.c                         0x00000000   Number         0  cos_x.o ABSOLUTE
    ../mathlib/cos_i.c                       0x00000000   Number         0  cos_i.o ABSOLUTE
    ../mathlib/dunder.c                      0x00000000   Number         0  dunder.o ABSOLUTE
    ../mathlib/fabs.c                        0x00000000   Number         0  fabs.o ABSOLUTE
    ../mathlib/floor.c                       0x00000000   Number         0  floor.o ABSOLUTE
    ../mathlib/fpclassify.c                  0x00000000   Number         0  fpclassify.o ABSOLUTE
    ../mathlib/fpclassifyf.c                 0x00000000   Number         0  fpclassifyf.o ABSOLUTE
    ../mathlib/funder.c                      0x00000000   Number         0  funder.o ABSOLUTE
    ../mathlib/poly.c                        0x00000000   Number         0  poly.o ABSOLUTE
    ../mathlib/pow.c                         0x00000000   Number         0  pow_x.o ABSOLUTE
    ../mathlib/pow.c                         0x00000000   Number         0  pow.o ABSOLUTE
    ../mathlib/qnan.c                        0x00000000   Number         0  qnan.o ABSOLUTE
    ../mathlib/rred.c                        0x00000000   Number         0  rred.o ABSOLUTE
    ../mathlib/sin_i.c                       0x00000000   Number         0  sin_i_x.o ABSOLUTE
    ../mathlib/sin_i.c                       0x00000000   Number         0  sin_i.o ABSOLUTE
    ../mathlib/sqrt.c                        0x00000000   Number         0  sqrt_x.o ABSOLUTE
    ../mathlib/sqrt.c                        0x00000000   Number         0  sqrt.o ABSOLUTE
    ../mathlib/sqrtf.c                       0x00000000   Number         0  sqrtf_x.o ABSOLUTE
    ../mathlib/sqrtf.c                       0x00000000   Number         0  sqrtf.o ABSOLUTE
    ..\..\..\..\..\..\..\psdk_lib\cJSON\cJSON.c 0x00000000   Number         0  cjson.o ABSOLUTE
    ..\..\..\..\..\..\..\psdk_lib\lib_src\baseMsgHandle.c 0x00000000   Number         0  basemsghandle.o ABSOLUTE
    ..\..\..\..\..\..\..\psdk_lib\lib_src\gdu_aircraft_info.c 0x00000000   Number         0  gdu_aircraft_info.o ABSOLUTE
    ..\..\..\..\..\..\..\psdk_lib\lib_src\gdu_cache.c 0x00000000   Number         0  gdu_cache.o ABSOLUTE
    ..\..\..\..\..\..\..\psdk_lib\lib_src\gdu_core.c 0x00000000   Number         0  gdu_core.o ABSOLUTE
    ..\..\..\..\..\..\..\psdk_lib\lib_src\gdu_flight_controller.c 0x00000000   Number         0  gdu_flight_controller.o ABSOLUTE
    ..\..\..\..\..\..\..\psdk_lib\lib_src\gdu_gimbal.c 0x00000000   Number         0  gdu_gimbal.o ABSOLUTE
    ..\..\..\..\..\..\..\psdk_lib\lib_src\gdu_glink.c 0x00000000   Number         0  gdu_glink.o ABSOLUTE
    ..\..\..\..\..\..\..\psdk_lib\lib_src\gdu_logger.c 0x00000000   Number         0  gdu_logger.o ABSOLUTE
    ..\..\..\..\..\..\..\psdk_lib\lib_src\gdu_payload_camera.c 0x00000000   Number         0  gdu_payload_camera.o ABSOLUTE
    ..\..\..\..\..\..\..\psdk_lib\lib_src\gdu_platform.c 0x00000000   Number         0  gdu_platform.o ABSOLUTE
    ..\..\..\..\..\..\..\psdk_lib\lib_src\gdu_positioning.c 0x00000000   Number         0  gdu_positioning.o ABSOLUTE
    ..\..\..\..\..\..\..\psdk_lib\lib_src\gdu_power_management.c 0x00000000   Number         0  gdu_power_management.o ABSOLUTE
    ..\..\..\..\..\..\..\psdk_lib\lib_src\gdu_ppk.c 0x00000000   Number         0  gdu_ppk.o ABSOLUTE
    ..\..\..\..\..\..\..\psdk_lib\lib_src\gdu_serial.c 0x00000000   Number         0  gdu_serial.o ABSOLUTE
    ..\..\..\..\..\..\..\psdk_lib\lib_src\gdu_subscribeInfo.c 0x00000000   Number         0  gdu_subscribeinfo.o ABSOLUTE
    ..\..\..\..\..\..\..\psdk_lib\lib_src\gdu_upgrade.c 0x00000000   Number         0  gdu_upgrade.o ABSOLUTE
    ..\..\..\..\..\..\..\psdk_lib\lib_src\gdu_widget.c 0x00000000   Number         0  gdu_widget.o ABSOLUTE
    ..\..\..\..\..\..\..\psdk_lib\lib_src\general_linked_list.c 0x00000000   Number         0  general_linked_list.o ABSOLUTE
    ..\..\..\..\..\..\..\psdk_lib\lib_src\npc.c 0x00000000   Number         0  npc.o ABSOLUTE
    ..\..\..\..\..\..\..\psdk_lib\lib_src\time_sync.c 0x00000000   Number         0  time_sync.o ABSOLUTE
    ..\..\..\..\..\module_sample\camera_emu\test_payload_cam_emu_base.c 0x00000000   Number         0  test_payload_cam_emu_base.o ABSOLUTE
    ..\..\..\..\..\module_sample\fc_subscription\test_fc_subscription.c 0x00000000   Number         0  test_fc_subscription.o ABSOLUTE
    ..\..\..\..\..\module_sample\flight_control\test_flight_control.c 0x00000000   Number         0  test_flight_control.o ABSOLUTE
    ..\..\..\..\..\module_sample\gimbal_emu\test_payload_gimbal_emu.c 0x00000000   Number         0  test_payload_gimbal_emu.o ABSOLUTE
    ..\..\..\..\..\module_sample\positioning\test_positioning.c 0x00000000   Number         0  test_positioning.o ABSOLUTE
    ..\..\..\..\..\module_sample\power_management\test_power_management.c 0x00000000   Number         0  test_power_management.o ABSOLUTE
    ..\..\..\..\..\module_sample\ppk\test_playload_ppk.c 0x00000000   Number         0  test_playload_ppk.o ABSOLUTE
    ..\..\..\..\..\module_sample\time_sync\test_time_sync.c 0x00000000   Number         0  test_time_sync.o ABSOLUTE
    ..\..\..\..\..\module_sample\upgrade\test_upgrade.c 0x00000000   Number         0  test_upgrade.o ABSOLUTE
    ..\..\..\..\..\module_sample\upgrade\test_upgrade_common_file_transfer.c 0x00000000   Number         0  test_upgrade_common_file_transfer.o ABSOLUTE
    ..\..\..\..\..\module_sample\upgrade\test_upgrade_platform_opt.c 0x00000000   Number         0  test_upgrade_platform_opt.o ABSOLUTE
    ..\..\..\..\..\module_sample\utils\util_buffer.c 0x00000000   Number         0  util_buffer.o ABSOLUTE
    ..\..\..\..\..\module_sample\utils\util_file.c 0x00000000   Number         0  util_file.o ABSOLUTE
    ..\..\..\..\..\module_sample\utils\util_md5.c 0x00000000   Number         0  util_md5.o ABSOLUTE
    ..\..\..\..\..\module_sample\utils\util_misc.c 0x00000000   Number         0  util_misc.o ABSOLUTE
    ..\..\..\..\..\module_sample\utils\util_time.c 0x00000000   Number         0  util_time.o ABSOLUTE
    ..\..\..\..\..\module_sample\widget\file_binary_array_list_en.c 0x00000000   Number         0  file_binary_array_list_en.o ABSOLUTE
    ..\..\..\..\..\module_sample\widget\test_widget.c 0x00000000   Number         0  test_widget.o ABSOLUTE
    ..\..\..\..\..\module_sample\widget\test_widget_speaker.c 0x00000000   Number         0  test_widget_speaker.o ABSOLUTE
    ..\..\..\common\osal\osal.c              0x00000000   Number         0  osal.o ABSOLUTE
    ..\..\Drivers\STM32F4xx_HAL_Driver\Src\stm32f4xx_hal.c 0x00000000   Number         0  stm32f4xx_hal.o ABSOLUTE
    ..\..\Drivers\STM32F4xx_HAL_Driver\Src\stm32f4xx_hal_cortex.c 0x00000000   Number         0  stm32f4xx_hal_cortex.o ABSOLUTE
    ..\..\Drivers\STM32F4xx_HAL_Driver\Src\stm32f4xx_hal_dma.c 0x00000000   Number         0  stm32f4xx_hal_dma.o ABSOLUTE
    ..\..\Drivers\STM32F4xx_HAL_Driver\Src\stm32f4xx_hal_dma_ex.c 0x00000000   Number         0  stm32f4xx_hal_dma_ex.o ABSOLUTE
    ..\..\Drivers\STM32F4xx_HAL_Driver\Src\stm32f4xx_hal_exti.c 0x00000000   Number         0  stm32f4xx_hal_exti.o ABSOLUTE
    ..\..\Drivers\STM32F4xx_HAL_Driver\Src\stm32f4xx_hal_flash.c 0x00000000   Number         0  stm32f4xx_hal_flash.o ABSOLUTE
    ..\..\Drivers\STM32F4xx_HAL_Driver\Src\stm32f4xx_hal_flash_ex.c 0x00000000   Number         0  stm32f4xx_hal_flash_ex.o ABSOLUTE
    ..\..\Drivers\STM32F4xx_HAL_Driver\Src\stm32f4xx_hal_flash_ramfunc.c 0x00000000   Number         0  stm32f4xx_hal_flash_ramfunc.o ABSOLUTE
    ..\..\Drivers\STM32F4xx_HAL_Driver\Src\stm32f4xx_hal_gpio.c 0x00000000   Number         0  stm32f4xx_hal_gpio.o ABSOLUTE
    ..\..\Drivers\STM32F4xx_HAL_Driver\Src\stm32f4xx_hal_hcd.c 0x00000000   Number         0  stm32f4xx_hal_hcd.o ABSOLUTE
    ..\..\Drivers\STM32F4xx_HAL_Driver\Src\stm32f4xx_hal_pwr.c 0x00000000   Number         0  stm32f4xx_hal_pwr.o ABSOLUTE
    ..\..\Drivers\STM32F4xx_HAL_Driver\Src\stm32f4xx_hal_pwr_ex.c 0x00000000   Number         0  stm32f4xx_hal_pwr_ex.o ABSOLUTE
    ..\..\Drivers\STM32F4xx_HAL_Driver\Src\stm32f4xx_hal_rcc.c 0x00000000   Number         0  stm32f4xx_hal_rcc.o ABSOLUTE
    ..\..\Drivers\STM32F4xx_HAL_Driver\Src\stm32f4xx_hal_rcc_ex.c 0x00000000   Number         0  stm32f4xx_hal_rcc_ex.o ABSOLUTE
    ..\..\Drivers\STM32F4xx_HAL_Driver\Src\stm32f4xx_hal_tim.c 0x00000000   Number         0  stm32f4xx_hal_tim.o ABSOLUTE
    ..\..\Drivers\STM32F4xx_HAL_Driver\Src\stm32f4xx_hal_tim_ex.c 0x00000000   Number         0  stm32f4xx_hal_tim_ex.o ABSOLUTE
    ..\..\Drivers\STM32F4xx_HAL_Driver\Src\stm32f4xx_hal_uart.c 0x00000000   Number         0  stm32f4xx_hal_uart.o ABSOLUTE
    ..\..\Drivers\STM32F4xx_HAL_Driver\Src\stm32f4xx_ll_usb.c 0x00000000   Number         0  stm32f4xx_ll_usb.o ABSOLUTE
    ..\..\application\application.c          0x00000000   Number         0  application.o ABSOLUTE
    ..\..\application\main.c                 0x00000000   Number         0  main.o ABSOLUTE
    ..\..\drivers\BSP\apply_high_power.c     0x00000000   Number         0  apply_high_power.o ABSOLUTE
    ..\..\drivers\BSP\flash_if.c             0x00000000   Number         0  flash_if.o ABSOLUTE
    ..\..\drivers\BSP\freertos.c             0x00000000   Number         0  freertos.o ABSOLUTE
    ..\..\drivers\BSP\gdu_ringbuffer.c       0x00000000   Number         0  gdu_ringbuffer.o ABSOLUTE
    ..\..\drivers\BSP\led.c                  0x00000000   Number         0  led.o ABSOLUTE
    ..\..\drivers\BSP\pps.c                  0x00000000   Number         0  pps.o ABSOLUTE
    ..\..\drivers\BSP\stm32f4xx_hal_msp.c    0x00000000   Number         0  stm32f4xx_hal_msp.o ABSOLUTE
    ..\..\drivers\BSP\stm32f4xx_hal_timebase_tim.c 0x00000000   Number         0  stm32f4xx_hal_timebase_tim.o ABSOLUTE
    ..\..\drivers\BSP\stm32f4xx_it.c         0x00000000   Number         0  stm32f4xx_it.o ABSOLUTE
    ..\..\drivers\BSP\system_stm32f4xx.c     0x00000000   Number         0  system_stm32f4xx.o ABSOLUTE
    ..\..\drivers\BSP\uart.c                 0x00000000   Number         0  uart.o ABSOLUTE
    ..\..\drivers\BSP\upgrade_platform_opt_stm32.c 0x00000000   Number         0  upgrade_platform_opt_stm32.o ABSOLUTE
    ..\..\drivers\USB_HOST\App\usb_host.c    0x00000000   Number         0  usb_host.o ABSOLUTE
    ..\..\drivers\USB_HOST\Target\usbh_conf.c 0x00000000   Number         0  usbh_conf.o ABSOLUTE
    ..\..\hal\hal_uart.c                     0x00000000   Number         0  hal_uart.o ABSOLUTE
    ..\..\middlewares\ST\STM32_USB_Host_Library\Class\CDC\Src\usbh_cdc.c 0x00000000   Number         0  usbh_cdc.o ABSOLUTE
    ..\..\middlewares\ST\STM32_USB_Host_Library\Core\Src\usbh_core.c 0x00000000   Number         0  usbh_core.o ABSOLUTE
    ..\..\middlewares\ST\STM32_USB_Host_Library\Core\Src\usbh_ctlreq.c 0x00000000   Number         0  usbh_ctlreq.o ABSOLUTE
    ..\..\middlewares\ST\STM32_USB_Host_Library\Core\Src\usbh_ioreq.c 0x00000000   Number         0  usbh_ioreq.o ABSOLUTE
    ..\..\middlewares\ST\STM32_USB_Host_Library\Core\Src\usbh_pipes.c 0x00000000   Number         0  usbh_pipes.o ABSOLUTE
    ..\..\middlewares\Third_Party\FreeRTOS\Source\CMSIS_RTOS\cmsis_os.c 0x00000000   Number         0  cmsis_os.o ABSOLUTE
    ..\..\middlewares\Third_Party\FreeRTOS\Source\croutine.c 0x00000000   Number         0  croutine.o ABSOLUTE
    ..\..\middlewares\Third_Party\FreeRTOS\Source\event_groups.c 0x00000000   Number         0  event_groups.o ABSOLUTE
    ..\..\middlewares\Third_Party\FreeRTOS\Source\list.c 0x00000000   Number         0  list.o ABSOLUTE
    ..\..\middlewares\Third_Party\FreeRTOS\Source\portable\MemMang\heap_4.c 0x00000000   Number         0  heap_4.o ABSOLUTE
    ..\..\middlewares\Third_Party\FreeRTOS\Source\portable\RVDS\ARM_CM4F\port.c 0x00000000   Number         0  port.o ABSOLUTE
    ..\..\middlewares\Third_Party\FreeRTOS\Source\queue.c 0x00000000   Number         0  queue.o ABSOLUTE
    ..\..\middlewares\Third_Party\FreeRTOS\Source\tasks.c 0x00000000   Number         0  tasks.o ABSOLUTE
    ..\..\middlewares\Third_Party\FreeRTOS\Source\timers.c 0x00000000   Number         0  timers.o ABSOLUTE
    ..\\..\\..\\..\\..\\module_sample\\ppk\\test_playload_ppk.c 0x00000000   Number         0  test_playload_ppk.o ABSOLUTE
    ..\\..\\Drivers\\STM32F4xx_HAL_Driver\\Src\\stm32f4xx_hal.c 0x00000000   Number         0  stm32f4xx_hal.o ABSOLUTE
    ..\\..\\Drivers\\STM32F4xx_HAL_Driver\\Src\\stm32f4xx_hal_cortex.c 0x00000000   Number         0  stm32f4xx_hal_cortex.o ABSOLUTE
    ..\\..\\Drivers\\STM32F4xx_HAL_Driver\\Src\\stm32f4xx_hal_dma.c 0x00000000   Number         0  stm32f4xx_hal_dma.o ABSOLUTE
    ..\\..\\Drivers\\STM32F4xx_HAL_Driver\\Src\\stm32f4xx_hal_dma_ex.c 0x00000000   Number         0  stm32f4xx_hal_dma_ex.o ABSOLUTE
    ..\\..\\Drivers\\STM32F4xx_HAL_Driver\\Src\\stm32f4xx_hal_exti.c 0x00000000   Number         0  stm32f4xx_hal_exti.o ABSOLUTE
    ..\\..\\Drivers\\STM32F4xx_HAL_Driver\\Src\\stm32f4xx_hal_flash.c 0x00000000   Number         0  stm32f4xx_hal_flash.o ABSOLUTE
    ..\\..\\Drivers\\STM32F4xx_HAL_Driver\\Src\\stm32f4xx_hal_flash_ex.c 0x00000000   Number         0  stm32f4xx_hal_flash_ex.o ABSOLUTE
    ..\\..\\Drivers\\STM32F4xx_HAL_Driver\\Src\\stm32f4xx_hal_flash_ramfunc.c 0x00000000   Number         0  stm32f4xx_hal_flash_ramfunc.o ABSOLUTE
    ..\\..\\Drivers\\STM32F4xx_HAL_Driver\\Src\\stm32f4xx_hal_gpio.c 0x00000000   Number         0  stm32f4xx_hal_gpio.o ABSOLUTE
    ..\\..\\Drivers\\STM32F4xx_HAL_Driver\\Src\\stm32f4xx_hal_hcd.c 0x00000000   Number         0  stm32f4xx_hal_hcd.o ABSOLUTE
    ..\\..\\Drivers\\STM32F4xx_HAL_Driver\\Src\\stm32f4xx_hal_pwr.c 0x00000000   Number         0  stm32f4xx_hal_pwr.o ABSOLUTE
    ..\\..\\Drivers\\STM32F4xx_HAL_Driver\\Src\\stm32f4xx_hal_pwr_ex.c 0x00000000   Number         0  stm32f4xx_hal_pwr_ex.o ABSOLUTE
    ..\\..\\Drivers\\STM32F4xx_HAL_Driver\\Src\\stm32f4xx_hal_rcc.c 0x00000000   Number         0  stm32f4xx_hal_rcc.o ABSOLUTE
    ..\\..\\Drivers\\STM32F4xx_HAL_Driver\\Src\\stm32f4xx_hal_rcc_ex.c 0x00000000   Number         0  stm32f4xx_hal_rcc_ex.o ABSOLUTE
    ..\\..\\Drivers\\STM32F4xx_HAL_Driver\\Src\\stm32f4xx_hal_tim.c 0x00000000   Number         0  stm32f4xx_hal_tim.o ABSOLUTE
    ..\\..\\Drivers\\STM32F4xx_HAL_Driver\\Src\\stm32f4xx_hal_tim_ex.c 0x00000000   Number         0  stm32f4xx_hal_tim_ex.o ABSOLUTE
    ..\\..\\Drivers\\STM32F4xx_HAL_Driver\\Src\\stm32f4xx_hal_uart.c 0x00000000   Number         0  stm32f4xx_hal_uart.o ABSOLUTE
    ..\\..\\Drivers\\STM32F4xx_HAL_Driver\\Src\\stm32f4xx_ll_usb.c 0x00000000   Number         0  stm32f4xx_ll_usb.o ABSOLUTE
    ..\\..\\application\\application.c       0x00000000   Number         0  application.o ABSOLUTE
    ..\\..\\application\\main.c              0x00000000   Number         0  main.o ABSOLUTE
    ..\\..\\drivers\\BSP\\apply_high_power.c 0x00000000   Number         0  apply_high_power.o ABSOLUTE
    ..\\..\\drivers\\BSP\\flash_if.c         0x00000000   Number         0  flash_if.o ABSOLUTE
    ..\\..\\drivers\\BSP\\led.c              0x00000000   Number         0  led.o ABSOLUTE
    ..\\..\\drivers\\BSP\\pps.c              0x00000000   Number         0  pps.o ABSOLUTE
    ..\\..\\drivers\\BSP\\stm32f4xx_hal_msp.c 0x00000000   Number         0  stm32f4xx_hal_msp.o ABSOLUTE
    ..\\..\\drivers\\BSP\\stm32f4xx_hal_timebase_tim.c 0x00000000   Number         0  stm32f4xx_hal_timebase_tim.o ABSOLUTE
    ..\\..\\drivers\\BSP\\stm32f4xx_it.c     0x00000000   Number         0  stm32f4xx_it.o ABSOLUTE
    ..\\..\\drivers\\BSP\\system_stm32f4xx.c 0x00000000   Number         0  system_stm32f4xx.o ABSOLUTE
    ..\\..\\drivers\\BSP\\uart.c             0x00000000   Number         0  uart.o ABSOLUTE
    ..\\..\\drivers\\BSP\\upgrade_platform_opt_stm32.c 0x00000000   Number         0  upgrade_platform_opt_stm32.o ABSOLUTE
    ..\\..\\drivers\\CMSIS\\Device\\ST\\STM32F4xx\\Source\\Templates\\arm\\startup_stm32f407xx.s 0x00000000   Number         0  startup_stm32f407xx.o ABSOLUTE
    ..\\..\\drivers\\USB_HOST\\App\\usb_host.c 0x00000000   Number         0  usb_host.o ABSOLUTE
    ..\\..\\drivers\\USB_HOST\\Target\\usbh_conf.c 0x00000000   Number         0  usbh_conf.o ABSOLUTE
    ..\\..\\hal\\hal_uart.c                  0x00000000   Number         0  hal_uart.o ABSOLUTE
    ..\\..\\middlewares\\ST\\STM32_USB_Host_Library\\Class\\CDC\\Src\\usbh_cdc.c 0x00000000   Number         0  usbh_cdc.o ABSOLUTE
    ..\\..\\middlewares\\ST\\STM32_USB_Host_Library\\Core\\Src\\usbh_core.c 0x00000000   Number         0  usbh_core.o ABSOLUTE
    ..\\..\\middlewares\\ST\\STM32_USB_Host_Library\\Core\\Src\\usbh_ctlreq.c 0x00000000   Number         0  usbh_ctlreq.o ABSOLUTE
    ..\\..\\middlewares\\ST\\STM32_USB_Host_Library\\Core\\Src\\usbh_ioreq.c 0x00000000   Number         0  usbh_ioreq.o ABSOLUTE
    ..\\..\\middlewares\\ST\\STM32_USB_Host_Library\\Core\\Src\\usbh_pipes.c 0x00000000   Number         0  usbh_pipes.o ABSOLUTE
    ..\\..\\middlewares\\Third_Party\\FreeRTOS\\Source\\CMSIS_RTOS\\cmsis_os.c 0x00000000   Number         0  cmsis_os.o ABSOLUTE
    ..\\..\\middlewares\\Third_Party\\FreeRTOS\\Source\\portable\\RVDS\\ARM_CM4F\\port.c 0x00000000   Number         0  port.o ABSOLUTE
    cdcmple.s                                0x00000000   Number         0  cdcmple.o ABSOLUTE
    cdrcmple.s                               0x00000000   Number         0  cdrcmple.o ABSOLUTE
    dc.s                                     0x00000000   Number         0  dc.o ABSOLUTE
    handlers.s                               0x00000000   Number         0  handlers.o ABSOLUTE
    init.s                                   0x00000000   Number         0  init.o ABSOLUTE
    RESET                                    0x08010000   Section      392  startup_stm32f407xx.o(RESET)
    .ARM.Collect$$$$00000000                 0x08010188   Section        0  entry.o(.ARM.Collect$$$$00000000)
    .ARM.Collect$$$$00000001                 0x08010188   Section        4  entry2.o(.ARM.Collect$$$$00000001)
    .ARM.Collect$$$$00000004                 0x0801018c   Section        4  entry5.o(.ARM.Collect$$$$00000004)
    .ARM.Collect$$$$00000008                 0x08010190   Section        0  entry7b.o(.ARM.Collect$$$$00000008)
    .ARM.Collect$$$$0000000A                 0x08010190   Section        0  entry8b.o(.ARM.Collect$$$$0000000A)
    .ARM.Collect$$$$0000000B                 0x08010190   Section        8  entry9a.o(.ARM.Collect$$$$0000000B)
    .ARM.Collect$$$$0000000D                 0x08010198   Section        0  entry10a.o(.ARM.Collect$$$$0000000D)
    .ARM.Collect$$$$0000000F                 0x08010198   Section        0  entry11a.o(.ARM.Collect$$$$0000000F)
    .ARM.Collect$$$$00002712                 0x08010198   Section        4  entry2.o(.ARM.Collect$$$$00002712)
    __lit__00000000                          0x08010198   Data           4  entry2.o(.ARM.Collect$$$$00002712)
    .emb_text                                0x0801019c   Section      182  port.o(.emb_text)
    $v0                                      0x0801019c   Number         0  port.o(.emb_text)
    .text                                    0x08010254   Section        0  application.o(.text)
    GduUser_FillInUserInfo                   0x08010255   Thumb Code   338  application.o(.text)
    GduUser_PrintConsole                     0x08010b1b   Thumb Code    22  application.o(.text)
    .text                                    0x08010bf8   Section        0  hal_uart.o(.text)
    .text                                    0x08010cd4   Section        0  main.o(.text)
    SystemClock_Config                       0x08010cd5   Thumb Code   158  main.o(.text)
    .text                                    0x08010e04   Section        0  osal.o(.text)
    .text                                    0x08010fe4   Section        0  flash_if.o(.text)
    GetSector                                0x08010fe5   Thumb Code   182  flash_if.o(.text)
    .text                                    0x08011238   Section        0  led.o(.text)
    .text                                    0x0801132c   Section        0  pps.o(.text)
    .text                                    0x08011498   Section       36  startup_stm32f407xx.o(.text)
    $v0                                      0x08011498   Number         0  startup_stm32f407xx.o(.text)
    .text                                    0x080114bc   Section        0  stm32f4xx_hal_msp.o(.text)
    .text                                    0x08011804   Section        0  stm32f4xx_hal_timebase_tim.o(.text)
    .text                                    0x080118b4   Section        0  stm32f4xx_it.o(.text)
    .text                                    0x080118f4   Section        0  system_stm32f4xx.o(.text)
    .text                                    0x080119d0   Section        0  uart.o(.text)
    .text                                    0x08012144   Section        0  usbh_cdc.o(.text)
    USBH_CDC_InterfaceInit                   0x080121c5   Thumb Code   634  usbh_cdc.o(.text)
    USBH_CDC_InterfaceDeInit                 0x0801243f   Thumb Code   112  usbh_cdc.o(.text)
    CDC_SetInitialValue                      0x080124af   Thumb Code    44  usbh_cdc.o(.text)
    USBH_CDC_ClassRequest                    0x080124db   Thumb Code    24  usbh_cdc.o(.text)
    CDC_ProcessReception                     0x080125e9   Thumb Code   146  usbh_cdc.o(.text)
    CDC_ProcessTransmission                  0x0801267d   Thumb Code   206  usbh_cdc.o(.text)
    USBH_CDC_Process                         0x080127e9   Thumb Code   150  usbh_cdc.o(.text)
    USBH_CDC_SOFProcess                      0x0801287f   Thumb Code     6  usbh_cdc.o(.text)
    GetLineCoding                            0x080128b7   Thumb Code    36  usbh_cdc.o(.text)
    SetLineCoding                            0x080128db   Thumb Code    36  usbh_cdc.o(.text)
    .text                                    0x08012960   Section        0  usbh_core.o(.text)
    DeInitStateMachine                       0x08012961   Thumb Code    94  usbh_core.o(.text)
    USBH_HandleEnum                          0x08012c8f   Thumb Code  1530  usbh_core.o(.text)
    USBH_HandleSof                           0x080137ed   Thumb Code   344  usbh_core.o(.text)
    USBH_Process_OS                          0x080139f1   Thumb Code    42  usbh_core.o(.text)
    .text                                    0x08013a38   Section        0  usbh_ctlreq.o(.text)
    USBH_ParseDevDesc                        0x08013a39   Thumb Code    88  usbh_ctlreq.o(.text)
    USBH_HandleControl                       0x08013a91   Thumb Code   792  usbh_ctlreq.o(.text)
    USBH_ParseEPDesc                         0x08013e9d   Thumb Code    32  usbh_ctlreq.o(.text)
    USBH_ParseInterfaceDesc                  0x08013ecf   Thumb Code    38  usbh_ctlreq.o(.text)
    USBH_ParseCfgDesc                        0x08013ef5   Thumb Code   218  usbh_ctlreq.o(.text)
    USBH_ParseStringDesc                     0x08013ffd   Thumb Code    54  usbh_ctlreq.o(.text)
    .text                                    0x08014168   Section        0  usbh_ioreq.o(.text)
    .text                                    0x080142f8   Section        0  usbh_pipes.o(.text)
    USBH_GetFreePipe                         0x08014335   Thumb Code    40  usbh_pipes.o(.text)
    .text                                    0x080143a4   Section        0  gdu_ringbuffer.o(.text)
    RingBuf_CutBufSizeToPowOfTwo             0x080143a5   Thumb Code    34  gdu_ringbuffer.o(.text)
    .text                                    0x080144e0   Section        0  apply_high_power.o(.text)
    .text                                    0x08014590   Section        0  upgrade_platform_opt_stm32.o(.text)
    .text                                    0x08014744   Section        0  stm32f4xx_hal.o(.text)
    .text                                    0x08014948   Section        0  stm32f4xx_hal_cortex.o(.text)
    __NVIC_SetPriority                       0x08014949   Thumb Code    32  stm32f4xx_hal_cortex.o(.text)
    __NVIC_GetPriorityGrouping               0x08014cf9   Thumb Code    12  stm32f4xx_hal_cortex.o(.text)
    .text                                    0x08014d18   Section        0  stm32f4xx_hal_dma.o(.text)
    DMA_CalcBaseAndBitshift                  0x08014d19   Thumb Code    46  stm32f4xx_hal_dma.o(.text)
    DMA_CheckFifoParam                       0x08014d47   Thumb Code   170  stm32f4xx_hal_dma.o(.text)
    DMA_SetConfig                            0x08014f49   Thumb Code    44  stm32f4xx_hal_dma.o(.text)
    .text                                    0x080155c8   Section        0  stm32f4xx_hal_flash.o(.text)
    FLASH_SetErrorCode                       0x080155c9   Thumb Code   142  stm32f4xx_hal_flash.o(.text)
    FLASH_Program_DoubleWord                 0x080156b1   Thumb Code    60  stm32f4xx_hal_flash.o(.text)
    FLASH_Program_Word                       0x080156ed   Thumb Code    40  stm32f4xx_hal_flash.o(.text)
    FLASH_Program_HalfWord                   0x08015715   Thumb Code    40  stm32f4xx_hal_flash.o(.text)
    FLASH_Program_Byte                       0x0801573d   Thumb Code    36  stm32f4xx_hal_flash.o(.text)
    .text                                    0x08015a30   Section        0  stm32f4xx_hal_flash_ex.o(.text)
    FLASH_MassErase                          0x08015aff   Thumb Code    48  stm32f4xx_hal_flash_ex.o(.text)
    FLASH_OB_BOR_LevelConfig                 0x08015c4f   Thumb Code    30  stm32f4xx_hal_flash_ex.o(.text)
    FLASH_OB_UserConfig                      0x08015c6d   Thumb Code    58  stm32f4xx_hal_flash_ex.o(.text)
    FLASH_OB_RDP_LevelConfig                 0x08015ca7   Thumb Code    28  stm32f4xx_hal_flash_ex.o(.text)
    FLASH_OB_DisableWRP                      0x08015cc3   Thumb Code    40  stm32f4xx_hal_flash_ex.o(.text)
    FLASH_OB_EnableWRP                       0x08015ceb   Thumb Code    38  stm32f4xx_hal_flash_ex.o(.text)
    FLASH_OB_GetBOR                          0x08015da1   Thumb Code    12  stm32f4xx_hal_flash_ex.o(.text)
    FLASH_OB_GetUser                         0x08015dad   Thumb Code    12  stm32f4xx_hal_flash_ex.o(.text)
    FLASH_OB_GetRDP                          0x08015db9   Thumb Code    34  stm32f4xx_hal_flash_ex.o(.text)
    FLASH_OB_GetWRP                          0x08015ddb   Thumb Code     8  stm32f4xx_hal_flash_ex.o(.text)
    .text                                    0x08015e0c   Section        0  stm32f4xx_hal_gpio.o(.text)
    .text                                    0x080161c8   Section        0  stm32f4xx_hal_hcd.o(.text)
    HCD_HC_OUT_IRQHandler                    0x08016647   Thumb Code  1860  stm32f4xx_hal_hcd.o(.text)
    HCD_HC_IN_IRQHandler                     0x08016d8b   Thumb Code  1890  stm32f4xx_hal_hcd.o(.text)
    HCD_RXQLVL_IRQHandler                    0x080174ed   Thumb Code   388  stm32f4xx_hal_hcd.o(.text)
    HCD_Port_IRQHandler                      0x08017679   Thumb Code   182  stm32f4xx_hal_hcd.o(.text)
    .text                                    0x08017974   Section        0  stm32f4xx_hal_rcc.o(.text)
    .text                                    0x080182bc   Section        0  stm32f4xx_hal_tim.o(.text)
    TIM_DMAPeriodElapsedHalfCplt             0x08018623   Thumb Code    14  stm32f4xx_hal_tim.o(.text)
    TIM_DMAPeriodElapsedCplt                 0x08018633   Thumb Code    26  stm32f4xx_hal_tim.o(.text)
    TIM_DMADelayPulseCplt                    0x08018cb1   Thumb Code   104  stm32f4xx_hal_tim.o(.text)
    TIM_OC4_SetConfig                        0x0801ae51   Thumb Code    74  stm32f4xx_hal_tim.o(.text)
    TIM_OC3_SetConfig                        0x0801ae9b   Thumb Code   112  stm32f4xx_hal_tim.o(.text)
    TIM_OC1_SetConfig                        0x0801af7d   Thumb Code   104  stm32f4xx_hal_tim.o(.text)
    TIM_TI4_SetConfig                        0x0801b04d   Thumb Code    60  stm32f4xx_hal_tim.o(.text)
    TIM_TI3_SetConfig                        0x0801b089   Thumb Code    56  stm32f4xx_hal_tim.o(.text)
    TIM_TI2_SetConfig                        0x0801b0c1   Thumb Code    58  stm32f4xx_hal_tim.o(.text)
    TIM_DMATriggerHalfCplt                   0x0801b47b   Thumb Code    14  stm32f4xx_hal_tim.o(.text)
    TIM_DMATriggerCplt                       0x0801b489   Thumb Code    26  stm32f4xx_hal_tim.o(.text)
    TIM_ITRx_SetConfig                       0x0801bad3   Thumb Code    18  stm32f4xx_hal_tim.o(.text)
    TIM_TI1_ConfigInputStage                 0x0801bae5   Thumb Code    38  stm32f4xx_hal_tim.o(.text)
    TIM_TI2_ConfigInputStage                 0x0801bb0b   Thumb Code    40  stm32f4xx_hal_tim.o(.text)
    TIM_SlaveTimer_SetConfig                 0x0801bc51   Thumb Code   170  stm32f4xx_hal_tim.o(.text)
    .text                                    0x0801be68   Section        0  stm32f4xx_hal_tim_ex.o(.text)
    TIM_CCxNChannelCmd                       0x0801c327   Thumb Code    34  stm32f4xx_hal_tim_ex.o(.text)
    TIM_DMAErrorCCxN                         0x0801c6c7   Thumb Code    68  stm32f4xx_hal_tim_ex.o(.text)
    TIM_DMADelayPulseNCplt                   0x0801c70b   Thumb Code   104  stm32f4xx_hal_tim_ex.o(.text)
    .text                                    0x0801d5f0   Section        0  stm32f4xx_hal_uart.o(.text)
    UART_SetConfig                           0x0801d5f1   Thumb Code   546  stm32f4xx_hal_uart.o(.text)
    UART_WaitOnFlagUntilTimeout              0x0801da6b   Thumb Code   108  stm32f4xx_hal_uart.o(.text)
    UART_EndRxTransfer                       0x0801dd67   Thumb Code    54  stm32f4xx_hal_uart.o(.text)
    UART_EndTxTransfer                       0x0801dd9d   Thumb Code    20  stm32f4xx_hal_uart.o(.text)
    UART_DMAError                            0x0801ddb1   Thumb Code    80  stm32f4xx_hal_uart.o(.text)
    UART_DMATxHalfCplt                       0x0801de03   Thumb Code    14  stm32f4xx_hal_uart.o(.text)
    UART_DMATransmitCplt                     0x0801de13   Thumb Code    54  stm32f4xx_hal_uart.o(.text)
    UART_DMARxHalfCplt                       0x0801dedb   Thumb Code    32  stm32f4xx_hal_uart.o(.text)
    UART_DMAReceiveCplt                      0x0801defd   Thumb Code   104  stm32f4xx_hal_uart.o(.text)
    UART_DMARxAbortCallback                  0x0801e55f   Thumb Code    56  stm32f4xx_hal_uart.o(.text)
    UART_DMATxAbortCallback                  0x0801e597   Thumb Code    56  stm32f4xx_hal_uart.o(.text)
    UART_DMATxOnlyAbortCallback              0x0801e6bf   Thumb Code    24  stm32f4xx_hal_uart.o(.text)
    UART_DMARxOnlyAbortCallback              0x0801e741   Thumb Code    28  stm32f4xx_hal_uart.o(.text)
    UART_EndTransmit_IT                      0x0801e7eb   Thumb Code    32  stm32f4xx_hal_uart.o(.text)
    UART_Transmit_IT                         0x0801e80b   Thumb Code    96  stm32f4xx_hal_uart.o(.text)
    UART_DMAAbortOnError                     0x0801e86b   Thumb Code    20  stm32f4xx_hal_uart.o(.text)
    UART_Receive_IT                          0x0801e87f   Thumb Code   190  stm32f4xx_hal_uart.o(.text)
    .text                                    0x0801ecfc   Section        0  stm32f4xx_ll_usb.o(.text)
    USB_CoreReset                            0x0801ecfd   Thumb Code    70  stm32f4xx_ll_usb.o(.text)
    .text                                    0x0802063c   Section        0  cmsis_os.o(.text)
    makeFreeRtosPriority                     0x0802063d   Thumb Code    14  cmsis_os.o(.text)
    makeCmsisPriority                        0x0802064b   Thumb Code    18  cmsis_os.o(.text)
    inHandlerMode                            0x0802065d   Thumb Code    16  cmsis_os.o(.text)
    .text                                    0x08020f40   Section        0  heap_4.o(.text)
    prvInsertBlockIntoFreeList               0x08020f41   Thumb Code    96  heap_4.o(.text)
    prvHeapInit                              0x08020fa1   Thumb Code    96  heap_4.o(.text)
    .text                                    0x08021264   Section        0  port.o(.text)
    prvTaskExitError                         0x08021265   Thumb Code    60  port.o(.text)
    .text                                    0x08021570   Section        0  list.o(.text)
    .text                                    0x08021604   Section        0  queue.o(.text)
    prvInitialiseNewQueue                    0x08021697   Thumb Code    38  queue.o(.text)
    prvUnlockQueue                           0x08021711   Thumb Code   126  queue.o(.text)
    prvIsQueueFull                           0x0802178f   Thumb Code    30  queue.o(.text)
    prvCopyDataToQueue                       0x080217ad   Thumb Code   126  queue.o(.text)
    prvInitialiseMutex                       0x080219cf   Thumb Code    30  queue.o(.text)
    prvIsQueueEmpty                          0x08021c4d   Thumb Code    26  queue.o(.text)
    prvCopyDataFromQueue                     0x08021c67   Thumb Code    42  queue.o(.text)
    prvGetDisinheritPriorityAfterTimeout     0x08021df5   Thumb Code    20  queue.o(.text)
    .text                                    0x08022420   Section        0  tasks.o(.text)
    prvInitialiseTaskLists                   0x08022421   Thumb Code    70  tasks.o(.text)
    prvAddNewTaskToReadyList                 0x08022467   Thumb Code   150  tasks.o(.text)
    prvInitialiseNewTask                     0x080224fd   Thumb Code   180  tasks.o(.text)
    prvResetNextTaskUnblockTime              0x08022611   Thumb Code    42  tasks.o(.text)
    prvDeleteTCB                             0x0802263b   Thumb Code    18  tasks.o(.text)
    prvAddCurrentTaskToDelayedList           0x08022961   Thumb Code   124  tasks.o(.text)
    prvTaskIsTaskSuspended                   0x08022d1d   Thumb Code    80  tasks.o(.text)
    prvCheckTasksWaitingTermination          0x08022e8b   Thumb Code    60  tasks.o(.text)
    prvIdleTask                              0x08022ec7   Thumb Code    32  tasks.o(.text)
    .text                                    0x08023a44   Section        0  usbh_conf.o(.text)
    .text                                    0x08023e18   Section        0  test_payload_cam_emu_base.o(.text)
    GetSystemState                           0x08023e19   Thumb Code   134  test_payload_cam_emu_base.o(.text)
    SetMode                                  0x08023e9f   Thumb Code   146  test_payload_cam_emu_base.o(.text)
    StartRecordVideo                         0x08023f31   Thumb Code   184  test_payload_cam_emu_base.o(.text)
    StopRecordVideo                          0x08023fe9   Thumb Code   196  test_payload_cam_emu_base.o(.text)
    StartShootPhoto                          0x080240ad   Thumb Code   212  test_payload_cam_emu_base.o(.text)
    StopShootPhoto                           0x08024181   Thumb Code   524  test_payload_cam_emu_base.o(.text)
    SetShootPhotoMode                        0x0802438d   Thumb Code   162  test_payload_cam_emu_base.o(.text)
    GetShootPhotoMode                        0x0802442f   Thumb Code   142  test_payload_cam_emu_base.o(.text)
    SetPhotoBurstCount                       0x080244bd   Thumb Code   162  test_payload_cam_emu_base.o(.text)
    GetPhotoBurstCount                       0x0802455f   Thumb Code   142  test_payload_cam_emu_base.o(.text)
    SetPhotoTimeIntervalSettings             0x080245ed   Thumb Code   186  test_payload_cam_emu_base.o(.text)
    GetPhotoTimeIntervalSettings             0x080246a7   Thumb Code   142  test_payload_cam_emu_base.o(.text)
    GetSDCardState                           0x08024735   Thumb Code   324  test_payload_cam_emu_base.o(.text)
    FormatSDCard                             0x08024879   Thumb Code   178  test_payload_cam_emu_base.o(.text)
    SetMeteringMode                          0x0802492b   Thumb Code    36  test_payload_cam_emu_base.o(.text)
    GetMeteringMode                          0x0802494f   Thumb Code    14  test_payload_cam_emu_base.o(.text)
    SetSpotMeteringTarget                    0x0802495d   Thumb Code    52  test_payload_cam_emu_base.o(.text)
    GetSpotMeteringTarget                    0x08024991   Thumb Code    14  test_payload_cam_emu_base.o(.text)
    SetFocusMode                             0x0802499f   Thumb Code    36  test_payload_cam_emu_base.o(.text)
    GetFocusMode                             0x080249c3   Thumb Code    14  test_payload_cam_emu_base.o(.text)
    SetFocusTarget                           0x080249d1   Thumb Code    96  test_payload_cam_emu_base.o(.text)
    GetFocusTarget                           0x08024a31   Thumb Code    16  test_payload_cam_emu_base.o(.text)
    SetFocusAssistantSettings                0x08024a41   Thumb Code    52  test_payload_cam_emu_base.o(.text)
    GetFocusAssistantSettings                0x08024a75   Thumb Code    14  test_payload_cam_emu_base.o(.text)
    SetFocusRingValue                        0x08024a83   Thumb Code    36  test_payload_cam_emu_base.o(.text)
    GetFocusRingValue                        0x08024aa7   Thumb Code    14  test_payload_cam_emu_base.o(.text)
    GetFocusRingValueUpperBound              0x08024ab5   Thumb Code    14  test_payload_cam_emu_base.o(.text)
    SetDigitalZoomFactor                     0x08024ac3   Thumb Code   186  test_payload_cam_emu_base.o(.text)
    SetOpticalZoomFocalLength                0x08024b7d   Thumb Code   608  test_payload_cam_emu_base.o(.text)
    GetOpticalZoomFocalLength                0x08024ddd   Thumb Code   142  test_payload_cam_emu_base.o(.text)
    GetOpticalZoomSpec                       0x08024e6b   Thumb Code    20  test_payload_cam_emu_base.o(.text)
    StartContinuousOpticalZoom               0x08024e7f   Thumb Code   184  test_payload_cam_emu_base.o(.text)
    StopContinuousOpticalZoom                0x08024f37   Thumb Code   166  test_payload_cam_emu_base.o(.text)
    GetTapZoomState                          0x08024fdd   Thumb Code   142  test_payload_cam_emu_base.o(.text)
    SetTapZoomEnabled                        0x0802506b   Thumb Code    36  test_payload_cam_emu_base.o(.text)
    GetTapZoomEnabled                        0x0802508f   Thumb Code    14  test_payload_cam_emu_base.o(.text)
    SetTapZoomMultiplier                     0x0802509d   Thumb Code    36  test_payload_cam_emu_base.o(.text)
    GetTapZoomMultiplier                     0x080250c1   Thumb Code    14  test_payload_cam_emu_base.o(.text)
    TapZoomAtTarget                          0x080250cf   Thumb Code   952  test_payload_cam_emu_base.o(.text)
    GduTest_CameraHybridZoom                 0x08025487   Thumb Code   122  test_payload_cam_emu_base.o(.text)
    UserCamera_Task                          0x08025501   Thumb Code  1548  test_payload_cam_emu_base.o(.text)
    .text                                    0x08026534   Section        0  test_fc_subscription.o(.text)
    UserFcSubscription_Task                  0x08026545   Thumb Code   488  test_fc_subscription.o(.text)
    GduTest_FcSubscriptionReceiveQuaternionCallback 0x080267df   Thumb Code  1164  test_fc_subscription.o(.text)
    .text                                    0x08027314   Section        0  test_payload_gimbal_emu.o(.text)
    GduTest_GimbalAngleLegalization          0x08027315   Thumb Code   844  test_payload_gimbal_emu.o(.text)
    UserGimbal_Task                          0x08027661   Thumb Code  1914  test_payload_gimbal_emu.o(.text)
    FineTuneAngle                            0x08027ddb   Thumb Code   954  test_payload_gimbal_emu.o(.text)
    Reset                                    0x08028195   Thumb Code   748  test_payload_gimbal_emu.o(.text)
    SetMode                                  0x08028481   Thumb Code   276  test_payload_gimbal_emu.o(.text)
    RestoreFactorySettings                   0x08028595   Thumb Code   162  test_payload_gimbal_emu.o(.text)
    SetControllerMaxSpeedPercentage          0x08028637   Thumb Code   172  test_payload_gimbal_emu.o(.text)
    SetPitchRangeExtensionEnabled            0x080286e3   Thumb Code   132  test_payload_gimbal_emu.o(.text)
    SetControllerSmoothFactor                0x08028767   Thumb Code   164  test_payload_gimbal_emu.o(.text)
    StartCalibrate                           0x0802880b   Thumb Code   180  test_payload_gimbal_emu.o(.text)
    GduTest_GimbalSpeedLegalization          0x080288bf   Thumb Code   464  test_payload_gimbal_emu.o(.text)
    GduTest_GimbalCalculateSpeed             0x08028a8f   Thumb Code   330  test_payload_gimbal_emu.o(.text)
    GetJointAngle                            0x0802918f   Thumb Code   138  test_payload_gimbal_emu.o(.text)
    GetRotationSpeed                         0x08029219   Thumb Code   116  test_payload_gimbal_emu.o(.text)
    GetCalibrationState                      0x0802928d   Thumb Code   108  test_payload_gimbal_emu.o(.text)
    GetAttitudeInformation                   0x080292f9   Thumb Code   112  test_payload_gimbal_emu.o(.text)
    GetSystemState                           0x08029369   Thumb Code   232  test_payload_gimbal_emu.o(.text)
    .text                                    0x0802983c   Section        0  test_positioning.o(.text)
    GduTest_PositioningTask                  0x0802983d   Thumb Code   620  test_positioning.o(.text)
    .text                                    0x08029d80   Section        0  test_time_sync.o(.text)
    GduTest_TimeSyncTask                     0x08029dc7   Thumb Code   258  test_time_sync.o(.text)
    .text                                    0x0802a204   Section        0  util_md5.o(.text)
    .text                                    0x0802add8   Section        0  test_power_management.o(.text)
    GduTest_PowerOffNotificationCallback     0x0802af61   Thumb Code    30  test_power_management.o(.text)
    .text                                    0x0802b1a4   Section        0  test_widget.o(.text)
    GduTest_WidgetTask                       0x0802b1a5   Thumb Code   134  test_widget.o(.text)
    GduTestWidget_SetWidgetValue             0x0802b353   Thumb Code    58  test_widget.o(.text)
    GduTestWidget_GetWidgetValue             0x0802b38d   Thumb Code    24  test_widget.o(.text)
    .text                                    0x0802b53c   Section        0  test_upgrade.o(.text)
    GduTest_EnterUpgradeModeProcessTask      0x0802b53d   Thumb Code    86  test_upgrade.o(.text)
    GduTest_UpgradeProcessTask               0x0802b593   Thumb Code   334  test_upgrade.o(.text)
    GduTest_EnterUpgradeMode                 0x0802b8cf   Thumb Code    18  test_upgrade.o(.text)
    GduTest_CheckFirmware                    0x0802b8e1   Thumb Code     6  test_upgrade.o(.text)
    GduTest_StartUpgrade                     0x0802b8e7   Thumb Code    40  test_upgrade.o(.text)
    GduTest_FinishUpgrade                    0x0802b90f   Thumb Code   682  test_upgrade.o(.text)
    .text                                    0x0802bbb8   Section        0  test_upgrade_common_file_transfer.o(.text)
    GduTestFile_GetUpgradeFileMd5            0x0802bc97   Thumb Code   232  test_upgrade_common_file_transfer.o(.text)
    .text                                    0x0802bf50   Section        0  test_upgrade_platform_opt.o(.text)
    .text                                    0x0802c338   Section        0  test_playload_ppk.o(.text)
    GduTest_PPKTask                          0x0802c36b   Thumb Code   186  test_playload_ppk.o(.text)
    .text                                    0x0802c5b4   Section        0  gdu_aircraft_info.o(.text)
    .text                                    0x0802c5d4   Section        0  gdu_core.o(.text)
    Glink_sendToBuffer                       0x0802c5d5   Thumb Code   254  gdu_core.o(.text)
    glink_m_psdk_psdk_payloadid_report_encode 0x0802c6d3   Thumb Code   166  gdu_core.o(.text)
    GduCore_RunTask                          0x0802c837   Thumb Code    32  gdu_core.o(.text)
    GduCore_Init_FunList                     0x0802c857   Thumb Code    88  gdu_core.o(.text)
    GduCore_Select_FunList                   0x0802c8af   Thumb Code    72  gdu_core.o(.text)
    .text                                    0x0802cd64   Section        0  gdu_gimbal.o(.text)
    speedRotationCtrlMode                    0x0802ce61   Thumb Code   190  gdu_gimbal.o(.text)
    GduGimbal_PTZ_CtrlCmd                    0x0802cf1f   Thumb Code   296  gdu_gimbal.o(.text)
    GduGimbal_PTZ_AngleCtrl                  0x0802d047   Thumb Code   200  gdu_gimbal.o(.text)
    GduGimbal_PTZ_Calibration                0x0802d10f   Thumb Code   190  gdu_gimbal.o(.text)
    GduPayloadGimbal_MsgReceiveProcess       0x0802d1cd   Thumb Code    90  gdu_gimbal.o(.text)
    GduPayloadGimbalStatus                   0x0802d26b   Thumb Code   140  gdu_gimbal.o(.text)
    GduGimbalCalibrationState                0x0802d2f7   Thumb Code   116  gdu_gimbal.o(.text)
    GduGimbalAttitudeInfo                    0x0802d36b   Thumb Code   114  gdu_gimbal.o(.text)
    GduGimbalRotationSpeed                   0x0802d3dd   Thumb Code    90  gdu_gimbal.o(.text)
    GduGimbalJointAngle                      0x0802d437   Thumb Code    90  gdu_gimbal.o(.text)
    GduGimbalCtrl                            0x0802d491   Thumb Code   158  gdu_gimbal.o(.text)
    GduGimbalStartCalibrate                  0x0802d52f   Thumb Code    68  gdu_gimbal.o(.text)
    GduGimbalSetControllerSmoothFactor       0x0802d573   Thumb Code   108  gdu_gimbal.o(.text)
    GduGimbalRangeExtensionEnabled           0x0802d5df   Thumb Code    88  gdu_gimbal.o(.text)
    GduGimbalSetControllerMaxSpeedPercentage 0x0802d637   Thumb Code    82  gdu_gimbal.o(.text)
    GduGimbalRestoreFactorySettings          0x0802d689   Thumb Code    74  gdu_gimbal.o(.text)
    GduGimbalSetMode                         0x0802d6d3   Thumb Code    88  gdu_gimbal.o(.text)
    GduGimbalReset                           0x0802d72b   Thumb Code    98  gdu_gimbal.o(.text)
    GduGimbalFineTuneAngle                   0x0802d78d   Thumb Code    94  gdu_gimbal.o(.text)
    GduPayloadGimbal_Task                    0x0802d7eb   Thumb Code    20  gdu_gimbal.o(.text)
    .text                                    0x0802d80c   Section        0  gdu_logger.o(.text)
    Gdu_LoggerBasePublicPort                 0x0802d899   Thumb Code   180  gdu_logger.o(.text)
    .text                                    0x0802da40   Section        0  gdu_payload_camera.o(.text)
    Glink_sendToBuffer                       0x0802da41   Thumb Code   254  gdu_payload_camera.o(.text)
    Glink_finalizeMsg                        0x0802db3f   Thumb Code    28  gdu_payload_camera.o(.text)
    Glink_swapSysAndCmp                      0x0802db5b   Thumb Code    42  gdu_payload_camera.o(.text)
    GduPayloadSubmoduleEnableSet             0x0802db85   Thumb Code    32  gdu_payload_camera.o(.text)
    GduCam_SendData                          0x0802dba5   Thumb Code    30  gdu_payload_camera.o(.text)
    GduPayloadCameraSDStatus                 0x0802dbc3   Thumb Code   164  gdu_payload_camera.o(.text)
    GduPayloadCameraStatus                   0x0802dc67   Thumb Code   218  gdu_payload_camera.o(.text)
    GduPayloadCameraStateUp                  0x0802dd41   Thumb Code   130  gdu_payload_camera.o(.text)
    GduPayloadCamera_Task                    0x0802de37   Thumb Code    92  gdu_payload_camera.o(.text)
    GduPayloadCamera_MsgReceiveProcess       0x0802de93   Thumb Code   162  gdu_payload_camera.o(.text)
    GduPayloadCamera_refreshMediaFileList    0x0802e2b5   Thumb Code     2  gdu_payload_camera.o(.text)
    GduCam_photoVideoStatus                  0x0802e785   Thumb Code    84  gdu_payload_camera.o(.text)
    glink_m_encode                           0x0802f513   Thumb Code   116  gdu_payload_camera.o(.text)
    GduPayloadCameraAck                      0x0802f587   Thumb Code    78  gdu_payload_camera.o(.text)
    GduCam_SetMetering                       0x0802f5d5   Thumb Code   138  gdu_payload_camera.o(.text)
    GduCam_GetMetering                       0x0802f65f   Thumb Code   106  gdu_payload_camera.o(.text)
    GduCam_SetFocus                          0x0802f6c9   Thumb Code   172  gdu_payload_camera.o(.text)
    GduCam_GetFocus                          0x0802f775   Thumb Code   158  gdu_payload_camera.o(.text)
    GduCam_SetZoom                           0x0802f813   Thumb Code   162  gdu_payload_camera.o(.text)
    GduCam_GetZoom                           0x0802f8b5   Thumb Code   160  gdu_payload_camera.o(.text)
    GduCam_SetTapZoom                        0x0802f955   Thumb Code   154  gdu_payload_camera.o(.text)
    GduCam_GetTapZoom                        0x0802f9ef   Thumb Code   120  gdu_payload_camera.o(.text)
    glink_m_pods_generality_vis_status_encode 0x0802fa67   Thumb Code   112  gdu_payload_camera.o(.text)
    glink_m_pods_generality_vis_get_param_ack_encode 0x0802fad7   Thumb Code   114  gdu_payload_camera.o(.text)
    glink_m_pods_generality_vis_take_pictures_param_ack_encode 0x0802fb49   Thumb Code   134  gdu_payload_camera.o(.text)
    glink_m_pods_generality_vis_specify_zoom_ack_encode 0x0802fbcf   Thumb Code   114  gdu_payload_camera.o(.text)
    glink_m_pods_generality_vis_meteringmode_ack_encode 0x0802fc41   Thumb Code   114  gdu_payload_camera.o(.text)
    glink_m_pods_generality_conzoom_ack_encode 0x0802fcb3   Thumb Code   114  gdu_payload_camera.o(.text)
    glink_m_pods_generality_take_photo_ack_encode 0x0802fd25   Thumb Code   114  gdu_payload_camera.o(.text)
    glink_m_pods_generality_take_video_ack_encode 0x0802fd97   Thumb Code   114  gdu_payload_camera.o(.text)
    glink_m_pods_generality_take_video_status_encode 0x0802fe09   Thumb Code   128  gdu_payload_camera.o(.text)
    glink_m_pods_generality_tfcard_format_ack_encode 0x0802fe89   Thumb Code   114  gdu_payload_camera.o(.text)
    glink_m_pods_generality_camera_mode_ack_encode 0x0802fefb   Thumb Code   114  gdu_payload_camera.o(.text)
    glink_m_pods_generality_zoom_ack_encode  0x0802ff6d   Thumb Code   114  gdu_payload_camera.o(.text)
    glink_m_pods_generality_focus_ack_encode 0x0802ffdf   Thumb Code   114  gdu_payload_camera.o(.text)
    glink_m_pods_five_lenses_take_photo_status_encode 0x08030051   Thumb Code   128  gdu_payload_camera.o(.text)
    glink_m_pods_ortho_lenses_take_video_status_encode 0x080300d1   Thumb Code   128  gdu_payload_camera.o(.text)
    glink_m_psdk_psdk_camera_basic_information_encode 0x08030151   Thumb Code   112  gdu_payload_camera.o(.text)
    glink_m_psdk_psdk_sd_information_encode  0x080301c1   Thumb Code   112  gdu_payload_camera.o(.text)
    glink_m_psdk_psdk_photo_video_instruction_ack_encode 0x08030231   Thumb Code   112  gdu_payload_camera.o(.text)
    glink_m_psdk_psdk_photo_video_instruction_status_encode 0x080302a1   Thumb Code   112  gdu_payload_camera.o(.text)
    glink_m_psdk_psdk_set_photo_parameter_ack_encode 0x08030311   Thumb Code   112  gdu_payload_camera.o(.text)
    .text                                    0x08030380   Section        0  gdu_platform.o(.text)
    .text                                    0x08030424   Section        0  gdu_positioning.o(.text)
    Glink_sendToBuffer                       0x08030425   Thumb Code   254  gdu_positioning.o(.text)
    Glink_finalizeMsg                        0x08030523   Thumb Code    28  gdu_positioning.o(.text)
    Glink_swapSysAndCmp                      0x0803053f   Thumb Code    42  gdu_positioning.o(.text)
    GduPositioning_SendData                  0x0803058b   Thumb Code    40  gdu_positioning.o(.text)
    GduPositioning_openPositioningInfo       0x080305b3   Thumb Code    82  gdu_positioning.o(.text)
    GduPayloadPositioning_posMsgHandle       0x08030605   Thumb Code   322  gdu_positioning.o(.text)
    GduPayloadPositioning_MsgReceiveProcess  0x08030747   Thumb Code    58  gdu_positioning.o(.text)
    sort                                     0x08030781   Thumb Code    66  gdu_positioning.o(.text)
    gduPositioning_savePositionAndPose       0x080307c3   Thumb Code  1332  gdu_positioning.o(.text)
    GduPositioning_reportPositionFlag        0x08030cfd   Thumb Code   150  gdu_positioning.o(.text)
    GduPositioning_reportGeomaticMsg         0x08030d93   Thumb Code   158  gdu_positioning.o(.text)
    GduPayloadPositioning_Task               0x08030e31   Thumb Code   234  gdu_positioning.o(.text)
    dichotomy                                0x08030f83   Thumb Code   240  gdu_positioning.o(.text)
    glink_m_aircraft_fc_realtime_location_report_encode 0x0803197d   Thumb Code   108  gdu_positioning.o(.text)
    glink_m_psdk_psdk_payload2_report_encode 0x080319e9   Thumb Code   112  gdu_positioning.o(.text)
    glink_m_psdk_psdk_geomatic_report_encode 0x08031a59   Thumb Code   110  gdu_positioning.o(.text)
    .text                                    0x08031b10   Section        0  gdu_power_management.o(.text)
    .text                                    0x08031b44   Section        0  gdu_ppk.o(.text)
    Glink_sendToBuffer                       0x08031b45   Thumb Code   254  gdu_ppk.o(.text)
    GduPPK_Switck_Request                    0x08031c43   Thumb Code    88  gdu_ppk.o(.text)
    GduPPK_Task                              0x08031c9b   Thumb Code    70  gdu_ppk.o(.text)
    GduPPK_MsgReceiveProcess                 0x08031ce1   Thumb Code   282  gdu_ppk.o(.text)
    .text                                    0x080321bc   Section        0  gdu_subscribeinfo.o(.text)
    subscribeMsg                             0x080321c3   Thumb Code   240  gdu_subscribeinfo.o(.text)
    savePostioningInfo                       0x080322b3   Thumb Code   614  gdu_subscribeinfo.o(.text)
    subscribeMsgSend                         0x08032519   Thumb Code  1336  gdu_subscribeinfo.o(.text)
    GduPayloadSubscribe_Task                 0x08032a51   Thumb Code   216  gdu_subscribeinfo.o(.text)
    GduPayloadSubscribe_MsgReceiveProcess    0x08032b29   Thumb Code   100  gdu_subscribeinfo.o(.text)
    aircraft_fc_basic_state_1_Handle         0x08032cab   Thumb Code   216  gdu_subscribeinfo.o(.text)
    aircraft_fc_basic_state_2_Handle         0x08032d83   Thumb Code   110  gdu_subscribeinfo.o(.text)
    aircraft_fc_attitudeinfo_Handle          0x08032df1   Thumb Code   110  gdu_subscribeinfo.o(.text)
    aircraft_fc_speedinfo_Handle             0x08032e5f   Thumb Code   110  gdu_subscribeinfo.o(.text)
    aircraft_fpv_Handle                      0x08032ed3   Thumb Code    12  gdu_subscribeinfo.o(.text)
    aircraft_fc_gnssinfo_Handle              0x08032edf   Thumb Code   314  gdu_subscribeinfo.o(.text)
    aircraft_fc_batteryinfo_Handle           0x08033019   Thumb Code   110  gdu_subscribeinfo.o(.text)
    .text                                    0x0803309c   Section        0  gdu_upgrade.o(.text)
    Glink_sendToBuffer                       0x0803309d   Thumb Code   254  gdu_upgrade.o(.text)
    Glink_finalizeMsg                        0x0803319b   Thumb Code    28  gdu_upgrade.o(.text)
    Glink_swapSysAndCmp                      0x080331b7   Thumb Code    42  gdu_upgrade.o(.text)
    glink_ftp_connect_ack_decode             0x080331e1   Thumb Code    74  gdu_upgrade.o(.text)
    glink_ftp_req_download_encode            0x0803322b   Thumb Code   178  gdu_upgrade.o(.text)
    glink_ftp_download_finish_decode         0x080332dd   Thumb Code   220  gdu_upgrade.o(.text)
    glink_ftp_req_fileinfo_encode            0x080333b9   Thumb Code   166  gdu_upgrade.o(.text)
    glink_ftp_download_file_ack_encode       0x0803345f   Thumb Code   168  gdu_upgrade.o(.text)
    glink_ftp_download_finish_ack_encode     0x08033507   Thumb Code   166  gdu_upgrade.o(.text)
    GduUpdate_SendData                       0x080335ad   Thumb Code   224  gdu_upgrade.o(.text)
    GduUpgrade_Task                          0x08033d81   Thumb Code    24  gdu_upgrade.o(.text)
    GduUpgrade_MsgReceiveProcess             0x08033d99   Thumb Code    44  gdu_upgrade.o(.text)
    glink_m_psdk_psdk_updata_report_encode   0x08033edf   Thumb Code   112  gdu_upgrade.o(.text)
    glink_m_psdk_psdk_updata_instruction_encode 0x08033f4f   Thumb Code   446  gdu_upgrade.o(.text)
    glink_ftp_req_fileinfo_ack_decode        0x0803410d   Thumb Code   124  gdu_upgrade.o(.text)
    glink_ftp_connect_encode                 0x08034189   Thumb Code   166  gdu_upgrade.o(.text)
    .text                                    0x08034264   Section        0  gdu_widget.o(.text)
    crc_calculate                            0x08034265   Thumb Code    74  gdu_widget.o(.text)
    Glink_sendToBuffer                       0x080342af   Thumb Code   182  gdu_widget.o(.text)
    Glink_finalizeMsg                        0x08034365   Thumb Code    28  gdu_widget.o(.text)
    Glink_swapSysAndCmp                      0x08034381   Thumb Code    42  gdu_widget.o(.text)
    GduCam_SendData                          0x080343ab   Thumb Code    30  gdu_widget.o(.text)
    widgetShowDataSend                       0x080343c9   Thumb Code    78  gdu_widget.o(.text)
    GduWidgetFileCRCCheck                    0x08034417   Thumb Code    84  gdu_widget.o(.text)
    fileSinglePackUpload                     0x0803446b   Thumb Code   130  gdu_widget.o(.text)
    fileSpecifyPackUpload                    0x080344ed   Thumb Code   298  gdu_widget.o(.text)
    filePackUpload                           0x08034617   Thumb Code   198  gdu_widget.o(.text)
    GduWidgetFileUploadProcess               0x080346dd   Thumb Code   402  gdu_widget.o(.text)
    GduWidget_Task                           0x0803486f   Thumb Code    38  gdu_widget.o(.text)
    GduWidget_MsgReceiveProcess              0x08034895   Thumb Code   160  gdu_widget.o(.text)
    GduWidget_ReceiveCmd                     0x08034af1   Thumb Code   332  gdu_widget.o(.text)
    GduWidget_StatusRequestProcessCmd        0x08034c3d   Thumb Code   384  gdu_widget.o(.text)
    fileName                                 0x08034dbd   Thumb Code    50  gdu_widget.o(.text)
    GduWidget_RequestDownloadFile            0x08034def   Thumb Code   518  gdu_widget.o(.text)
    glink_m_psdk_psdk_custom_window_report_encode 0x08034ff5   Thumb Code   176  gdu_widget.o(.text)
    glink_m_psdk_psdk_update_custom_list_ack_encode 0x080350a5   Thumb Code   112  gdu_widget.o(.text)
    glink_m_psdk_psdk_update_custom_list_report_encode 0x08035115   Thumb Code   112  gdu_widget.o(.text)
    glink_m_psdk_psdk_custom_control_ack_encode 0x08035185   Thumb Code   112  gdu_widget.o(.text)
    glink_m_psdk_psdk_get_control_status_ack_encode 0x080351f5   Thumb Code   132  gdu_widget.o(.text)
    .text                                    0x08035278   Section        0  time_sync.o(.text)
    GduTimeSync_rtkData_handle               0x080352fd   Thumb Code   574  time_sync.o(.text)
    GduPayloadTimeSync_MsgReceiveProcess     0x0803553b   Thumb Code    54  time_sync.o(.text)
    GduPayloadTimeSync_Task                  0x08035571   Thumb Code   164  time_sync.o(.text)
    .text                                    0x080358c8   Section        0  basemsghandle.o(.text)
    Glink_sendToBuffer                       0x080358c9   Thumb Code   254  basemsghandle.o(.text)
    Glink_finalizeMsg                        0x080359c7   Thumb Code    28  basemsghandle.o(.text)
    Glink_swapSysAndCmp                      0x080359e3   Thumb Code    42  basemsghandle.o(.text)
    baseMsg_SendData                         0x08035a31   Thumb Code    40  basemsghandle.o(.text)
    GduPayloadBaseMsg_MsgReceiveProcess      0x08035d67   Thumb Code   100  basemsghandle.o(.text)
    GduPayloadBaseMsg_Task                   0x08035dcb   Thumb Code   388  basemsghandle.o(.text)
    glink_m_aircraft_psdk_component_assign_component_id_encode 0x08035fb5   Thumb Code   112  basemsghandle.o(.text)
    glink_m_pods_adapter_ring_get_version_sn_encode 0x08036025   Thumb Code   112  basemsghandle.o(.text)
    glink_m_mobileterminal_app_get_app_infor_encode 0x08036095   Thumb Code   102  basemsghandle.o(.text)
    .text                                    0x0803615c   Section        0  gdu_cache.o(.text)
    .text                                    0x0803623c   Section        0  gdu_serial.o(.text)
    .text                                    0x080363e0   Section        0  npc.o(.text)
    crc_accumulate                           0x080363e1   Thumb Code    34  npc.o(.text)
    Glink_updateChecksum                     0x08036403   Thumb Code    28  npc.o(.text)
    Glink_parseChar                          0x0803641f   Thumb Code   520  npc.o(.text)
    Glink_sendToBuffer                       0x08036627   Thumb Code   224  npc.o(.text)
    Glink_finalizeMsg                        0x08036707   Thumb Code    28  npc.o(.text)
    Glink_swapSysAndCmp                      0x08036723   Thumb Code    42  npc.o(.text)
    NpcLinkHandleConnectAck                  0x08036a37   Thumb Code    96  npc.o(.text)
    NpcLinkHandleHeartbeatAck                0x08036a97   Thumb Code    30  npc.o(.text)
    glink_np_connect_encode                  0x08036fb1   Thumb Code   120  npc.o(.text)
    glink_np_disconnect_encode               0x08037029   Thumb Code   400  npc.o(.text)
    glink_np_subscribe_encode                0x080371b9   Thumb Code   122  npc.o(.text)
    glink_np_heartbeat_encode                0x08037233   Thumb Code   114  npc.o(.text)
    .text                                    0x080372a4   Section        0  gdu_glink.o(.text)
    .text                                    0x080373ce   Section        0  general_linked_list.o(.text)
    .text                                    0x08037524   Section        0  uldiv.o(.text)
    .text                                    0x08037588   Section        0  mktime.o(.text)
    .text                                    0x08037630   Section        0  memcpya.o(.text)
    .text                                    0x08037654   Section        0  memseta.o(.text)
    .text                                    0x08037678   Section        0  strstr.o(.text)
    .text                                    0x0803769c   Section        0  strncpy.o(.text)
    .text                                    0x080376b4   Section        0  strlen.o(.text)
    .text                                    0x080376c2   Section        0  strcmp.o(.text)
    .text                                    0x080376de   Section        0  memcmp.o(.text)
    .text                                    0x080376f8   Section        0  strcpy.o(.text)
    .text                                    0x0803770a   Section        0  strncmp.o(.text)
    .text                                    0x08037728   Section        0  atoi.o(.text)
    .text                                    0x08037742   Section        0  atol.o(.text)
    .text                                    0x0803775c   Section        0  dadd.o(.text)
    .text                                    0x080378aa   Section        0  dmul.o(.text)
    .text                                    0x0803798e   Section        0  ddiv.o(.text)
    .text                                    0x08037a6c   Section        0  dflti.o(.text)
    .text                                    0x08037a8e   Section        0  dfixi.o(.text)
    .text                                    0x08037acc   Section        0  f2d.o(.text)
    .text                                    0x08037af4   Section       48  cdrcmple.o(.text)
    .text                                    0x08037b24   Section        0  uidiv.o(.text)
    .text                                    0x08037b50   Section        0  llshl.o(.text)
    .text                                    0x08037b6e   Section        0  llushr.o(.text)
    .text                                    0x08037b8e   Section        0  llsshr.o(.text)
    .text                                    0x08037bb4   Section        0  localtime_w.o(.text)
    .text                                    0x08037bc0   Section        0  localtime_i.o(.text)
    .text                                    0x08037c4c   Section        0  strtol.o(.text)
    .text                                    0x08037cbc   Section        0  depilogue.o(.text)
    .text                                    0x08037cbc   Section        0  iusefp.o(.text)
    .text                                    0x08037d76   Section        0  dfixul.o(.text)
    .text                                    0x08037da8   Section       36  init.o(.text)
    .text                                    0x08037dcc   Section        0  ctype_o.o(.text)
    .text                                    0x08037dd4   Section        0  _strtoul.o(.text)
    .text                                    0x08037e72   Section        0  _chval.o(.text)
    .text                                    0x08037e8e   Section        0  __dczerorl2.o(.text)
    i.__0printf                              0x08037ee4   Section        0  printfa.o(i.__0printf)
    i.__0snprintf                            0x08037f04   Section        0  printfa.o(i.__0snprintf)
    i.__0sprintf                             0x08037f34   Section        0  printfa.o(i.__0sprintf)
    i.__0vsprintf                            0x08037f5c   Section        0  printfa.o(i.__0vsprintf)
    i.__ARM_fpclassifyf                      0x08037f80   Section        0  fpclassifyf.o(i.__ARM_fpclassifyf)
    i.__aeabi_errno_addr                     0x08037fa8   Section        0  errno.o(i.__aeabi_errno_addr)
    i.__hardfp_asinf                         0x08037fb0   Section        0  asinf.o(i.__hardfp_asinf)
    i.__hardfp_atan2f                        0x080380dc   Section        0  atan2f.o(i.__hardfp_atan2f)
    i.__mathlib_flt_infnan                   0x0803832c   Section        0  funder.o(i.__mathlib_flt_infnan)
    i.__mathlib_flt_infnan2                  0x08038332   Section        0  funder.o(i.__mathlib_flt_infnan2)
    i.__mathlib_flt_invalid                  0x08038338   Section        0  funder.o(i.__mathlib_flt_invalid)
    i.__mathlib_flt_underflow                0x08038348   Section        0  funder.o(i.__mathlib_flt_underflow)
    i.__scatterload_copy                     0x08038358   Section       14  handlers.o(i.__scatterload_copy)
    i.__scatterload_null                     0x08038366   Section        2  handlers.o(i.__scatterload_null)
    i.__scatterload_zeroinit                 0x08038368   Section       14  handlers.o(i.__scatterload_zeroinit)
    i.__set_errno                            0x08038378   Section        0  errno.o(i.__set_errno)
    i._fp_digits                             0x08038384   Section        0  printfa.o(i._fp_digits)
    _fp_digits                               0x08038385   Thumb Code   366  printfa.o(i._fp_digits)
    i._printf_core                           0x08038508   Section        0  printfa.o(i._printf_core)
    _printf_core                             0x08038509   Thumb Code  1744  printfa.o(i._printf_core)
    i._printf_post_padding                   0x08038be4   Section        0  printfa.o(i._printf_post_padding)
    _printf_post_padding                     0x08038be5   Thumb Code    36  printfa.o(i._printf_post_padding)
    i._printf_pre_padding                    0x08038c08   Section        0  printfa.o(i._printf_pre_padding)
    _printf_pre_padding                      0x08038c09   Thumb Code    46  printfa.o(i._printf_pre_padding)
    i._snputc                                0x08038c36   Section        0  printfa.o(i._snputc)
    _snputc                                  0x08038c37   Thumb Code    22  printfa.o(i._snputc)
    i._sputc                                 0x08038c4c   Section        0  printfa.o(i._sputc)
    _sputc                                   0x08038c4d   Thumb Code    10  printfa.o(i._sputc)
    i.free                                   0x08038c58   Section        0  malloc.o(i.free)
    i.malloc                                 0x08038ca8   Section        0  malloc.o(i.malloc)
    i.sqrtf                                  0x08038d14   Section        0  sqrtf.o(i.sqrtf)
    .constdata                               0x08038d54   Section      221  application.o(.constdata)
    __FUNCTION__                             0x08038d54   Data          18  application.o(.constdata)
    __FUNCTION__                             0x08038e06   Data          20  application.o(.constdata)
    __FUNCTION__                             0x08038e1a   Data          23  application.o(.constdata)
    .constdata                               0x08038e32   Section        8  led.o(.constdata)
    .constdata                               0x08038e3a   Section       39  pps.o(.constdata)
    __FUNCTION__                             0x08038e3a   Data          39  pps.o(.constdata)
    .constdata                               0x08038e61   Section       24  system_stm32f4xx.o(.constdata)
    .constdata                               0x08038e7c   Section       28  usbh_core.o(.constdata)
    .constdata                               0x08038e98   Section       31  apply_high_power.o(.constdata)
    __FUNCTION__                             0x08038e98   Data          31  apply_high_power.o(.constdata)
    .constdata                               0x08038eb7   Section        8  stm32f4xx_hal_dma.o(.constdata)
    flagBitshiftOffset                       0x08038eb7   Data           8  stm32f4xx_hal_dma.o(.constdata)
    .constdata                               0x08038ebf   Section      721  test_payload_cam_emu_base.o(.constdata)
    __FUNCTION__                             0x08038ebf   Data          15  test_payload_cam_emu_base.o(.constdata)
    __FUNCTION__                             0x08038ece   Data           8  test_payload_cam_emu_base.o(.constdata)
    __FUNCTION__                             0x08038ed6   Data          17  test_payload_cam_emu_base.o(.constdata)
    __FUNCTION__                             0x08038ee7   Data          16  test_payload_cam_emu_base.o(.constdata)
    __FUNCTION__                             0x08038ef7   Data          16  test_payload_cam_emu_base.o(.constdata)
    __FUNCTION__                             0x08038f07   Data          15  test_payload_cam_emu_base.o(.constdata)
    __FUNCTION__                             0x08038f16   Data          18  test_payload_cam_emu_base.o(.constdata)
    __FUNCTION__                             0x08038f28   Data          18  test_payload_cam_emu_base.o(.constdata)
    __FUNCTION__                             0x08038f3a   Data          19  test_payload_cam_emu_base.o(.constdata)
    __FUNCTION__                             0x08038f4d   Data          19  test_payload_cam_emu_base.o(.constdata)
    __FUNCTION__                             0x08038f60   Data          29  test_payload_cam_emu_base.o(.constdata)
    __FUNCTION__                             0x08038f7d   Data          29  test_payload_cam_emu_base.o(.constdata)
    __FUNCTION__                             0x08038f9a   Data          15  test_payload_cam_emu_base.o(.constdata)
    __FUNCTION__                             0x08038fa9   Data          13  test_payload_cam_emu_base.o(.constdata)
    __FUNCTION__                             0x08038fb6   Data          16  test_payload_cam_emu_base.o(.constdata)
    __FUNCTION__                             0x08038fc6   Data          22  test_payload_cam_emu_base.o(.constdata)
    __FUNCTION__                             0x08038fdc   Data          13  test_payload_cam_emu_base.o(.constdata)
    __FUNCTION__                             0x08038fe9   Data          15  test_payload_cam_emu_base.o(.constdata)
    __FUNCTION__                             0x08038ff8   Data          26  test_payload_cam_emu_base.o(.constdata)
    __FUNCTION__                             0x08039012   Data          18  test_payload_cam_emu_base.o(.constdata)
    __FUNCTION__                             0x08039024   Data          21  test_payload_cam_emu_base.o(.constdata)
    __FUNCTION__                             0x08039039   Data          26  test_payload_cam_emu_base.o(.constdata)
    __FUNCTION__                             0x08039053   Data          26  test_payload_cam_emu_base.o(.constdata)
    __FUNCTION__                             0x0803906d   Data          27  test_payload_cam_emu_base.o(.constdata)
    __FUNCTION__                             0x08039088   Data          26  test_payload_cam_emu_base.o(.constdata)
    __FUNCTION__                             0x080390a2   Data          16  test_payload_cam_emu_base.o(.constdata)
    __FUNCTION__                             0x080390b2   Data          18  test_payload_cam_emu_base.o(.constdata)
    __FUNCTION__                             0x080390c4   Data          21  test_payload_cam_emu_base.o(.constdata)
    __FUNCTION__                             0x080390d9   Data          16  test_payload_cam_emu_base.o(.constdata)
    __FUNCTION__                             0x080390e9   Data          25  test_payload_cam_emu_base.o(.constdata)
    __FUNCTION__                             0x08039102   Data          16  test_payload_cam_emu_base.o(.constdata)
    __FUNCTION__                             0x08039112   Data          34  test_payload_cam_emu_base.o(.constdata)
    __FUNCTION__                             0x08039134   Data          35  test_payload_cam_emu_base.o(.constdata)
    __FUNCTION__                             0x08039157   Data          35  test_payload_cam_emu_base.o(.constdata)
    __FUNCTION__                             0x0803917a   Data          22  test_payload_cam_emu_base.o(.constdata)
    .constdata                               0x08039190   Section      139  test_fc_subscription.o(.constdata)
    __FUNCTION__                             0x08039190   Data          35  test_fc_subscription.o(.constdata)
    __FUNCTION__                             0x080391b3   Data          32  test_fc_subscription.o(.constdata)
    __FUNCTION__                             0x080391d3   Data          24  test_fc_subscription.o(.constdata)
    __FUNCTION__                             0x080391eb   Data          48  test_fc_subscription.o(.constdata)
    .constdata                               0x0803921b   Section      449  test_payload_gimbal_emu.o(.constdata)
    s_jointAngleLimitMin                     0x0803921b   Data          12  test_payload_gimbal_emu.o(.constdata)
    s_jointAngleLimitMax                     0x08039227   Data          12  test_payload_gimbal_emu.o(.constdata)
    s_eulerAngleLimitMin                     0x08039233   Data          12  test_payload_gimbal_emu.o(.constdata)
    s_eulerAngleLimitMax                     0x0803923f   Data          12  test_payload_gimbal_emu.o(.constdata)
    s_speedLimit                             0x0803924b   Data          12  test_payload_gimbal_emu.o(.constdata)
    __FUNCTION__                             0x08039257   Data          27  test_payload_gimbal_emu.o(.constdata)
    __FUNCTION__                             0x08039272   Data          21  test_payload_gimbal_emu.o(.constdata)
    __FUNCTION__                             0x08039287   Data          21  test_payload_gimbal_emu.o(.constdata)
    __FUNCTION__                             0x0803929c   Data          16  test_payload_gimbal_emu.o(.constdata)
    __FUNCTION__                             0x080392ac   Data          15  test_payload_gimbal_emu.o(.constdata)
    __FUNCTION__                             0x080392bb   Data          23  test_payload_gimbal_emu.o(.constdata)
    __FUNCTION__                             0x080392d2   Data          20  test_payload_gimbal_emu.o(.constdata)
    __FUNCTION__                             0x080392e6   Data          17  test_payload_gimbal_emu.o(.constdata)
    __FUNCTION__                             0x080392f7   Data          14  test_payload_gimbal_emu.o(.constdata)
    __FUNCTION__                             0x08039305   Data          15  test_payload_gimbal_emu.o(.constdata)
    __FUNCTION__                             0x08039314   Data          26  test_payload_gimbal_emu.o(.constdata)
    __FUNCTION__                             0x0803932e   Data          30  test_payload_gimbal_emu.o(.constdata)
    __FUNCTION__                             0x0803934c   Data          32  test_payload_gimbal_emu.o(.constdata)
    __FUNCTION__                             0x0803936c   Data          23  test_payload_gimbal_emu.o(.constdata)
    __FUNCTION__                             0x08039383   Data           8  test_payload_gimbal_emu.o(.constdata)
    __FUNCTION__                             0x0803938b   Data           6  test_payload_gimbal_emu.o(.constdata)
    __FUNCTION__                             0x08039391   Data          14  test_payload_gimbal_emu.o(.constdata)
    __FUNCTION__                             0x0803939f   Data          32  test_payload_gimbal_emu.o(.constdata)
    __FUNCTION__                             0x080393bf   Data          29  test_payload_gimbal_emu.o(.constdata)
    .constdata                               0x080393dc   Section       56  test_positioning.o(.constdata)
    __FUNCTION__                             0x080393dc   Data          32  test_positioning.o(.constdata)
    __FUNCTION__                             0x080393fc   Data          24  test_positioning.o(.constdata)
    .constdata                               0x08039414   Section      124  test_time_sync.o(.constdata)
    __FUNCTION__                             0x08039414   Data          27  test_time_sync.o(.constdata)
    __FUNCTION__                             0x0803942f   Data          29  test_time_sync.o(.constdata)
    __FUNCTION__                             0x0803944c   Data          47  test_time_sync.o(.constdata)
    __FUNCTION__                             0x0803947b   Data          21  test_time_sync.o(.constdata)
    .constdata                               0x08039490   Section      106  test_power_management.o(.constdata)
    __FUNCTION__                             0x08039490   Data          33  test_power_management.o(.constdata)
    __FUNCTION__                             0x080394b1   Data          36  test_power_management.o(.constdata)
    __FUNCTION__                             0x080394d5   Data          37  test_power_management.o(.constdata)
    .constdata                               0x080394fa   Section    20977  file_binary_array_list_en.o(.constdata)
    icon_button1_png_fileBinaryArray         0x080394fa   Data        2137  file_binary_array_list_en.o(.constdata)
    icon_button2_png_fileBinaryArray         0x08039d53   Data        2114  file_binary_array_list_en.o(.constdata)
    icon_list_item1_png_fileBinaryArray      0x0803a595   Data        2556  file_binary_array_list_en.o(.constdata)
    icon_list_item2_png_fileBinaryArray      0x0803af91   Data        2578  file_binary_array_list_en.o(.constdata)
    icon_scale_png_fileBinaryArray           0x0803b9a3   Data        2440  file_binary_array_list_en.o(.constdata)
    icon_switch_select_png_fileBinaryArray   0x0803c32b   Data        2529  file_binary_array_list_en.o(.constdata)
    icon_switch_unselect_png_fileBinaryArray 0x0803cd0c   Data        2514  file_binary_array_list_en.o(.constdata)
    widget_config_json_fileBinaryArray       0x0803d6de   Data        4109  file_binary_array_list_en.o(.constdata)
    .constdata                               0x0803e6ec   Section      275  test_widget.o(.constdata)
    s_widgetHandlerList                      0x0803e6ec   Data         200  test_widget.o(.constdata)
    __FUNCTION__                             0x0803e7b4   Data          27  test_widget.o(.constdata)
    __FUNCTION__                             0x0803e7cf   Data          19  test_widget.o(.constdata)
    __FUNCTION__                             0x0803e7e2   Data          29  test_widget.o(.constdata)
    .constdata                               0x0803e800   Section      127  test_upgrade.o(.constdata)
    __FUNCTION__                             0x0803e800   Data          28  test_upgrade.o(.constdata)
    __FUNCTION__                             0x0803e840   Data          36  test_upgrade.o(.constdata)
    __FUNCTION__                             0x0803e864   Data          27  test_upgrade.o(.constdata)
    .constdata                               0x0803e87f   Section      130  test_upgrade_common_file_transfer.o(.constdata)
    __FUNCTION__                             0x0803e87f   Data          32  test_upgrade_common_file_transfer.o(.constdata)
    __FUNCTION__                             0x0803e89f   Data          35  test_upgrade_common_file_transfer.o(.constdata)
    __FUNCTION__                             0x0803e8c2   Data          33  test_upgrade_common_file_transfer.o(.constdata)
    __FUNCTION__                             0x0803e8e3   Data          30  test_upgrade_common_file_transfer.o(.constdata)
    .constdata                               0x0803e901   Section       30  test_upgrade_platform_opt.o(.constdata)
    __FUNCTION__                             0x0803e901   Data          30  test_upgrade_platform_opt.o(.constdata)
    .constdata                               0x0803e91f   Section       88  test_playload_ppk.o(.constdata)
    __FUNCTION__                             0x0803e91f   Data          24  test_playload_ppk.o(.constdata)
    __FUNCTION__                             0x0803e937   Data          24  test_playload_ppk.o(.constdata)
    __FUNCTION__                             0x0803e94f   Data          24  test_playload_ppk.o(.constdata)
    __FUNCTION__                             0x0803e967   Data          16  test_playload_ppk.o(.constdata)
    .constdata                               0x0803e977   Section       77  gdu_core.o(.constdata)
    __FUNCTION__                             0x0803e977   Data          13  gdu_core.o(.constdata)
    __FUNCTION__                             0x0803e984   Data          21  gdu_core.o(.constdata)
    __FUNCTION__                             0x0803e999   Data          20  gdu_core.o(.constdata)
    __FUNCTION__                             0x0803e9ad   Data          23  gdu_core.o(.constdata)
    .constdata                               0x0803e9c4   Section       42  gdu_gimbal.o(.constdata)
    __FUNCTION__                             0x0803e9c4   Data          27  gdu_gimbal.o(.constdata)
    __FUNCTION__                             0x0803e9df   Data          15  gdu_gimbal.o(.constdata)
    .constdata                               0x0803e9f0   Section       16  gdu_logger.o(.constdata)
    .constdata                               0x0803ea00   Section      306  gdu_payload_camera.o(.constdata)
    __FUNCTION__                             0x0803ea00   Data          22  gdu_payload_camera.o(.constdata)
    __FUNCTION__                             0x0803ea16   Data          34  gdu_payload_camera.o(.constdata)
    __FUNCTION__                             0x0803ea38   Data          44  gdu_payload_camera.o(.constdata)
    __FUNCTION__                             0x0803ea64   Data          33  gdu_payload_camera.o(.constdata)
    __FUNCTION__                             0x0803ea85   Data          39  gdu_payload_camera.o(.constdata)
    __FUNCTION__                             0x0803eaac   Data          39  gdu_payload_camera.o(.constdata)
    __FUNCTION__                             0x0803ead3   Data          35  gdu_payload_camera.o(.constdata)
    __FUNCTION__                             0x0803eaf6   Data          16  gdu_payload_camera.o(.constdata)
    __FUNCTION__                             0x0803eb06   Data          15  gdu_payload_camera.o(.constdata)
    __FUNCTION__                             0x0803eb15   Data          11  gdu_payload_camera.o(.constdata)
    __FUNCTION__                             0x0803eb20   Data          18  gdu_payload_camera.o(.constdata)
    .constdata                               0x0803eb32   Section      132  gdu_positioning.o(.constdata)
    __FUNCTION__                             0x0803eb32   Data          35  gdu_positioning.o(.constdata)
    __FUNCTION__                             0x0803eb55   Data          35  gdu_positioning.o(.constdata)
    __FUNCTION__                             0x0803eb78   Data          20  gdu_positioning.o(.constdata)
    __FUNCTION__                             0x0803eb8c   Data          42  gdu_positioning.o(.constdata)
    .constdata                               0x0803ebb6   Section       25  gdu_ppk.o(.constdata)
    __FUNCTION__                             0x0803ebb6   Data          25  gdu_ppk.o(.constdata)
    .constdata                               0x0803ebcf   Section       90  gdu_subscribeinfo.o(.constdata)
    __FUNCTION__                             0x0803ebcf   Data          13  gdu_subscribeinfo.o(.constdata)
    __FUNCTION__                             0x0803ebdc   Data          19  gdu_subscribeinfo.o(.constdata)
    __FUNCTION__                             0x0803ebef   Data          33  gdu_subscribeinfo.o(.constdata)
    __FUNCTION__                             0x0803ec10   Data          25  gdu_subscribeinfo.o(.constdata)
    .constdata                               0x0803ec29   Section      158  gdu_upgrade.o(.constdata)
    __FUNCTION__                             0x0803ec29   Data          22  gdu_upgrade.o(.constdata)
    __FUNCTION__                             0x0803ec3f   Data          23  gdu_upgrade.o(.constdata)
    __FUNCTION__                             0x0803ec56   Data          23  gdu_upgrade.o(.constdata)
    __FUNCTION__                             0x0803ec6d   Data          22  gdu_upgrade.o(.constdata)
    __FUNCTION__                             0x0803ec83   Data          24  gdu_upgrade.o(.constdata)
    __FUNCTION__                             0x0803ec9b   Data          16  gdu_upgrade.o(.constdata)
    __FUNCTION__                             0x0803ecab   Data          28  gdu_upgrade.o(.constdata)
    .constdata                               0x0803ecc7   Section       68  time_sync.o(.constdata)
    __FUNCTION__                             0x0803ecc7   Data          27  time_sync.o(.constdata)
    __FUNCTION__                             0x0803ece2   Data          24  time_sync.o(.constdata)
    __FUNCTION__                             0x0803ecfa   Data          17  time_sync.o(.constdata)
    .constdata                               0x0803ed0b   Section      150  basemsghandle.o(.constdata)
    __FUNCTION__                             0x0803ed0b   Data          25  basemsghandle.o(.constdata)
    __FUNCTION__                             0x0803ed24   Data          29  basemsghandle.o(.constdata)
    __FUNCTION__                             0x0803ed41   Data          24  basemsghandle.o(.constdata)
    __FUNCTION__                             0x0803ed59   Data          26  basemsghandle.o(.constdata)
    __FUNCTION__                             0x0803ed73   Data          23  basemsghandle.o(.constdata)
    __FUNCTION__                             0x0803ed8a   Data          23  basemsghandle.o(.constdata)
    .constdata                               0x0803eda1   Section       46  gdu_serial.o(.constdata)
    __FUNCTION__                             0x0803eda1   Data          15  gdu_serial.o(.constdata)
    __FUNCTION__                             0x0803edb0   Data          15  gdu_serial.o(.constdata)
    __FUNCTION__                             0x0803edbf   Data          16  gdu_serial.o(.constdata)
    .constdata                               0x0803edcf   Section       47  npc.o(.constdata)
    __FUNCTION__                             0x0803edcf   Data          18  npc.o(.constdata)
    __FUNCTION__                             0x0803ede1   Data          20  npc.o(.constdata)
    __FUNCTION__                             0x0803edf5   Data           9  npc.o(.constdata)
    .constdata                               0x0803edfe   Section       12  mktime.o(.constdata)
    monlen                                   0x0803edfe   Data          12  mktime.o(.constdata)
    .constdata                               0x0803ee0a   Section       12  localtime_i.o(.constdata)
    monlen                                   0x0803ee0a   Data          12  localtime_i.o(.constdata)
    .constdata                               0x0803ee16   Section      129  ctype_o.o(.constdata)
    .constdata                               0x0803ee98   Section        4  ctype_o.o(.constdata)
    table                                    0x0803ee98   Data           4  ctype_o.o(.constdata)
    .conststring                             0x0803ee9c   Section      725  application.o(.conststring)
    .conststring                             0x0803f174   Section       77  usbh_cdc.o(.conststring)
    .conststring                             0x0803f1c4   Section       78  usbh_core.o(.conststring)
    .conststring                             0x0803f214   Section      354  test_payload_cam_emu_base.o(.conststring)
    .conststring                             0x0803f378   Section      370  test_fc_subscription.o(.conststring)
    .conststring                             0x0803f4ec   Section      201  test_payload_gimbal_emu.o(.conststring)
    .conststring                             0x0803f5b8   Section       73  test_positioning.o(.conststring)
    .conststring                             0x0803f604   Section      299  test_time_sync.o(.conststring)
    .conststring                             0x0803f730   Section      167  file_binary_array_list_en.o(.conststring)
    .conststring                             0x0803f7d8   Section      206  test_widget.o(.conststring)
    .conststring                             0x0803f8a8   Section       66  test_upgrade.o(.conststring)
    .conststring                             0x0803f8ec   Section       65  test_upgrade_common_file_transfer.o(.conststring)
    .conststring                             0x0803f930   Section       30  gdu_logger.o(.conststring)
    .conststring                             0x0803f950   Section       66  gdu_payload_camera.o(.conststring)
    .conststring                             0x0803f994   Section       75  gdu_positioning.o(.conststring)
    .data                                    0x20000000   Section        4  application.o(.data)
    runIndicateTaskStep                      0x20000000   Data           4  application.o(.data)
    .data                                    0x20000004   Section        8  main.o(.data)
    startTask                                0x20000004   Data           4  main.o(.data)
    runIndicateTask                          0x20000008   Data           4  main.o(.data)
    .data                                    0x2000000c   Section       16  led.o(.data)
    .data                                    0x20000020   Section       12  pps.o(.data)
    s_ppsNewestTriggerLocalTimeMs            0x20000020   Data           8  pps.o(.data)
    counter                                  0x20000028   Data           4  pps.o(.data)
    .data                                    0x2000002c   Section        4  stm32f4xx_it.o(.data)
    .data                                    0x20000030   Section        4  system_stm32f4xx.o(.data)
    .data                                    0x20000034   Section       80  uart.o(.data)
    s_uart1ReadBufferState                   0x20000034   Data           8  uart.o(.data)
    s_uart1WriteBufferState                  0x2000003c   Data           8  uart.o(.data)
    s_uart1Mutex                             0x20000044   Data           4  uart.o(.data)
    s_uart2ReadBufferState                   0x20000048   Data           8  uart.o(.data)
    s_uart2WriteBufferState                  0x20000050   Data           8  uart.o(.data)
    s_uart2Mutex                             0x20000058   Data           4  uart.o(.data)
    s_uart3ReadBufferState                   0x2000005c   Data           8  uart.o(.data)
    s_uart3WriteBufferState                  0x20000064   Data           8  uart.o(.data)
    s_uart3Mutex                             0x2000006c   Data           4  uart.o(.data)
    s_uart6ReadBufferState                   0x20000070   Data           8  uart.o(.data)
    s_uart6WriteBufferState                  0x20000078   Data           8  uart.o(.data)
    s_uart6Mutex                             0x20000080   Data           4  uart.o(.data)
    .data                                    0x20000084   Section       40  usbh_cdc.o(.data)
    .data                                    0x200000ac   Section        9  stm32f4xx_hal.o(.data)
    .data                                    0x200000b8   Section       32  heap_4.o(.data)
    xStart                                   0x200000b8   Data           8  heap_4.o(.data)
    pxEnd                                    0x200000c0   Data           4  heap_4.o(.data)
    xFreeBytesRemaining                      0x200000c4   Data           4  heap_4.o(.data)
    xMinimumEverFreeBytesRemaining           0x200000c8   Data           4  heap_4.o(.data)
    xNumberOfSuccessfulAllocations           0x200000cc   Data           4  heap_4.o(.data)
    xNumberOfSuccessfulFrees                 0x200000d0   Data           4  heap_4.o(.data)
    xBlockAllocatedBit                       0x200000d4   Data           4  heap_4.o(.data)
    .data                                    0x200000d8   Section       12  port.o(.data)
    uxCriticalNesting                        0x200000d8   Data           4  port.o(.data)
    ucMaxSysCallPriority                     0x200000dc   Data           1  port.o(.data)
    ulMaxPRIGROUPValue                       0x200000e0   Data           4  port.o(.data)
    .data                                    0x200000e4   Section       60  tasks.o(.data)
    pxDelayedTaskList                        0x200000e8   Data           4  tasks.o(.data)
    pxOverflowDelayedTaskList                0x200000ec   Data           4  tasks.o(.data)
    uxDeletedTasksWaitingCleanUp             0x200000f0   Data           4  tasks.o(.data)
    uxCurrentNumberOfTasks                   0x200000f4   Data           4  tasks.o(.data)
    xTickCount                               0x200000f8   Data           4  tasks.o(.data)
    uxTopReadyPriority                       0x200000fc   Data           4  tasks.o(.data)
    xSchedulerRunning                        0x20000100   Data           4  tasks.o(.data)
    xPendedTicks                             0x20000104   Data           4  tasks.o(.data)
    xYieldPending                            0x20000108   Data           4  tasks.o(.data)
    xNumOfOverflows                          0x2000010c   Data           4  tasks.o(.data)
    uxTaskNumber                             0x20000110   Data           4  tasks.o(.data)
    xNextTaskUnblockTime                     0x20000114   Data           4  tasks.o(.data)
    xIdleTaskHandle                          0x20000118   Data           4  tasks.o(.data)
    uxSchedulerSuspended                     0x2000011c   Data           4  tasks.o(.data)
    .data                                    0x20000120   Section       96  test_payload_cam_emu_base.o(.data)
    s_isCamInited                            0x20000120   Data           1  test_payload_cam_emu_base.o(.data)
    s_digitalZoomHandler                     0x20000124   Data           8  test_payload_cam_emu_base.o(.data)
    s_userCameraThread                       0x2000012c   Data           4  test_payload_cam_emu_base.o(.data)
    s_cameraShootPhotoMode                   0x20000130   Data           1  test_payload_cam_emu_base.o(.data)
    s_cameraBurstCount                       0x20000131   Data           1  test_payload_cam_emu_base.o(.data)
    s_cameraPhotoTimeIntervalSettings        0x20000132   Data           4  test_payload_cam_emu_base.o(.data)
    s_commonMutex                            0x20000138   Data           4  test_payload_cam_emu_base.o(.data)
    s_cameraMeteringMode                     0x2000013c   Data           1  test_payload_cam_emu_base.o(.data)
    s_cameraSpotMeteringTarget               0x2000013d   Data           2  test_payload_cam_emu_base.o(.data)
    s_cameraFocusMode                        0x2000013f   Data           1  test_payload_cam_emu_base.o(.data)
    s_cameraFocusTarget                      0x20000140   Data           8  test_payload_cam_emu_base.o(.data)
    s_cameraFocusRingValue                   0x20000148   Data           4  test_payload_cam_emu_base.o(.data)
    s_cameraFocusAssistantSettings           0x2000014c   Data           2  test_payload_cam_emu_base.o(.data)
    s_cameraZoomDirection                    0x2000014e   Data           1  test_payload_cam_emu_base.o(.data)
    s_cameraZoomSpeed                        0x2000014f   Data           1  test_payload_cam_emu_base.o(.data)
    s_cameraOpticalZoomFocalLength           0x20000150   Data           4  test_payload_cam_emu_base.o(.data)
    s_cameraDigitalZoomFactor                0x20000154   Data           4  test_payload_cam_emu_base.o(.data)
    s_isStartContinuousOpticalZoom           0x20000158   Data           1  test_payload_cam_emu_base.o(.data)
    s_isOpticalZoomReachLimit                0x20000159   Data           1  test_payload_cam_emu_base.o(.data)
    s_zoomMutex                              0x2000015c   Data           4  test_payload_cam_emu_base.o(.data)
    s_isTapZoomEnabled                       0x20000160   Data           1  test_payload_cam_emu_base.o(.data)
    s_cameraTapZoomState                     0x20000161   Data           2  test_payload_cam_emu_base.o(.data)
    s_tapZoomMultiplier                      0x20000163   Data           1  test_payload_cam_emu_base.o(.data)
    s_tapZoomStartTime                       0x20000164   Data           4  test_payload_cam_emu_base.o(.data)
    s_isStartTapZoom                         0x20000168   Data           1  test_payload_cam_emu_base.o(.data)
    s_isTapZooming                           0x20000169   Data           1  test_payload_cam_emu_base.o(.data)
    s_tapZoomNewestTargetHybridFocalLength   0x2000016c   Data           4  test_payload_cam_emu_base.o(.data)
    s_tapZoomMutex                           0x20000170   Data           4  test_payload_cam_emu_base.o(.data)
    s_cameraVideoStreamType                  0x20000174   Data           1  test_payload_cam_emu_base.o(.data)
    ShootPhoto                               0x20000176   Data           2  test_payload_cam_emu_base.o(.data)
    photoCnt                                 0x20000178   Data           4  test_payload_cam_emu_base.o(.data)
    step                                     0x2000017c   Data           4  test_payload_cam_emu_base.o(.data)
    .data                                    0x20000180   Section        6  test_fc_subscription.o(.data)
    s_userFcSubscriptionThread               0x20000180   Data           4  test_fc_subscription.o(.data)
    s_userFcSubscriptionDataShow             0x20000184   Data           1  test_fc_subscription.o(.data)
    s_totalSatelliteNumberUsed               0x20000185   Data           1  test_fc_subscription.o(.data)
    .data                                    0x20000188   Section       36  test_payload_gimbal_emu.o(.data)
    s_userGimbalThread                       0x20000188   Data           4  test_payload_gimbal_emu.o(.data)
    s_rotatingFlag                           0x2000018c   Data           1  test_payload_gimbal_emu.o(.data)
    s_commonMutex                            0x20000190   Data           4  test_payload_gimbal_emu.o(.data)
    s_calibrationState                       0x20000194   Data           4  test_payload_gimbal_emu.o(.data)
    s_controlType                            0x20000198   Data           1  test_payload_gimbal_emu.o(.data)
    s_calibrationStartTime                   0x2000019c   Data           4  test_payload_gimbal_emu.o(.data)
    s_attitudeMutex                          0x200001a0   Data           4  test_payload_gimbal_emu.o(.data)
    s_calibrationMutex                       0x200001a4   Data           4  test_payload_gimbal_emu.o(.data)
    step                                     0x200001a8   Data           4  test_payload_gimbal_emu.o(.data)
    .data                                    0x200001ac   Section        8  test_positioning.o(.data)
    s_userPositioningThread                  0x200001ac   Data           4  test_positioning.o(.data)
    s_eventIndex                             0x200001b0   Data           4  test_positioning.o(.data)
    .data                                    0x200001b4   Section       12  test_time_sync.o(.data)
    s_timeSyncHandler                        0x200001b4   Data           8  test_time_sync.o(.data)
    s_timeSyncThread                         0x200001bc   Data           4  test_time_sync.o(.data)
    .data                                    0x200001c0   Section        8  test_power_management.o(.data)
    s_applyHighPowerHandler                  0x200001c0   Data           8  test_power_management.o(.data)
    .data                                    0x200001c8   Section      104  file_binary_array_list_en.o(.data)
    s_EnWidgetFileBinaryArrayList            0x200001c8   Data          96  file_binary_array_list_en.o(.data)
    .data                                    0x20000230   Section       32  test_widget.o(.data)
    s_widgetTestThread                       0x20000230   Data           4  test_widget.o(.data)
    s_isWidgetFileDirPathConfigured          0x20000234   Data           1  test_widget.o(.data)
    s_widgetTypeNameArray                    0x20000238   Data          24  test_widget.o(.data)
    .data                                    0x20000250   Section       18  test_upgrade.o(.data)
    s_upgradeState                           0x20000250   Data           2  test_upgrade.o(.data)
    s_upgradeStateMutex                      0x20000254   Data           4  test_upgrade.o(.data)
    s_upgradeProcessThread                   0x20000258   Data           4  test_upgrade.o(.data)
    s_enterUpgradeModeProcessThread          0x2000025c   Data           4  test_upgrade.o(.data)
    s_isNeedEnterUpgradeModeProcess          0x20000260   Data           1  test_upgrade.o(.data)
    s_isNeedReplaceProgramBeforeReboot       0x20000261   Data           1  test_upgrade.o(.data)
    .data                                    0x20000264   Section        4  test_upgrade_common_file_transfer.o(.data)
    s_alreadyTransferFileSize                0x20000264   Data           4  test_upgrade_common_file_transfer.o(.data)
    .data                                    0x20000268   Section        8  test_playload_ppk.o(.data)
    osalHandler                              0x20000268   Data           4  test_playload_ppk.o(.data)
    s_PPKTestThread                          0x2000026c   Data           4  test_playload_ppk.o(.data)
    .data                                    0x20000270   Section       21  gdu_core.o(.data)
    s_GduCoreThread                          0x20000270   Data           4  gdu_core.o(.data)
    socketHandle                             0x20000274   Data           4  gdu_core.o(.data)
    NPCUartLink                              0x20000278   Data           4  gdu_core.o(.data)
    funList                                  0x20000280   Data           4  gdu_core.o(.data)
    seq                                      0x20000284   Data           1  gdu_core.o(.data)
    .data                                    0x20000288   Section      132  gdu_gimbal.o(.data)
    osalHandler                              0x20000288   Data           4  gdu_gimbal.o(.data)
    controlPermission                        0x200002fc   Data           1  gdu_gimbal.o(.data)
    lastPitch                                0x20000300   Data           4  gdu_gimbal.o(.data)
    lastYaw                                  0x20000304   Data           4  gdu_gimbal.o(.data)
    lastJoystickRawPitch                     0x20000308   Data           1  gdu_gimbal.o(.data)
    lastJoystickRawYaw                       0x20000309   Data           1  gdu_gimbal.o(.data)
    lastAppkRawPitch                         0x2000030a   Data           1  gdu_gimbal.o(.data)
    lastAppRawYaw                            0x2000030b   Data           1  gdu_gimbal.o(.data)
    .data                                    0x2000030c   Section        8  gdu_logger.o(.data)
    .data                                    0x20000314   Section      305  gdu_payload_camera.o(.data)
    SysInfo                                  0x20000316   Data           6  gdu_payload_camera.o(.data)
    CameraCommonHandler                      0x2000031c   Data           4  gdu_payload_camera.o(.data)
    CameraExposureMeteringHandler            0x20000320   Data           4  gdu_payload_camera.o(.data)
    CameraFocusHandler                       0x20000324   Data           4  gdu_payload_camera.o(.data)
    CameraDigitalZoomHandler                 0x20000328   Data           4  gdu_payload_camera.o(.data)
    CameraOpticalZoomHandler                 0x2000032c   Data           4  gdu_payload_camera.o(.data)
    CameraTapZoomHandler                     0x20000330   Data           4  gdu_payload_camera.o(.data)
    osalHandler                              0x20000334   Data           4  gdu_payload_camera.o(.data)
    socketHandler                            0x20000338   Data           4  gdu_payload_camera.o(.data)
    socketId                                 0x2000033c   Data           4  gdu_payload_camera.o(.data)
    camera_mode                              0x20000340   Data           2  gdu_payload_camera.o(.data)
    pictures_param                           0x20000342   Data           4  gdu_payload_camera.o(.data)
    CameraPhotoTimeIntervalSet               0x20000346   Data           4  gdu_payload_camera.o(.data)
    opticalZoomFocusPar                      0x2000034a   Data           2  gdu_payload_camera.o(.data)
    s_baseCameraThread                       0x2000034c   Data           4  gdu_payload_camera.o(.data)
    cameraFunList                            0x20000350   Data         242  gdu_payload_camera.o(.data)
    get_param                                0x20000442   Data           2  gdu_payload_camera.o(.data)
    lastVideoStatus                          0x20000444   Data           1  gdu_payload_camera.o(.data)
    .data                                    0x20000448   Section       32  gdu_platform.o(.data)
    .data                                    0x20000468   Section      107  gdu_positioning.o(.data)
    SysInfo                                  0x20000468   Data           6  gdu_positioning.o(.data)
    s_basePositioningThread                  0x20000470   Data           4  gdu_positioning.o(.data)
    g_newestIndex                            0x20000474   Data           4  gdu_positioning.o(.data)
    g_oldestIndex                            0x20000478   Data           4  gdu_positioning.o(.data)
    posUpdateFlag                            0x2000047c   Data           4  gdu_positioning.o(.data)
    openPosInfoSuccess                       0x20000480   Data           4  gdu_positioning.o(.data)
    osalHandler                              0x20000484   Data           4  gdu_positioning.o(.data)
    isGetPos                                 0x20000488   Data           4  gdu_positioning.o(.data)
    positioningFlag                          0x2000048c   Data           4  gdu_positioning.o(.data)
    timeSyncFlag                             0x20000490   Data           4  gdu_positioning.o(.data)
    count                                    0x20000494   Data           4  gdu_positioning.o(.data)
    count                                    0x20000498   Data           4  gdu_positioning.o(.data)
    lastSeq                                  0x2000049c   Data           4  gdu_positioning.o(.data)
    lostCnt                                  0x200004a0   Data           4  gdu_positioning.o(.data)
    totalCnt                                 0x200004a4   Data           4  gdu_positioning.o(.data)
    currentTimeMsA                           0x200004a8   Data           4  gdu_positioning.o(.data)
    currentTimeMsB                           0x200004ac   Data           4  gdu_positioning.o(.data)
    i                                        0x200004b0   Data           4  gdu_positioning.o(.data)
    counter                                  0x200004b8   Data           8  gdu_positioning.o(.data)
    timestamp                                0x200004c0   Data           8  gdu_positioning.o(.data)
    newestIndex                              0x200004c8   Data           4  gdu_positioning.o(.data)
    oldestIndex                              0x200004cc   Data           4  gdu_positioning.o(.data)
    seq                                      0x200004d0   Data           1  gdu_positioning.o(.data)
    seq                                      0x200004d1   Data           1  gdu_positioning.o(.data)
    i                                        0x200004d2   Data           1  gdu_positioning.o(.data)
    .data                                    0x200004d4   Section        4  gdu_power_management.o(.data)
    GduWriteHighPowerApplyPin                0x200004d4   Data           4  gdu_power_management.o(.data)
    .data                                    0x200004d8   Section       29  gdu_ppk.o(.data)
    PPKHandler                               0x200004d8   Data           4  gdu_ppk.o(.data)
    PPKMutexHandle                           0x200004dc   Data           4  gdu_ppk.o(.data)
    PPKTaskHandle                            0x200004e0   Data           4  gdu_ppk.o(.data)
    osalHandler                              0x200004e4   Data           4  gdu_ppk.o(.data)
    ppk_swtich_ack                           0x200004e8   Data           1  gdu_ppk.o(.data)
    RawDataCount                             0x200004ec   Data           4  gdu_ppk.o(.data)
    RawDataCount_temp                        0x200004f0   Data           4  gdu_ppk.o(.data)
    lastSeq                                  0x200004f4   Data           1  gdu_ppk.o(.data)
    .data                                    0x200004f8   Section      152  gdu_subscribeinfo.o(.data)
    basicState1Subscribe_Result              0x200004f8   Data           1  gdu_subscribeinfo.o(.data)
    basicState2Subscribe_Result              0x200004f9   Data           1  gdu_subscribeinfo.o(.data)
    attitudeinfoSubscribe_Result             0x200004fa   Data           1  gdu_subscribeinfo.o(.data)
    fpvSubscribe_Result                      0x200004fb   Data           1  gdu_subscribeinfo.o(.data)
    speedinfoSubscribe_Result                0x200004fc   Data           1  gdu_subscribeinfo.o(.data)
    gnssStarNumberSubscribe_Result           0x200004fd   Data           1  gdu_subscribeinfo.o(.data)
    batterySubscribe_Result                  0x200004fe   Data           1  gdu_subscribeinfo.o(.data)
    positionSolutionProperty                 0x200004ff   Data           1  gdu_subscribeinfo.o(.data)
    s_sbuscribeThread                        0x20000500   Data           4  gdu_subscribeinfo.o(.data)
    cnt1                                     0x20000504   Data           4  gdu_subscribeinfo.o(.data)
    cnt2                                     0x20000508   Data           4  gdu_subscribeinfo.o(.data)
    cnt3                                     0x2000050c   Data           4  gdu_subscribeinfo.o(.data)
    cnt4                                     0x20000510   Data           4  gdu_subscribeinfo.o(.data)
    cnt5                                     0x20000514   Data           4  gdu_subscribeinfo.o(.data)
    cnt6                                     0x20000518   Data           4  gdu_subscribeinfo.o(.data)
    cnt7                                     0x2000051c   Data           4  gdu_subscribeinfo.o(.data)
    cntErr                                   0x20000520   Data           4  gdu_subscribeinfo.o(.data)
    revState1Flag                            0x20000524   Data           4  gdu_subscribeinfo.o(.data)
    timestamp                                0x20000530   Data           8  gdu_subscribeinfo.o(.data)
    timetz_minutes_westZone                  0x20000538   Data           4  gdu_subscribeinfo.o(.data)
    tz_dsttime                               0x2000053c   Data           4  gdu_subscribeinfo.o(.data)
    subscribeFunList                         0x20000540   Data          64  gdu_subscribeinfo.o(.data)
    i                                        0x20000580   Data           4  gdu_subscribeinfo.o(.data)
    j                                        0x20000584   Data           4  gdu_subscribeinfo.o(.data)
    k                                        0x20000588   Data           4  gdu_subscribeinfo.o(.data)
    index                                    0x2000058c   Data           4  gdu_subscribeinfo.o(.data)
    .data                                    0x20000590   Section       52  gdu_upgrade.o(.data)
    s_baseUpgradeThread                      0x20000590   Data           4  gdu_upgrade.o(.data)
    osalHandler                              0x20000594   Data           4  gdu_upgrade.o(.data)
    SysInfo                                  0x20000598   Data           6  gdu_upgrade.o(.data)
    sessionId                                0x200005a0   Data           4  gdu_upgrade.o(.data)
    fileSize                                 0x200005a4   Data           4  gdu_upgrade.o(.data)
    totalPackNum                             0x200005a8   Data           4  gdu_upgrade.o(.data)
    seq                                      0x200005ac   Data           1  gdu_upgrade.o(.data)
    step                                     0x200005ad   Data           1  gdu_upgrade.o(.data)
    updataFlag                               0x200005ae   Data           1  gdu_upgrade.o(.data)
    fileFlag                                 0x200005af   Data           1  gdu_upgrade.o(.data)
    upgradeProcess                           0x200005b0   Data           1  gdu_upgrade.o(.data)
    packCnt                                  0x200005b8   Data           4  gdu_upgrade.o(.data)
    cnt                                      0x200005bc   Data           4  gdu_upgrade.o(.data)
    cnt                                      0x200005c0   Data           4  gdu_upgrade.o(.data)
    .data                                    0x200005c4   Section       71  gdu_widget.o(.data)
    osalHandler                              0x200005c4   Data           4  gdu_widget.o(.data)
    GduWidgetTaskHandle                      0x200005c8   Data           4  gdu_widget.o(.data)
    wigetSemaphore                           0x200005cc   Data           4  gdu_widget.o(.data)
    SysInfo                                  0x200005d0   Data           6  gdu_widget.o(.data)
    GdufileBinaryArrayList                   0x200005d8   Data           4  gdu_widget.o(.data)
    GduWidgetHandlerListItem                 0x200005dc   Data           4  gdu_widget.o(.data)
    BinaryArrayCount                         0x200005e0   Data           2  gdu_widget.o(.data)
    ItemCount                                0x200005e4   Data           4  gdu_widget.o(.data)
    fd                                       0x200005e8   Data           1  gdu_widget.o(.data)
    widgetFunList                            0x200005e9   Data          33  gdu_widget.o(.data)
    resendType                               0x2000060a   Data           1  gdu_widget.o(.data)
    .data                                    0x20000610   Section       68  time_sync.o(.data)
    utcTime                                  0x20000610   Data           8  time_sync.o(.data)
    ppsTrigTime                              0x20000618   Data           8  time_sync.o(.data)
    osalHandler                              0x20000620   Data           4  time_sync.o(.data)
    s_timeSyncThread                         0x20000628   Data           4  time_sync.o(.data)
    ppsTrigged                               0x2000062c   Data           4  time_sync.o(.data)
    lastCurrentTimeMs                        0x20000638   Data           4  time_sync.o(.data)
    count                                    0x2000063c   Data           4  time_sync.o(.data)
    lastSeq                                  0x20000640   Data           4  time_sync.o(.data)
    lostCnt                                  0x20000644   Data           4  time_sync.o(.data)
    isFirst                                  0x20000648   Data           4  time_sync.o(.data)
    isFirst                                  0x2000064c   Data           4  time_sync.o(.data)
    counter                                  0x20000650   Data           4  time_sync.o(.data)
    .data                                    0x20000654   Section       50  basemsghandle.o(.data)
    s_baseMsgThread                          0x20000654   Data           4  basemsghandle.o(.data)
    osalHandler                              0x20000658   Data           4  basemsghandle.o(.data)
    SysInfo                                  0x2000065c   Data           6  basemsghandle.o(.data)
    seq                                      0x20000662   Data           1  basemsghandle.o(.data)
    baseMsgFunList                           0x20000666   Data          32  basemsghandle.o(.data)
    .data                                    0x20000688   Section        4  gdu_serial.o(.data)
    UartHandle_Data                          0x20000688   Data           4  gdu_serial.o(.data)
    .data                                    0x2000068c   Section       28  npc.o(.data)
    s_npcRecvThread                          0x20000690   Data           4  npc.o(.data)
    s_npcRecvProThread                       0x20000694   Data           4  npc.o(.data)
    s_npcSendThread                          0x20000698   Data           4  npc.o(.data)
    s_npcHeartbeatThread                     0x2000069c   Data           4  npc.o(.data)
    commList                                 0x200006a0   Data           4  npc.o(.data)
    commCount                                0x200006a4   Data           2  npc.o(.data)
    .data                                    0x200006a8   Section        4  stdout.o(.data)
    .data                                    0x200006ac   Section        4  mvars.o(.data)
    .data                                    0x200006b0   Section        4  mvars.o(.data)
    .data                                    0x200006b4   Section        4  errno.o(.data)
    _errno                                   0x200006b4   Data           4  errno.o(.data)
    .bss                                     0x200006b8   Section      844  stm32f4xx_it.o(.bss)
    .bss                                     0x20000a04   Section    14704  uart.o(.bss)
    s_uart1ReadRingBuffer                    0x20000a04   Data          12  uart.o(.bss)
    s_uart1WriteRingBuffer                   0x20000a10   Data          12  uart.o(.bss)
    s_uart1ReadBuf                           0x20000a1c   Data        1024  uart.o(.bss)
    s_uart1WriteBuf                          0x20000e1c   Data        4096  uart.o(.bss)
    s_uart1Handle                            0x20001e1c   Data          68  uart.o(.bss)
    s_uart2ReadRingBuffer                    0x20001e60   Data          12  uart.o(.bss)
    s_uart2WriteRingBuffer                   0x20001e6c   Data          12  uart.o(.bss)
    s_uart2ReadBuf                           0x20001e78   Data        2048  uart.o(.bss)
    s_uart2WriteBuf                          0x20002678   Data        2048  uart.o(.bss)
    s_uart2Handle                            0x20002e78   Data          68  uart.o(.bss)
    s_uart3ReadRingBuffer                    0x20002ebc   Data          12  uart.o(.bss)
    s_uart3WriteRingBuffer                   0x20002ec8   Data          12  uart.o(.bss)
    s_uart3ReadBuf                           0x20002ed4   Data        2048  uart.o(.bss)
    s_uart3WriteBuf                          0x200036d4   Data        1024  uart.o(.bss)
    s_uart3Handle                            0x20003ad4   Data          68  uart.o(.bss)
    s_uart6ReadRingBuffer                    0x20003b18   Data          12  uart.o(.bss)
    s_uart6WriteRingBuffer                   0x20003b24   Data          12  uart.o(.bss)
    s_uart6ReadBuf                           0x20003b30   Data        1024  uart.o(.bss)
    s_uart6WriteBuf                          0x20003f30   Data        1024  uart.o(.bss)
    s_uart6Handle                            0x20004330   Data          68  uart.o(.bss)
    .bss                                     0x20004374   Section     1024  usbh_cdc.o(.bss)
    cdcBuff                                  0x20004374   Data        1024  usbh_cdc.o(.bss)
    .bss                                     0x20004774   Section       68  upgrade_platform_opt_stm32.o(.bss)
    s_upgradeFileInfo                        0x20004774   Data          68  upgrade_platform_opt_stm32.o(.bss)
    .bss                                     0x200047b8   Section       32  stm32f4xx_hal_flash.o(.bss)
    .bss                                     0x200047d8   Section    75000  heap_4.o(.bss)
    ucHeap                                   0x200047d8   Data       75000  heap_4.o(.bss)
    .bss                                     0x20016cd0   Section       64  queue.o(.bss)
    .bss                                     0x20016d10   Section      240  tasks.o(.bss)
    pxReadyTasksLists                        0x20016d10   Data         140  tasks.o(.bss)
    xDelayedTaskList1                        0x20016d9c   Data          20  tasks.o(.bss)
    xDelayedTaskList2                        0x20016db0   Data          20  tasks.o(.bss)
    xPendingReadyList                        0x20016dc4   Data          20  tasks.o(.bss)
    xTasksWaitingTermination                 0x20016dd8   Data          20  tasks.o(.bss)
    xSuspendedTaskList                       0x20016dec   Data          20  tasks.o(.bss)
    .bss                                     0x20016e00   Section      234  test_payload_cam_emu_base.o(.bss)
    s_commonHandler                          0x20016e00   Data          60  test_payload_cam_emu_base.o(.bss)
    s_exposureMeteringHandler                0x20016e3c   Data          16  test_payload_cam_emu_base.o(.bss)
    s_focusHandler                           0x20016e4c   Data          36  test_payload_cam_emu_base.o(.bss)
    s_opticalZoomHandler                     0x20016e70   Data          24  test_payload_cam_emu_base.o(.bss)
    s_tapZoomHandler                         0x20016e88   Data          24  test_payload_cam_emu_base.o(.bss)
    s_cameraState                            0x20016ea0   Data          14  test_payload_cam_emu_base.o(.bss)
    s_cameraSDCardState                      0x20016eb0   Data          24  test_payload_cam_emu_base.o(.bss)
    s_tapZoomNewestGimbalRotationArgument    0x20016ec8   Data          34  test_payload_cam_emu_base.o(.bss)
    .bss                                     0x20016eec   Section      152  test_payload_gimbal_emu.o(.bss)
    s_commonHandler                          0x20016eec   Data          56  test_payload_gimbal_emu.o(.bss)
    s_systemState                            0x20016f24   Data          21  test_payload_gimbal_emu.o(.bss)
    s_attitudeInformation                    0x20016f39   Data          15  test_payload_gimbal_emu.o(.bss)
    s_attitudeHighPrecision                  0x20016f48   Data          12  test_payload_gimbal_emu.o(.bss)
    s_targetAttitude                         0x20016f54   Data          12  test_payload_gimbal_emu.o(.bss)
    s_speed                                  0x20016f60   Data          12  test_payload_gimbal_emu.o(.bss)
    s_aircraftAttitude                       0x20016f6c   Data          12  test_payload_gimbal_emu.o(.bss)
    s_lastAircraftAttitude                   0x20016f78   Data          12  test_payload_gimbal_emu.o(.bss)
    .bss                                     0x20016f84   Section      360  test_widget.o(.bss)
    s_widgetFileDirPath                      0x20016f84   Data         320  test_widget.o(.bss)
    s_widgetValueList                        0x200170c4   Data          40  test_widget.o(.bss)
    .bss                                     0x200170ec   Section       68  test_upgrade_common_file_transfer.o(.bss)
    s_upgradeFileInfo                        0x200170ec   Data          68  test_upgrade_common_file_transfer.o(.bss)
    .bss                                     0x20017130   Section       40  test_upgrade_platform_opt.o(.bss)
    s_upgradePlatformOpt                     0x20017130   Data          40  test_upgrade_platform_opt.o(.bss)
    .bss                                     0x20017158   Section       12  test_playload_ppk.o(.bss)
    .bss                                     0x20017164   Section       30  gdu_core.o(.bss)
    .bss                                     0x20017184   Section       20  gdu_gimbal.o(.bss)
    .bss                                     0x20017198   Section     1024  gdu_logger.o(.bss)
    .bss                                     0x20017598   Section      740  gdu_payload_camera.o(.bss)
    GlinkCamSendStatus                       0x20017598   Data          20  gdu_payload_camera.o(.bss)
    GlinkCamMsgSendBuf                       0x200175ac   Data         276  gdu_payload_camera.o(.bss)
    status                                   0x200176c0   Data          20  gdu_payload_camera.o(.bss)
    msg_ack                                  0x200176d4   Data         276  gdu_payload_camera.o(.bss)
    CameraSystemState                        0x200177e8   Data          14  gdu_payload_camera.o(.bss)
    CameraSDCardState                        0x200177f8   Data          24  gdu_payload_camera.o(.bss)
    photo                                    0x20017810   Data          54  gdu_payload_camera.o(.bss)
    video                                    0x20017846   Data          54  gdu_payload_camera.o(.bss)
    .bss                                     0x20017880   Section    15018  gdu_positioning.o(.bss)
    msg_ack                                  0x20017880   Data         276  gdu_positioning.o(.bss)
    status                                   0x20017994   Data          20  gdu_positioning.o(.bss)
    positioningInfo                          0x20017a80   Data       14400  gdu_positioning.o(.bss)
    .bss                                     0x2001b32a   Section     2056  gdu_ppk.o(.bss)
    PPKQueueMemCache                         0x2001b32a   Data        2056  gdu_ppk.o(.bss)
    .bss                                     0x2001bb32   Section     3245  gdu_subscribeinfo.o(.bss)
    posAndTime                               0x2001bc77   Data        2520  gdu_subscribeinfo.o(.bss)
    payload                                  0x2001c7cf   Data          16  gdu_subscribeinfo.o(.bss)
    .bss                                     0x2001c7e0   Section      528  gdu_upgrade.o(.bss)
    status                                   0x2001c804   Data          20  gdu_upgrade.o(.bss)
    msg_ack                                  0x2001c818   Data         276  gdu_upgrade.o(.bss)
    filePath                                 0x2001c92c   Data         128  gdu_upgrade.o(.bss)
    .bss                                     0x2001c9f0   Section      444  gdu_widget.o(.bss)
    status                                   0x2001c9f0   Data          20  gdu_widget.o(.bss)
    msg_ack                                  0x2001ca04   Data         276  gdu_widget.o(.bss)
    update_custom_list                       0x2001cb18   Data         128  gdu_widget.o(.bss)
    widgetFile_CRC                           0x2001cb98   Data          20  gdu_widget.o(.bss)
    .bss                                     0x2001cbac   Section      316  basemsghandle.o(.bss)
    status                                   0x2001cbac   Data          20  basemsghandle.o(.bss)
    msg_ack                                  0x2001cbc0   Data         276  basemsghandle.o(.bss)
    .bss                                     0x2001cce8   Section       44  localtime_w.o(.bss)
    _tms                                     0x2001cce8   Data          44  localtime_w.o(.bss)
    HEAP                                     0x2001cd18   Section      512  startup_stm32f407xx.o(HEAP)
    STACK                                    0x2001cf18   Section     1024  startup_stm32f407xx.o(STACK)

    Global Symbols

    Symbol Name                              Value     Ov Type        Size  Object(Section)

    BuildAttributes$$THM_ISAv4$E$P$D$K$B$S$7EM$VFPi3$EXTD16$VFPS$VFMA$PE$A:L22UL41UL21$X:L11$S22US41US21$IEEE1$IW$USESV6$~STKCKD$USESV7$~SHL$OTIME$ROPI$IEEEX$EBA8$MICROLIB$REQ8$PRES8$EABIv2 0x00000000   Number         0  anon$$obj.o ABSOLUTE
    __ARM_use_no_argv                        0x00000000   Number         0  main.o ABSOLUTE
    _printf_a                                0x00000000   Number         0  stubs.o ABSOLUTE
    _printf_c                                0x00000000   Number         0  stubs.o ABSOLUTE
    _printf_charcount                        0x00000000   Number         0  stubs.o ABSOLUTE
    _printf_d                                0x00000000   Number         0  stubs.o ABSOLUTE
    _printf_e                                0x00000000   Number         0  stubs.o ABSOLUTE
    _printf_f                                0x00000000   Number         0  stubs.o ABSOLUTE
    _printf_flags                            0x00000000   Number         0  stubs.o ABSOLUTE
    _printf_fp_dec                           0x00000000   Number         0  stubs.o ABSOLUTE
    _printf_fp_hex                           0x00000000   Number         0  stubs.o ABSOLUTE
    _printf_g                                0x00000000   Number         0  stubs.o ABSOLUTE
    _printf_i                                0x00000000   Number         0  stubs.o ABSOLUTE
    _printf_int_dec                          0x00000000   Number         0  stubs.o ABSOLUTE
    _printf_l                                0x00000000   Number         0  stubs.o ABSOLUTE
    _printf_lc                               0x00000000   Number         0  stubs.o ABSOLUTE
    _printf_ll                               0x00000000   Number         0  stubs.o ABSOLUTE
    _printf_lld                              0x00000000   Number         0  stubs.o ABSOLUTE
    _printf_lli                              0x00000000   Number         0  stubs.o ABSOLUTE
    _printf_llo                              0x00000000   Number         0  stubs.o ABSOLUTE
    _printf_llu                              0x00000000   Number         0  stubs.o ABSOLUTE
    _printf_llx                              0x00000000   Number         0  stubs.o ABSOLUTE
    _printf_longlong_dec                     0x00000000   Number         0  stubs.o ABSOLUTE
    _printf_longlong_hex                     0x00000000   Number         0  stubs.o ABSOLUTE
    _printf_longlong_oct                     0x00000000   Number         0  stubs.o ABSOLUTE
    _printf_ls                               0x00000000   Number         0  stubs.o ABSOLUTE
    _printf_mbtowc                           0x00000000   Number         0  stubs.o ABSOLUTE
    _printf_n                                0x00000000   Number         0  stubs.o ABSOLUTE
    _printf_o                                0x00000000   Number         0  stubs.o ABSOLUTE
    _printf_p                                0x00000000   Number         0  stubs.o ABSOLUTE
    _printf_percent                          0x00000000   Number         0  stubs.o ABSOLUTE
    _printf_pre_padding                      0x00000000   Number         0  stubs.o ABSOLUTE
    _printf_return_value                     0x00000000   Number         0  stubs.o ABSOLUTE
    _printf_s                                0x00000000   Number         0  stubs.o ABSOLUTE
    _printf_sizespec                         0x00000000   Number         0  stubs.o ABSOLUTE
    _printf_str                              0x00000000   Number         0  stubs.o ABSOLUTE
    _printf_truncate_signed                  0x00000000   Number         0  stubs.o ABSOLUTE
    _printf_truncate_unsigned                0x00000000   Number         0  stubs.o ABSOLUTE
    _printf_u                                0x00000000   Number         0  stubs.o ABSOLUTE
    _printf_wc                               0x00000000   Number         0  stubs.o ABSOLUTE
    _printf_wctomb                           0x00000000   Number         0  stubs.o ABSOLUTE
    _printf_widthprec                        0x00000000   Number         0  stubs.o ABSOLUTE
    _printf_x                                0x00000000   Number         0  stubs.o ABSOLUTE
    __cpp_initialize__aeabi_                  - Undefined Weak Reference
    __cxa_finalize                            - Undefined Weak Reference
    _clock_init                               - Undefined Weak Reference
    _microlib_exit                            - Undefined Weak Reference
    __Vectors_Size                           0x00000188   Number         0  startup_stm32f407xx.o ABSOLUTE
    __Vectors                                0x08010000   Data           4  startup_stm32f407xx.o(RESET)
    __Vectors_End                            0x08010188   Data           0  startup_stm32f407xx.o(RESET)
    __main                                   0x08010189   Thumb Code     0  entry.o(.ARM.Collect$$$$00000000)
    _main_stk                                0x08010189   Thumb Code     0  entry2.o(.ARM.Collect$$$$00000001)
    _main_scatterload                        0x0801018d   Thumb Code     0  entry5.o(.ARM.Collect$$$$00000004)
    __main_after_scatterload                 0x08010191   Thumb Code     0  entry5.o(.ARM.Collect$$$$00000004)
    _main_clock                              0x08010191   Thumb Code     0  entry7b.o(.ARM.Collect$$$$00000008)
    _main_cpp_init                           0x08010191   Thumb Code     0  entry8b.o(.ARM.Collect$$$$0000000A)
    _main_init                               0x08010191   Thumb Code     0  entry9a.o(.ARM.Collect$$$$0000000B)
    __rt_final_cpp                           0x08010199   Thumb Code     0  entry10a.o(.ARM.Collect$$$$0000000D)
    __rt_final_exit                          0x08010199   Thumb Code     0  entry11a.o(.ARM.Collect$$$$0000000F)
    SVC_Handler                              0x0801019d   Thumb Code    28  port.o(.emb_text)
    __asm___6_port_c_39a90d8d__prvStartFirstTask 0x080101bd   Thumb Code    28  port.o(.emb_text)
    __asm___6_port_c_39a90d8d__prvEnableVFP  0x080101dd   Thumb Code    16  port.o(.emb_text)
    PendSV_Handler                           0x080101f1   Thumb Code    88  port.o(.emb_text)
    vPortGetIPSR                             0x0801024d   Thumb Code     6  port.o(.emb_text)
    GduUser_StartTask                        0x080103a7   Thumb Code  1620  application.o(.text)
    GduUser_MonitorTask                      0x080109fb   Thumb Code   288  application.o(.text)
    HalUart_Init                             0x08010bf9   Thumb Code    60  hal_uart.o(.text)
    HalUart_DeInit                           0x08010c35   Thumb Code     8  hal_uart.o(.text)
    HalUart_WriteData                        0x08010c3d   Thumb Code    58  hal_uart.o(.text)
    HalUart_ReadData                         0x08010c77   Thumb Code    60  hal_uart.o(.text)
    HalUart_GetStatus                        0x08010cb3   Thumb Code    34  hal_uart.o(.text)
    main                                     0x08010d73   Thumb Code    66  main.o(.text)
    HAL_TIM_PeriodElapsedCallback            0x08010db5   Thumb Code    18  main.o(.text)
    Error_Handler                            0x08010dc7   Thumb Code     6  main.o(.text)
    Osal_TaskCreate                          0x08010e05   Thumb Code    94  osal.o(.text)
    Osal_TaskDestroy                         0x08010e63   Thumb Code    16  osal.o(.text)
    Osal_TaskSleepMs                         0x08010e73   Thumb Code    26  osal.o(.text)
    Osal_MutexCreate                         0x08010e8d   Thumb Code    28  osal.o(.text)
    Osal_MutexDestroy                        0x08010ea9   Thumb Code    16  osal.o(.text)
    Osal_MutexLock                           0x08010eb9   Thumb Code    40  osal.o(.text)
    Osal_MutexUnlock                         0x08010ee1   Thumb Code    32  osal.o(.text)
    Osal_SemaphoreCreate                     0x08010f01   Thumb Code    36  osal.o(.text)
    Osal_SemaphoreDestroy                    0x08010f25   Thumb Code    16  osal.o(.text)
    Osal_SemaphoreTimedWait                  0x08010f35   Thumb Code    56  osal.o(.text)
    Osal_SemaphoreWait                       0x08010f6d   Thumb Code    20  osal.o(.text)
    Osal_SemaphorePost                       0x08010f81   Thumb Code    32  osal.o(.text)
    Osal_GetTimeMs                           0x08010fa1   Thumb Code    16  osal.o(.text)
    Osal_GetTimeUs                           0x08010fb1   Thumb Code    26  osal.o(.text)
    Osal_Malloc                              0x08010fcb   Thumb Code    12  osal.o(.text)
    Osal_Free                                0x08010fd7   Thumb Code    12  osal.o(.text)
    FLASH_If_Erase                           0x0801109b   Thumb Code    90  flash_if.o(.text)
    FLASH_If_Write                           0x080110f5   Thumb Code   162  flash_if.o(.text)
    FLASH_If_GetWriteProtectionStatus        0x08011197   Thumb Code    42  flash_if.o(.text)
    FLASH_If_WriteProtectionConfig           0x080111c1   Thumb Code    68  flash_if.o(.text)
    Led_Init                                 0x08011239   Thumb Code   162  led.o(.text)
    Led_On                                   0x080112db   Thumb Code    24  led.o(.text)
    Led_Off                                  0x080112f3   Thumb Code    24  led.o(.text)
    Led_Trigger                              0x0801130b   Thumb Code    22  led.o(.text)
    EXTI2_IRQHandler                         0x0801132d   Thumb Code    50  pps.o(.text)
    GduTest_GetNewestPpsTriggerLocalTimeUs   0x0801135f   Thumb Code   126  pps.o(.text)
    GduTest_PpsSignalResponseInit            0x080113dd   Thumb Code    80  pps.o(.text)
    Reset_Handler                            0x08011499   Thumb Code     8  startup_stm32f407xx.o(.text)
    ADC_IRQHandler                           0x080114b3   Thumb Code     0  startup_stm32f407xx.o(.text)
    CAN1_RX0_IRQHandler                      0x080114b3   Thumb Code     0  startup_stm32f407xx.o(.text)
    CAN1_RX1_IRQHandler                      0x080114b3   Thumb Code     0  startup_stm32f407xx.o(.text)
    CAN1_SCE_IRQHandler                      0x080114b3   Thumb Code     0  startup_stm32f407xx.o(.text)
    CAN1_TX_IRQHandler                       0x080114b3   Thumb Code     0  startup_stm32f407xx.o(.text)
    CAN2_RX0_IRQHandler                      0x080114b3   Thumb Code     0  startup_stm32f407xx.o(.text)
    CAN2_RX1_IRQHandler                      0x080114b3   Thumb Code     0  startup_stm32f407xx.o(.text)
    CAN2_SCE_IRQHandler                      0x080114b3   Thumb Code     0  startup_stm32f407xx.o(.text)
    CAN2_TX_IRQHandler                       0x080114b3   Thumb Code     0  startup_stm32f407xx.o(.text)
    DCMI_IRQHandler                          0x080114b3   Thumb Code     0  startup_stm32f407xx.o(.text)
    DMA1_Stream0_IRQHandler                  0x080114b3   Thumb Code     0  startup_stm32f407xx.o(.text)
    DMA1_Stream1_IRQHandler                  0x080114b3   Thumb Code     0  startup_stm32f407xx.o(.text)
    DMA1_Stream2_IRQHandler                  0x080114b3   Thumb Code     0  startup_stm32f407xx.o(.text)
    DMA1_Stream3_IRQHandler                  0x080114b3   Thumb Code     0  startup_stm32f407xx.o(.text)
    DMA1_Stream4_IRQHandler                  0x080114b3   Thumb Code     0  startup_stm32f407xx.o(.text)
    DMA1_Stream5_IRQHandler                  0x080114b3   Thumb Code     0  startup_stm32f407xx.o(.text)
    DMA1_Stream6_IRQHandler                  0x080114b3   Thumb Code     0  startup_stm32f407xx.o(.text)
    DMA1_Stream7_IRQHandler                  0x080114b3   Thumb Code     0  startup_stm32f407xx.o(.text)
    DMA2_Stream0_IRQHandler                  0x080114b3   Thumb Code     0  startup_stm32f407xx.o(.text)
    DMA2_Stream1_IRQHandler                  0x080114b3   Thumb Code     0  startup_stm32f407xx.o(.text)
    DMA2_Stream2_IRQHandler                  0x080114b3   Thumb Code     0  startup_stm32f407xx.o(.text)
    DMA2_Stream3_IRQHandler                  0x080114b3   Thumb Code     0  startup_stm32f407xx.o(.text)
    DMA2_Stream4_IRQHandler                  0x080114b3   Thumb Code     0  startup_stm32f407xx.o(.text)
    DMA2_Stream5_IRQHandler                  0x080114b3   Thumb Code     0  startup_stm32f407xx.o(.text)
    DMA2_Stream6_IRQHandler                  0x080114b3   Thumb Code     0  startup_stm32f407xx.o(.text)
    DMA2_Stream7_IRQHandler                  0x080114b3   Thumb Code     0  startup_stm32f407xx.o(.text)
    ETH_IRQHandler                           0x080114b3   Thumb Code     0  startup_stm32f407xx.o(.text)
    ETH_WKUP_IRQHandler                      0x080114b3   Thumb Code     0  startup_stm32f407xx.o(.text)
    EXTI0_IRQHandler                         0x080114b3   Thumb Code     0  startup_stm32f407xx.o(.text)
    EXTI15_10_IRQHandler                     0x080114b3   Thumb Code     0  startup_stm32f407xx.o(.text)
    EXTI1_IRQHandler                         0x080114b3   Thumb Code     0  startup_stm32f407xx.o(.text)
    EXTI3_IRQHandler                         0x080114b3   Thumb Code     0  startup_stm32f407xx.o(.text)
    EXTI4_IRQHandler                         0x080114b3   Thumb Code     0  startup_stm32f407xx.o(.text)
    EXTI9_5_IRQHandler                       0x080114b3   Thumb Code     0  startup_stm32f407xx.o(.text)
    FLASH_IRQHandler                         0x080114b3   Thumb Code     0  startup_stm32f407xx.o(.text)
    FMC_IRQHandler                           0x080114b3   Thumb Code     0  startup_stm32f407xx.o(.text)
    FPU_IRQHandler                           0x080114b3   Thumb Code     0  startup_stm32f407xx.o(.text)
    HASH_RNG_IRQHandler                      0x080114b3   Thumb Code     0  startup_stm32f407xx.o(.text)
    I2C1_ER_IRQHandler                       0x080114b3   Thumb Code     0  startup_stm32f407xx.o(.text)
    I2C1_EV_IRQHandler                       0x080114b3   Thumb Code     0  startup_stm32f407xx.o(.text)
    I2C2_ER_IRQHandler                       0x080114b3   Thumb Code     0  startup_stm32f407xx.o(.text)
    I2C2_EV_IRQHandler                       0x080114b3   Thumb Code     0  startup_stm32f407xx.o(.text)
    I2C3_ER_IRQHandler                       0x080114b3   Thumb Code     0  startup_stm32f407xx.o(.text)
    I2C3_EV_IRQHandler                       0x080114b3   Thumb Code     0  startup_stm32f407xx.o(.text)
    OTG_FS_WKUP_IRQHandler                   0x080114b3   Thumb Code     0  startup_stm32f407xx.o(.text)
    OTG_HS_EP1_IN_IRQHandler                 0x080114b3   Thumb Code     0  startup_stm32f407xx.o(.text)
    OTG_HS_EP1_OUT_IRQHandler                0x080114b3   Thumb Code     0  startup_stm32f407xx.o(.text)
    OTG_HS_IRQHandler                        0x080114b3   Thumb Code     0  startup_stm32f407xx.o(.text)
    OTG_HS_WKUP_IRQHandler                   0x080114b3   Thumb Code     0  startup_stm32f407xx.o(.text)
    PVD_IRQHandler                           0x080114b3   Thumb Code     0  startup_stm32f407xx.o(.text)
    RCC_IRQHandler                           0x080114b3   Thumb Code     0  startup_stm32f407xx.o(.text)
    RTC_Alarm_IRQHandler                     0x080114b3   Thumb Code     0  startup_stm32f407xx.o(.text)
    RTC_WKUP_IRQHandler                      0x080114b3   Thumb Code     0  startup_stm32f407xx.o(.text)
    SDIO_IRQHandler                          0x080114b3   Thumb Code     0  startup_stm32f407xx.o(.text)
    SPI1_IRQHandler                          0x080114b3   Thumb Code     0  startup_stm32f407xx.o(.text)
    SPI2_IRQHandler                          0x080114b3   Thumb Code     0  startup_stm32f407xx.o(.text)
    SPI3_IRQHandler                          0x080114b3   Thumb Code     0  startup_stm32f407xx.o(.text)
    TAMP_STAMP_IRQHandler                    0x080114b3   Thumb Code     0  startup_stm32f407xx.o(.text)
    TIM1_BRK_TIM9_IRQHandler                 0x080114b3   Thumb Code     0  startup_stm32f407xx.o(.text)
    TIM1_CC_IRQHandler                       0x080114b3   Thumb Code     0  startup_stm32f407xx.o(.text)
    TIM1_TRG_COM_TIM11_IRQHandler            0x080114b3   Thumb Code     0  startup_stm32f407xx.o(.text)
    TIM2_IRQHandler                          0x080114b3   Thumb Code     0  startup_stm32f407xx.o(.text)
    TIM3_IRQHandler                          0x080114b3   Thumb Code     0  startup_stm32f407xx.o(.text)
    TIM4_IRQHandler                          0x080114b3   Thumb Code     0  startup_stm32f407xx.o(.text)
    TIM5_IRQHandler                          0x080114b3   Thumb Code     0  startup_stm32f407xx.o(.text)
    TIM6_DAC_IRQHandler                      0x080114b3   Thumb Code     0  startup_stm32f407xx.o(.text)
    TIM7_IRQHandler                          0x080114b3   Thumb Code     0  startup_stm32f407xx.o(.text)
    TIM8_BRK_TIM12_IRQHandler                0x080114b3   Thumb Code     0  startup_stm32f407xx.o(.text)
    TIM8_CC_IRQHandler                       0x080114b3   Thumb Code     0  startup_stm32f407xx.o(.text)
    TIM8_TRG_COM_TIM14_IRQHandler            0x080114b3   Thumb Code     0  startup_stm32f407xx.o(.text)
    TIM8_UP_TIM13_IRQHandler                 0x080114b3   Thumb Code     0  startup_stm32f407xx.o(.text)
    UART4_IRQHandler                         0x080114b3   Thumb Code     0  startup_stm32f407xx.o(.text)
    UART5_IRQHandler                         0x080114b3   Thumb Code     0  startup_stm32f407xx.o(.text)
    WWDG_IRQHandler                          0x080114b3   Thumb Code     0  startup_stm32f407xx.o(.text)
    HAL_MspInit                              0x080114bd   Thumb Code    78  stm32f4xx_hal_msp.o(.text)
    HAL_UART_MspInit                         0x0801150b   Thumb Code   692  stm32f4xx_hal_msp.o(.text)
    HAL_UART_MspDeInit                       0x080117bf   Thumb Code    38  stm32f4xx_hal_msp.o(.text)
    HAL_InitTick                             0x08011805   Thumb Code   122  stm32f4xx_hal_timebase_tim.o(.text)
    HAL_SuspendTick                          0x0801187f   Thumb Code    18  stm32f4xx_hal_timebase_tim.o(.text)
    HAL_ResumeTick                           0x08011891   Thumb Code    18  stm32f4xx_hal_timebase_tim.o(.text)
    NMI_Handler                              0x080118b5   Thumb Code     4  stm32f4xx_it.o(.text)
    HardFault_Handler                        0x080118b9   Thumb Code     4  stm32f4xx_it.o(.text)
    MemManage_Handler                        0x080118bd   Thumb Code     4  stm32f4xx_it.o(.text)
    BusFault_Handler                         0x080118c1   Thumb Code     4  stm32f4xx_it.o(.text)
    UsageFault_Handler                       0x080118c5   Thumb Code     4  stm32f4xx_it.o(.text)
    DebugMon_Handler                         0x080118c9   Thumb Code     2  stm32f4xx_it.o(.text)
    TIM1_UP_TIM10_IRQHandler                 0x080118cb   Thumb Code    10  stm32f4xx_it.o(.text)
    OTG_FS_IRQHandler                        0x080118d5   Thumb Code    20  stm32f4xx_it.o(.text)
    SystemInit                               0x080118f5   Thumb Code    22  system_stm32f4xx.o(.text)
    SystemCoreClockUpdate                    0x0801190b   Thumb Code   170  system_stm32f4xx.o(.text)
    UART_Init                                0x080119d1   Thumb Code   352  uart.o(.text)
    UART_Read                                0x08011b31   Thumb Code   162  uart.o(.text)
    UART_Write                               0x08011bd3   Thumb Code   406  uart.o(.text)
    UART_GetBufferState                      0x08011d69   Thumb Code   244  uart.o(.text)
    USART1_IRQHandler                        0x08011e5d   Thumb Code   164  uart.o(.text)
    USART2_IRQHandler                        0x08011f01   Thumb Code   164  uart.o(.text)
    USART3_IRQHandler                        0x08011fa5   Thumb Code   164  uart.o(.text)
    USART6_IRQHandler                        0x08012049   Thumb Code   164  uart.o(.text)
    fputc                                    0x080120ed   Thumb Code    22  uart.o(.text)
    USBH_CDC_DataQueueInit                   0x08012145   Thumb Code    32  usbh_cdc.o(.text)
    USBH_CDC_WriteData                       0x08012165   Thumb Code    38  usbh_cdc.o(.text)
    USBH_CDC_ReadData                        0x0801218b   Thumb Code    58  usbh_cdc.o(.text)
    USBH_CDC_GetLastReceivedDataSize         0x080124f3   Thumb Code    34  usbh_cdc.o(.text)
    USBH_CDC_ReceiveCallback                 0x08012515   Thumb Code   212  usbh_cdc.o(.text)
    USBH_CDC_TransmitCallback                0x0801267b   Thumb Code     2  usbh_cdc.o(.text)
    USBH_CDC_Transmit                        0x0801274b   Thumb Code    80  usbh_cdc.o(.text)
    USBH_CDC_Receive                         0x0801279b   Thumb Code    78  usbh_cdc.o(.text)
    USBH_CDC_Stop                            0x08012885   Thumb Code    50  usbh_cdc.o(.text)
    USBH_CDC_SetLineCoding                   0x080128ff   Thumb Code    50  usbh_cdc.o(.text)
    USBH_CDC_GetLineCoding                   0x08012931   Thumb Code    38  usbh_cdc.o(.text)
    USBH_CDC_LineCodingChanged               0x08012957   Thumb Code     2  usbh_cdc.o(.text)
    USBH_Init                                0x080129bf   Thumb Code   138  usbh_core.o(.text)
    USBH_DeInit                              0x08012a49   Thumb Code    52  usbh_core.o(.text)
    USBH_RegisterClass                       0x08012a7d   Thumb Code    90  usbh_core.o(.text)
    USBH_SelectInterface                     0x08012ad7   Thumb Code   168  usbh_core.o(.text)
    USBH_GetActiveClass                      0x08012b7f   Thumb Code     8  usbh_core.o(.text)
    USBH_FindInterface                       0x08012b87   Thumb Code    80  usbh_core.o(.text)
    USBH_FindInterfaceIndex                  0x08012bd7   Thumb Code    62  usbh_core.o(.text)
    USBH_Start                               0x08012c15   Thumb Code    22  usbh_core.o(.text)
    USBH_Stop                                0x08012c2b   Thumb Code    38  usbh_core.o(.text)
    USBH_IsPortEnabled                       0x08012c51   Thumb Code     8  usbh_core.o(.text)
    USBH_ReEnumerate                         0x08012c59   Thumb Code    54  usbh_core.o(.text)
    USBH_Process                             0x08013289   Thumb Code  1374  usbh_core.o(.text)
    USBH_LL_SetTimer                         0x080137e7   Thumb Code     6  usbh_core.o(.text)
    USBH_LL_IncTimer                         0x08013945   Thumb Code    22  usbh_core.o(.text)
    USBH_LL_PortEnabled                      0x0801395b   Thumb Code    32  usbh_core.o(.text)
    USBH_LL_PortDisabled                     0x0801397b   Thumb Code     8  usbh_core.o(.text)
    USBH_LL_Connect                          0x08013983   Thumb Code    44  usbh_core.o(.text)
    USBH_LL_Disconnect                       0x080139af   Thumb Code    66  usbh_core.o(.text)
    USBH_LL_NotifyURBChange                  0x08013a1b   Thumb Code    28  usbh_core.o(.text)
    USBH_CtlReq                              0x08013da9   Thumb Code   124  usbh_ctlreq.o(.text)
    USBH_GetDescriptor                       0x08013e25   Thumb Code    74  usbh_ctlreq.o(.text)
    USBH_Get_DevDesc                         0x08013e6f   Thumb Code    46  usbh_ctlreq.o(.text)
    USBH_GetNextDesc                         0x08013ebd   Thumb Code    18  usbh_ctlreq.o(.text)
    USBH_Get_CfgDesc                         0x08013fcf   Thumb Code    46  usbh_ctlreq.o(.text)
    USBH_Get_StringDesc                      0x08014033   Thumb Code    54  usbh_ctlreq.o(.text)
    USBH_SetAddress                          0x08014069   Thumb Code    40  usbh_ctlreq.o(.text)
    USBH_SetCfg                              0x08014091   Thumb Code    40  usbh_ctlreq.o(.text)
    USBH_SetInterface                        0x080140b9   Thumb Code    42  usbh_ctlreq.o(.text)
    USBH_SetFeature                          0x080140e3   Thumb Code    40  usbh_ctlreq.o(.text)
    USBH_ClrFeature                          0x0801410b   Thumb Code    94  usbh_ctlreq.o(.text)
    USBH_CtlSendSetup                        0x08014169   Thumb Code    38  usbh_ioreq.o(.text)
    USBH_CtlSendData                         0x0801418f   Thumb Code    52  usbh_ioreq.o(.text)
    USBH_CtlReceiveData                      0x080141c3   Thumb Code    42  usbh_ioreq.o(.text)
    USBH_BulkSendData                        0x080141ed   Thumb Code    52  usbh_ioreq.o(.text)
    USBH_BulkReceiveData                     0x08014221   Thumb Code    42  usbh_ioreq.o(.text)
    USBH_InterruptReceiveData                0x0801424b   Thumb Code    42  usbh_ioreq.o(.text)
    USBH_InterruptSendData                   0x08014275   Thumb Code    42  usbh_ioreq.o(.text)
    USBH_IsocReceiveData                     0x0801429f   Thumb Code    44  usbh_ioreq.o(.text)
    USBH_IsocSendData                        0x080142cb   Thumb Code    46  usbh_ioreq.o(.text)
    USBH_OpenPipe                            0x080142f9   Thumb Code    42  usbh_pipes.o(.text)
    USBH_ClosePipe                           0x08014323   Thumb Code    18  usbh_pipes.o(.text)
    USBH_AllocPipe                           0x0801435d   Thumb Code    42  usbh_pipes.o(.text)
    USBH_FreePipe                            0x08014387   Thumb Code    30  usbh_pipes.o(.text)
    RingBuf_Init                             0x080143c7   Thumb Code    26  gdu_ringbuffer.o(.text)
    RingBuf_Put                              0x080143e1   Thumb Code   124  gdu_ringbuffer.o(.text)
    RingBuf_Get                              0x0801445d   Thumb Code   116  gdu_ringbuffer.o(.text)
    RingBuf_GetUnusedSize                    0x080144d1   Thumb Code    16  gdu_ringbuffer.o(.text)
    GduTest_HighPowerApplyPinInit            0x080144e1   Thumb Code    62  apply_high_power.o(.text)
    GduTest_WriteHighPowerApplyPin           0x0801451f   Thumb Code    62  apply_high_power.o(.text)
    GduUpgradePlatformStm32_RebootSystem     0x08014591   Thumb Code    64  upgrade_platform_opt_stm32.o(.text)
    GduUpgradePlatformStm32_CleanUpgradeProgramFileStoreArea 0x080145d1   Thumb Code    26  upgrade_platform_opt_stm32.o(.text)
    GduUpgradePlatformStm32_CreateUpgradeProgramFile 0x080145eb   Thumb Code    20  upgrade_platform_opt_stm32.o(.text)
    GduUpgradePlatformStm32_WriteUpgradeProgramFile 0x080145ff   Thumb Code    40  upgrade_platform_opt_stm32.o(.text)
    GduUpgradePlatformStm32_ReadUpgradeProgramFile 0x08014627   Thumb Code    34  upgrade_platform_opt_stm32.o(.text)
    GduUpgradePlatformStm32_CloseUpgradeProgramFile 0x08014649   Thumb Code    18  upgrade_platform_opt_stm32.o(.text)
    GduUpgradePlatformStm32_ReplaceOldProgram 0x0801465b   Thumb Code    64  upgrade_platform_opt_stm32.o(.text)
    GduUpgradePlatformStm32_SetUpgradeRebootState 0x0801469b   Thumb Code    60  upgrade_platform_opt_stm32.o(.text)
    GduUpgradePlatformStm32_GetUpgradeRebootState 0x080146d7   Thumb Code    44  upgrade_platform_opt_stm32.o(.text)
    GduUpgradePlatformStm32_CleanUpgradeRebootState 0x08014703   Thumb Code    28  upgrade_platform_opt_stm32.o(.text)
    HAL_Init                                 0x08014787   Thumb Code    54  stm32f4xx_hal.o(.text)
    HAL_MspDeInit                            0x080147bd   Thumb Code     2  stm32f4xx_hal.o(.text)
    HAL_DeInit                               0x080147bf   Thumb Code    64  stm32f4xx_hal.o(.text)
    HAL_IncTick                              0x080147ff   Thumb Code    16  stm32f4xx_hal.o(.text)
    HAL_GetTick                              0x0801480f   Thumb Code     6  stm32f4xx_hal.o(.text)
    HAL_GetTickPrio                          0x08014815   Thumb Code     6  stm32f4xx_hal.o(.text)
    HAL_SetTickFreq                          0x0801481b   Thumb Code    40  stm32f4xx_hal.o(.text)
    HAL_GetTickFreq                          0x08014843   Thumb Code     6  stm32f4xx_hal.o(.text)
    HAL_Delay                                0x08014849   Thumb Code    36  stm32f4xx_hal.o(.text)
    HAL_GetHalVersion                        0x08014891   Thumb Code     4  stm32f4xx_hal.o(.text)
    HAL_GetREVID                             0x08014895   Thumb Code     8  stm32f4xx_hal.o(.text)
    HAL_GetDEVID                             0x0801489d   Thumb Code    10  stm32f4xx_hal.o(.text)
    HAL_DBGMCU_EnableDBGSleepMode            0x080148a7   Thumb Code    14  stm32f4xx_hal.o(.text)
    HAL_DBGMCU_DisableDBGSleepMode           0x080148b5   Thumb Code    14  stm32f4xx_hal.o(.text)
    HAL_DBGMCU_EnableDBGStopMode             0x080148c3   Thumb Code    14  stm32f4xx_hal.o(.text)
    HAL_DBGMCU_DisableDBGStopMode            0x080148d1   Thumb Code    14  stm32f4xx_hal.o(.text)
    HAL_DBGMCU_EnableDBGStandbyMode          0x080148df   Thumb Code    14  stm32f4xx_hal.o(.text)
    HAL_DBGMCU_DisableDBGStandbyMode         0x080148ed   Thumb Code    14  stm32f4xx_hal.o(.text)
    HAL_EnableCompensationCell               0x080148fb   Thumb Code     8  stm32f4xx_hal.o(.text)
    HAL_DisableCompensationCell              0x08014903   Thumb Code     8  stm32f4xx_hal.o(.text)
    HAL_GetUIDw0                             0x0801490b   Thumb Code     6  stm32f4xx_hal.o(.text)
    HAL_GetUIDw1                             0x08014911   Thumb Code     8  stm32f4xx_hal.o(.text)
    HAL_GetUIDw2                             0x08014919   Thumb Code     8  stm32f4xx_hal.o(.text)
    HAL_NVIC_SetPriorityGrouping             0x08014969   Thumb Code    36  stm32f4xx_hal_cortex.o(.text)
    HAL_NVIC_SetPriority                     0x0801498d   Thumb Code   124  stm32f4xx_hal_cortex.o(.text)
    HAL_NVIC_EnableIRQ                       0x08014a09   Thumb Code    32  stm32f4xx_hal_cortex.o(.text)
    HAL_NVIC_DisableIRQ                      0x08014a29   Thumb Code    62  stm32f4xx_hal_cortex.o(.text)
    HAL_NVIC_SystemReset                     0x08014a67   Thumb Code    64  stm32f4xx_hal_cortex.o(.text)
    HAL_SYSTICK_Config                       0x08014aa7   Thumb Code    52  stm32f4xx_hal_cortex.o(.text)
    HAL_MPU_Disable                          0x08014adb   Thumb Code    42  stm32f4xx_hal_cortex.o(.text)
    HAL_MPU_Enable                           0x08014b05   Thumb Code    60  stm32f4xx_hal_cortex.o(.text)
    HAL_MPU_ConfigRegion                     0x08014b41   Thumb Code    90  stm32f4xx_hal_cortex.o(.text)
    HAL_NVIC_GetPriorityGrouping             0x08014b9b   Thumb Code     8  stm32f4xx_hal_cortex.o(.text)
    HAL_NVIC_GetPriority                     0x08014ba3   Thumb Code   138  stm32f4xx_hal_cortex.o(.text)
    HAL_NVIC_SetPendingIRQ                   0x08014c2d   Thumb Code    32  stm32f4xx_hal_cortex.o(.text)
    HAL_NVIC_GetPendingIRQ                   0x08014c4d   Thumb Code    46  stm32f4xx_hal_cortex.o(.text)
    HAL_NVIC_ClearPendingIRQ                 0x08014c7b   Thumb Code    30  stm32f4xx_hal_cortex.o(.text)
    HAL_NVIC_GetActive                       0x08014c99   Thumb Code    46  stm32f4xx_hal_cortex.o(.text)
    HAL_SYSTICK_CLKSourceConfig              0x08014cc7   Thumb Code    40  stm32f4xx_hal_cortex.o(.text)
    HAL_SYSTICK_Callback                     0x08014cef   Thumb Code     2  stm32f4xx_hal_cortex.o(.text)
    HAL_SYSTICK_IRQHandler                   0x08014cf1   Thumb Code     8  stm32f4xx_hal_cortex.o(.text)
    HAL_DMA_Init                             0x08014df1   Thumb Code   232  stm32f4xx_hal_dma.o(.text)
    HAL_DMA_DeInit                           0x08014ed9   Thumb Code   112  stm32f4xx_hal_dma.o(.text)
    HAL_DMA_Start                            0x08014f75   Thumb Code   102  stm32f4xx_hal_dma.o(.text)
    HAL_DMA_Start_IT                         0x08014fdb   Thumb Code   146  stm32f4xx_hal_dma.o(.text)
    HAL_DMA_Abort                            0x0801506d   Thumb Code   180  stm32f4xx_hal_dma.o(.text)
    HAL_DMA_Abort_IT                         0x08015121   Thumb Code    40  stm32f4xx_hal_dma.o(.text)
    HAL_DMA_PollForTransfer                  0x08015149   Thumb Code   346  stm32f4xx_hal_dma.o(.text)
    HAL_DMA_IRQHandler                       0x080152a3   Thumb Code   570  stm32f4xx_hal_dma.o(.text)
    HAL_DMA_RegisterCallback                 0x080154dd   Thumb Code    94  stm32f4xx_hal_dma.o(.text)
    HAL_DMA_UnRegisterCallback               0x0801553b   Thumb Code   124  stm32f4xx_hal_dma.o(.text)
    HAL_DMA_GetState                         0x080155b7   Thumb Code     8  stm32f4xx_hal_dma.o(.text)
    HAL_DMA_GetError                         0x080155bf   Thumb Code     6  stm32f4xx_hal_dma.o(.text)
    FLASH_WaitForLastOperation               0x08015657   Thumb Code    90  stm32f4xx_hal_flash.o(.text)
    HAL_FLASH_Program                        0x08015761   Thumb Code   146  stm32f4xx_hal_flash.o(.text)
    HAL_FLASH_Program_IT                     0x080157f3   Thumb Code   130  stm32f4xx_hal_flash.o(.text)
    HAL_FLASH_EndOfOperationCallback         0x08015875   Thumb Code     2  stm32f4xx_hal_flash.o(.text)
    HAL_FLASH_OperationErrorCallback         0x08015877   Thumb Code     2  stm32f4xx_hal_flash.o(.text)
    HAL_FLASH_IRQHandler                     0x08015879   Thumb Code   262  stm32f4xx_hal_flash.o(.text)
    HAL_FLASH_Unlock                         0x0801597f   Thumb Code    58  stm32f4xx_hal_flash.o(.text)
    HAL_FLASH_Lock                           0x080159b9   Thumb Code    16  stm32f4xx_hal_flash.o(.text)
    HAL_FLASH_OB_Unlock                      0x080159c9   Thumb Code    34  stm32f4xx_hal_flash.o(.text)
    HAL_FLASH_OB_Lock                        0x080159eb   Thumb Code    20  stm32f4xx_hal_flash.o(.text)
    HAL_FLASH_OB_Launch                      0x080159ff   Thumb Code    28  stm32f4xx_hal_flash.o(.text)
    HAL_FLASH_GetError                       0x08015a1b   Thumb Code     6  stm32f4xx_hal_flash.o(.text)
    FLASH_FlushCaches                        0x08015a31   Thumb Code   114  stm32f4xx_hal_flash_ex.o(.text)
    FLASH_Erase_Sector                       0x08015aa3   Thumb Code    92  stm32f4xx_hal_flash_ex.o(.text)
    HAL_FLASHEx_Erase                        0x08015b2f   Thumb Code   172  stm32f4xx_hal_flash_ex.o(.text)
    HAL_FLASHEx_Erase_IT                     0x08015bdb   Thumb Code   116  stm32f4xx_hal_flash_ex.o(.text)
    HAL_FLASHEx_OBProgram                    0x08015d11   Thumb Code   144  stm32f4xx_hal_flash_ex.o(.text)
    HAL_FLASHEx_OBGetConfig                  0x08015de3   Thumb Code    34  stm32f4xx_hal_flash_ex.o(.text)
    HAL_GPIO_Init                            0x08015e0d   Thumb Code   470  stm32f4xx_hal_gpio.o(.text)
    HAL_GPIO_DeInit                          0x08015fe3   Thumb Code   316  stm32f4xx_hal_gpio.o(.text)
    HAL_GPIO_ReadPin                         0x0801611f   Thumb Code    16  stm32f4xx_hal_gpio.o(.text)
    HAL_GPIO_WritePin                        0x0801612f   Thumb Code    12  stm32f4xx_hal_gpio.o(.text)
    HAL_GPIO_TogglePin                       0x0801613b   Thumb Code    20  stm32f4xx_hal_gpio.o(.text)
    HAL_GPIO_LockPin                         0x0801614f   Thumb Code    46  stm32f4xx_hal_gpio.o(.text)
    HAL_GPIO_EXTI_Callback                   0x0801617d   Thumb Code     2  stm32f4xx_hal_gpio.o(.text)
    HAL_GPIO_EXTI_IRQHandler                 0x0801617f   Thumb Code    28  stm32f4xx_hal_gpio.o(.text)
    HAL_HCD_Init                             0x080161cb   Thumb Code   116  stm32f4xx_hal_hcd.o(.text)
    HAL_HCD_HC_Init                          0x0801623f   Thumb Code   262  stm32f4xx_hal_hcd.o(.text)
    HAL_HCD_HC_Halt                          0x08016345   Thumb Code    52  stm32f4xx_hal_hcd.o(.text)
    HAL_HCD_DeInit                           0x0801637b   Thumb Code    38  stm32f4xx_hal_hcd.o(.text)
    HAL_HCD_HC_SubmitRequest                 0x080163a1   Thumb Code   676  stm32f4xx_hal_hcd.o(.text)
    HAL_HCD_IRQHandler                       0x08017731   Thumb Code   364  stm32f4xx_hal_hcd.o(.text)
    HAL_HCD_WKUP_IRQHandler                  0x0801789d   Thumb Code     2  stm32f4xx_hal_hcd.o(.text)
    HAL_HCD_Start                            0x0801789f   Thumb Code    54  stm32f4xx_hal_hcd.o(.text)
    HAL_HCD_Stop                             0x080178d5   Thumb Code    46  stm32f4xx_hal_hcd.o(.text)
    HAL_HCD_ResetPort                        0x08017903   Thumb Code    12  stm32f4xx_hal_hcd.o(.text)
    HAL_HCD_GetState                         0x0801790f   Thumb Code     8  stm32f4xx_hal_hcd.o(.text)
    HAL_HCD_HC_GetURBState                   0x08017917   Thumb Code    24  stm32f4xx_hal_hcd.o(.text)
    HAL_HCD_HC_GetXferCount                  0x0801792f   Thumb Code    22  stm32f4xx_hal_hcd.o(.text)
    HAL_HCD_HC_GetState                      0x08017945   Thumb Code    24  stm32f4xx_hal_hcd.o(.text)
    HAL_HCD_GetCurrentFrame                  0x0801795d   Thumb Code    12  stm32f4xx_hal_hcd.o(.text)
    HAL_HCD_GetCurrentSpeed                  0x08017969   Thumb Code    12  stm32f4xx_hal_hcd.o(.text)
    HAL_RCC_OscConfig                        0x08017979   Thumb Code  1172  stm32f4xx_hal_rcc.o(.text)
    HAL_RCC_GetSysClockFreq                  0x08017e0d   Thumb Code   164  stm32f4xx_hal_rcc.o(.text)
    HAL_RCC_ClockConfig                      0x08017eb1   Thumb Code   390  stm32f4xx_hal_rcc.o(.text)
    HAL_RCC_MCOConfig                        0x08018037   Thumb Code   186  stm32f4xx_hal_rcc.o(.text)
    HAL_RCC_EnableCSS                        0x080180f1   Thumb Code     8  stm32f4xx_hal_rcc.o(.text)
    HAL_RCC_DisableCSS                       0x080180f9   Thumb Code     8  stm32f4xx_hal_rcc.o(.text)
    HAL_RCC_GetHCLKFreq                      0x08018101   Thumb Code     6  stm32f4xx_hal_rcc.o(.text)
    HAL_RCC_GetPCLK1Freq                     0x08018107   Thumb Code    24  stm32f4xx_hal_rcc.o(.text)
    HAL_RCC_GetPCLK2Freq                     0x0801811f   Thumb Code    24  stm32f4xx_hal_rcc.o(.text)
    HAL_RCC_GetOscConfig                     0x08018137   Thumb Code   284  stm32f4xx_hal_rcc.o(.text)
    HAL_RCC_GetClockConfig                   0x08018253   Thumb Code    66  stm32f4xx_hal_rcc.o(.text)
    HAL_RCC_CSSCallback                      0x08018295   Thumb Code     2  stm32f4xx_hal_rcc.o(.text)
    HAL_RCC_NMI_IRQHandler                   0x08018297   Thumb Code    30  stm32f4xx_hal_rcc.o(.text)
    TIM_Base_SetConfig                       0x080182bd   Thumb Code   170  stm32f4xx_hal_tim.o(.text)
    HAL_TIM_Base_MspInit                     0x08018367   Thumb Code     2  stm32f4xx_hal_tim.o(.text)
    HAL_TIM_Base_Init                        0x08018369   Thumb Code   102  stm32f4xx_hal_tim.o(.text)
    HAL_TIM_Base_MspDeInit                   0x080183cf   Thumb Code     2  stm32f4xx_hal_tim.o(.text)
    HAL_TIM_Base_DeInit                      0x080183d1   Thumb Code   120  stm32f4xx_hal_tim.o(.text)
    HAL_TIM_Base_Start                       0x08018449   Thumb Code   126  stm32f4xx_hal_tim.o(.text)
    HAL_TIM_Base_Stop                        0x080184c7   Thumb Code    50  stm32f4xx_hal_tim.o(.text)
    HAL_TIM_Base_Start_IT                    0x080184f9   Thumb Code   138  stm32f4xx_hal_tim.o(.text)
    HAL_TIM_Base_Stop_IT                     0x08018583   Thumb Code    62  stm32f4xx_hal_tim.o(.text)
    HAL_TIM_ErrorCallback                    0x080185c1   Thumb Code     2  stm32f4xx_hal_tim.o(.text)
    TIM_DMAError                             0x080185c3   Thumb Code    94  stm32f4xx_hal_tim.o(.text)
    HAL_TIM_PeriodElapsedHalfCpltCallback    0x08018621   Thumb Code     2  stm32f4xx_hal_tim.o(.text)
    HAL_TIM_Base_Start_DMA                   0x0801864d   Thumb Code   262  stm32f4xx_hal_tim.o(.text)
    HAL_TIM_Base_Stop_DMA                    0x08018753   Thumb Code    70  stm32f4xx_hal_tim.o(.text)
    HAL_TIM_OC_MspInit                       0x08018799   Thumb Code     2  stm32f4xx_hal_tim.o(.text)
    HAL_TIM_OC_Init                          0x0801879b   Thumb Code   102  stm32f4xx_hal_tim.o(.text)
    HAL_TIM_OC_MspDeInit                     0x08018801   Thumb Code     2  stm32f4xx_hal_tim.o(.text)
    HAL_TIM_OC_DeInit                        0x08018803   Thumb Code   120  stm32f4xx_hal_tim.o(.text)
    TIM_CCxChannelCmd                        0x0801887b   Thumb Code    34  stm32f4xx_hal_tim.o(.text)
    HAL_TIM_OC_Start                         0x0801889d   Thumb Code   238  stm32f4xx_hal_tim.o(.text)
    HAL_TIM_OC_Stop                          0x0801898b   Thumb Code   160  stm32f4xx_hal_tim.o(.text)
    HAL_TIM_OC_Start_IT                      0x08018a2b   Thumb Code   342  stm32f4xx_hal_tim.o(.text)
    HAL_TIM_OC_Stop_IT                       0x08018b81   Thumb Code   236  stm32f4xx_hal_tim.o(.text)
    HAL_TIM_PWM_PulseFinishedHalfCpltCallback 0x08018c6d   Thumb Code     2  stm32f4xx_hal_tim.o(.text)
    TIM_DMADelayPulseHalfCplt                0x08018c6f   Thumb Code    64  stm32f4xx_hal_tim.o(.text)
    HAL_TIM_PWM_PulseFinishedCallback        0x08018caf   Thumb Code     2  stm32f4xx_hal_tim.o(.text)
    HAL_TIM_OC_Start_DMA                     0x08018d19   Thumb Code   582  stm32f4xx_hal_tim.o(.text)
    HAL_TIM_OC_Stop_DMA                      0x08018f5f   Thumb Code   260  stm32f4xx_hal_tim.o(.text)
    HAL_TIM_PWM_MspInit                      0x08019063   Thumb Code     2  stm32f4xx_hal_tim.o(.text)
    HAL_TIM_PWM_Init                         0x08019065   Thumb Code   102  stm32f4xx_hal_tim.o(.text)
    HAL_TIM_PWM_MspDeInit                    0x080190cb   Thumb Code     2  stm32f4xx_hal_tim.o(.text)
    HAL_TIM_PWM_DeInit                       0x080190cd   Thumb Code   120  stm32f4xx_hal_tim.o(.text)
    HAL_TIM_PWM_Start                        0x08019145   Thumb Code   238  stm32f4xx_hal_tim.o(.text)
    HAL_TIM_PWM_Stop                         0x08019233   Thumb Code   160  stm32f4xx_hal_tim.o(.text)
    HAL_TIM_PWM_Start_IT                     0x080192d3   Thumb Code   342  stm32f4xx_hal_tim.o(.text)
    HAL_TIM_PWM_Stop_IT                      0x08019429   Thumb Code   236  stm32f4xx_hal_tim.o(.text)
    HAL_TIM_PWM_Start_DMA                    0x08019515   Thumb Code   542  stm32f4xx_hal_tim.o(.text)
    HAL_TIM_PWM_Stop_DMA                     0x08019733   Thumb Code   296  stm32f4xx_hal_tim.o(.text)
    HAL_TIM_IC_MspInit                       0x0801985b   Thumb Code     2  stm32f4xx_hal_tim.o(.text)
    HAL_TIM_IC_Init                          0x0801985d   Thumb Code   102  stm32f4xx_hal_tim.o(.text)
    HAL_TIM_IC_MspDeInit                     0x080198c3   Thumb Code     2  stm32f4xx_hal_tim.o(.text)
    HAL_TIM_IC_DeInit                        0x080198c5   Thumb Code   120  stm32f4xx_hal_tim.o(.text)
    HAL_TIM_IC_Start                         0x0801993d   Thumb Code   288  stm32f4xx_hal_tim.o(.text)
    HAL_TIM_IC_Stop                          0x08019a5d   Thumb Code   138  stm32f4xx_hal_tim.o(.text)
    HAL_TIM_IC_Start_IT                      0x08019ae7   Thumb Code   392  stm32f4xx_hal_tim.o(.text)
    HAL_TIM_IC_Stop_IT                       0x08019c6f   Thumb Code   214  stm32f4xx_hal_tim.o(.text)
    HAL_TIM_IC_CaptureHalfCpltCallback       0x08019d45   Thumb Code     2  stm32f4xx_hal_tim.o(.text)
    TIM_DMACaptureHalfCplt                   0x08019d47   Thumb Code    64  stm32f4xx_hal_tim.o(.text)
    HAL_TIM_IC_CaptureCallback               0x08019d87   Thumb Code     2  stm32f4xx_hal_tim.o(.text)
    TIM_DMACaptureCplt                       0x08019d89   Thumb Code   122  stm32f4xx_hal_tim.o(.text)
    HAL_TIM_IC_Start_DMA                     0x08019e03   Thumb Code   610  stm32f4xx_hal_tim.o(.text)
    HAL_TIM_IC_Stop_DMA                      0x0801a065   Thumb Code   238  stm32f4xx_hal_tim.o(.text)
    HAL_TIM_OnePulse_MspInit                 0x0801a153   Thumb Code     2  stm32f4xx_hal_tim.o(.text)
    HAL_TIM_OnePulse_Init                    0x0801a155   Thumb Code   102  stm32f4xx_hal_tim.o(.text)
    HAL_TIM_OnePulse_MspDeInit               0x0801a1bb   Thumb Code     2  stm32f4xx_hal_tim.o(.text)
    HAL_TIM_OnePulse_DeInit                  0x0801a1bd   Thumb Code    96  stm32f4xx_hal_tim.o(.text)
    HAL_TIM_OnePulse_Start                   0x0801a21d   Thumb Code   132  stm32f4xx_hal_tim.o(.text)
    HAL_TIM_OnePulse_Stop                    0x0801a2a1   Thumb Code   152  stm32f4xx_hal_tim.o(.text)
    HAL_TIM_OnePulse_Start_IT                0x0801a339   Thumb Code   156  stm32f4xx_hal_tim.o(.text)
    HAL_TIM_OnePulse_Stop_IT                 0x0801a3d5   Thumb Code   194  stm32f4xx_hal_tim.o(.text)
    HAL_TIM_Encoder_MspInit                  0x0801a497   Thumb Code     2  stm32f4xx_hal_tim.o(.text)
    HAL_TIM_Encoder_Init                     0x0801a499   Thumb Code   200  stm32f4xx_hal_tim.o(.text)
    HAL_TIM_Encoder_MspDeInit                0x0801a561   Thumb Code     2  stm32f4xx_hal_tim.o(.text)
    HAL_TIM_Encoder_DeInit                   0x0801a563   Thumb Code    96  stm32f4xx_hal_tim.o(.text)
    HAL_TIM_Encoder_Start                    0x0801a5c3   Thumb Code   204  stm32f4xx_hal_tim.o(.text)
    HAL_TIM_Encoder_Stop                     0x0801a68f   Thumb Code   214  stm32f4xx_hal_tim.o(.text)
    HAL_TIM_Encoder_Start_IT                 0x0801a765   Thumb Code   252  stm32f4xx_hal_tim.o(.text)
    HAL_TIM_Encoder_Stop_IT                  0x0801a861   Thumb Code   256  stm32f4xx_hal_tim.o(.text)
    HAL_TIM_Encoder_Start_DMA                0x0801a961   Thumb Code   568  stm32f4xx_hal_tim.o(.text)
    HAL_TIM_Encoder_Stop_DMA                 0x0801ab99   Thumb Code   280  stm32f4xx_hal_tim.o(.text)
    HAL_TIM_TriggerCallback                  0x0801acb1   Thumb Code     2  stm32f4xx_hal_tim.o(.text)
    HAL_TIM_OC_DelayElapsedCallback          0x0801acb3   Thumb Code     2  stm32f4xx_hal_tim.o(.text)
    HAL_TIM_IRQHandler                       0x0801acb5   Thumb Code   412  stm32f4xx_hal_tim.o(.text)
    TIM_OC2_SetConfig                        0x0801af0b   Thumb Code   114  stm32f4xx_hal_tim.o(.text)
    HAL_TIM_OC_ConfigChannel                 0x0801afe5   Thumb Code   104  stm32f4xx_hal_tim.o(.text)
    TIM_TI1_SetConfig                        0x0801b0fb   Thumb Code   114  stm32f4xx_hal_tim.o(.text)
    HAL_TIM_IC_ConfigChannel                 0x0801b16d   Thumb Code   212  stm32f4xx_hal_tim.o(.text)
    HAL_TIM_PWM_ConfigChannel                0x0801b241   Thumb Code   282  stm32f4xx_hal_tim.o(.text)
    HAL_TIM_OnePulse_ConfigChannel           0x0801b35b   Thumb Code   286  stm32f4xx_hal_tim.o(.text)
    HAL_TIM_TriggerHalfCpltCallback          0x0801b479   Thumb Code     2  stm32f4xx_hal_tim.o(.text)
    HAL_TIM_DMABurst_MultiWriteStart         0x0801b4a3   Thumb Code   424  stm32f4xx_hal_tim.o(.text)
    HAL_TIM_DMABurst_WriteStart              0x0801b64b   Thumb Code    38  stm32f4xx_hal_tim.o(.text)
    HAL_TIM_DMABurst_WriteStop               0x0801b671   Thumb Code   134  stm32f4xx_hal_tim.o(.text)
    HAL_TIM_DMABurst_MultiReadStart          0x0801b6f7   Thumb Code   424  stm32f4xx_hal_tim.o(.text)
    HAL_TIM_DMABurst_ReadStart               0x0801b89f   Thumb Code    38  stm32f4xx_hal_tim.o(.text)
    HAL_TIM_DMABurst_ReadStop                0x0801b8c5   Thumb Code   180  stm32f4xx_hal_tim.o(.text)
    HAL_TIM_GenerateEvent                    0x0801b979   Thumb Code    54  stm32f4xx_hal_tim.o(.text)
    TIM_ETR_SetConfig                        0x0801b9af   Thumb Code    22  stm32f4xx_hal_tim.o(.text)
    HAL_TIM_ConfigOCrefClear                 0x0801b9c5   Thumb Code   270  stm32f4xx_hal_tim.o(.text)
    HAL_TIM_ConfigClockSource                0x0801bb33   Thumb Code   264  stm32f4xx_hal_tim.o(.text)
    HAL_TIM_ConfigTI1Input                   0x0801bc3b   Thumb Code    22  stm32f4xx_hal_tim.o(.text)
    HAL_TIM_SlaveConfigSynchro               0x0801bcfb   Thumb Code   108  stm32f4xx_hal_tim.o(.text)
    HAL_TIM_SlaveConfigSynchro_IT            0x0801bd67   Thumb Code   108  stm32f4xx_hal_tim.o(.text)
    HAL_TIM_ReadCapturedValue                0x0801bdd3   Thumb Code    50  stm32f4xx_hal_tim.o(.text)
    HAL_TIM_Base_GetState                    0x0801be05   Thumb Code     8  stm32f4xx_hal_tim.o(.text)
    HAL_TIM_OC_GetState                      0x0801be0d   Thumb Code     8  stm32f4xx_hal_tim.o(.text)
    HAL_TIM_PWM_GetState                     0x0801be15   Thumb Code     8  stm32f4xx_hal_tim.o(.text)
    HAL_TIM_IC_GetState                      0x0801be1d   Thumb Code     8  stm32f4xx_hal_tim.o(.text)
    HAL_TIM_OnePulse_GetState                0x0801be25   Thumb Code     8  stm32f4xx_hal_tim.o(.text)
    HAL_TIM_Encoder_GetState                 0x0801be2d   Thumb Code     8  stm32f4xx_hal_tim.o(.text)
    HAL_TIM_GetActiveChannel                 0x0801be35   Thumb Code     6  stm32f4xx_hal_tim.o(.text)
    HAL_TIM_GetChannelState                  0x0801be3b   Thumb Code    38  stm32f4xx_hal_tim.o(.text)
    HAL_TIM_DMABurstState                    0x0801be61   Thumb Code     8  stm32f4xx_hal_tim.o(.text)
    HAL_TIMEx_HallSensor_MspInit             0x0801be69   Thumb Code     2  stm32f4xx_hal_tim_ex.o(.text)
    HAL_TIMEx_HallSensor_Init                0x0801be6b   Thumb Code   234  stm32f4xx_hal_tim_ex.o(.text)
    HAL_TIMEx_HallSensor_MspDeInit           0x0801bf55   Thumb Code     2  stm32f4xx_hal_tim_ex.o(.text)
    HAL_TIMEx_HallSensor_DeInit              0x0801bf57   Thumb Code    96  stm32f4xx_hal_tim_ex.o(.text)
    HAL_TIMEx_HallSensor_Start               0x0801bfb7   Thumb Code   188  stm32f4xx_hal_tim_ex.o(.text)
    HAL_TIMEx_HallSensor_Stop                0x0801c073   Thumb Code    78  stm32f4xx_hal_tim_ex.o(.text)
    HAL_TIMEx_HallSensor_Start_IT            0x0801c0c1   Thumb Code   200  stm32f4xx_hal_tim_ex.o(.text)
    HAL_TIMEx_HallSensor_Stop_IT             0x0801c189   Thumb Code    90  stm32f4xx_hal_tim_ex.o(.text)
    HAL_TIMEx_HallSensor_Start_DMA           0x0801c1e3   Thumb Code   240  stm32f4xx_hal_tim_ex.o(.text)
    HAL_TIMEx_HallSensor_Stop_DMA            0x0801c2d3   Thumb Code    84  stm32f4xx_hal_tim_ex.o(.text)
    HAL_TIMEx_OCN_Start                      0x0801c349   Thumb Code   256  stm32f4xx_hal_tim_ex.o(.text)
    HAL_TIMEx_OCN_Stop                       0x0801c449   Thumb Code   136  stm32f4xx_hal_tim_ex.o(.text)
    HAL_TIMEx_OCN_Start_IT                   0x0801c4d1   Thumb Code   284  stm32f4xx_hal_tim_ex.o(.text)
    HAL_TIMEx_OCN_Stop_IT                    0x0801c5ed   Thumb Code   218  stm32f4xx_hal_tim_ex.o(.text)
    HAL_TIMEx_OCN_Start_DMA                  0x0801c773   Thumb Code   448  stm32f4xx_hal_tim_ex.o(.text)
    HAL_TIMEx_OCN_Stop_DMA                   0x0801c933   Thumb Code   252  stm32f4xx_hal_tim_ex.o(.text)
    HAL_TIMEx_PWMN_Start                     0x0801ca2f   Thumb Code   214  stm32f4xx_hal_tim_ex.o(.text)
    HAL_TIMEx_PWMN_Stop                      0x0801cb05   Thumb Code   136  stm32f4xx_hal_tim_ex.o(.text)
    HAL_TIMEx_PWMN_Start_IT                  0x0801cb8d   Thumb Code   284  stm32f4xx_hal_tim_ex.o(.text)
    HAL_TIMEx_PWMN_Stop_IT                   0x0801cca9   Thumb Code   218  stm32f4xx_hal_tim_ex.o(.text)
    HAL_TIMEx_PWMN_Start_DMA                 0x0801cd83   Thumb Code   488  stm32f4xx_hal_tim_ex.o(.text)
    HAL_TIMEx_PWMN_Stop_DMA                  0x0801cf6b   Thumb Code   212  stm32f4xx_hal_tim_ex.o(.text)
    HAL_TIMEx_OnePulseN_Start                0x0801d03f   Thumb Code   118  stm32f4xx_hal_tim_ex.o(.text)
    HAL_TIMEx_OnePulseN_Stop                 0x0801d0b5   Thumb Code   138  stm32f4xx_hal_tim_ex.o(.text)
    HAL_TIMEx_OnePulseN_Start_IT             0x0801d13f   Thumb Code   142  stm32f4xx_hal_tim_ex.o(.text)
    HAL_TIMEx_OnePulseN_Stop_IT              0x0801d1cd   Thumb Code   162  stm32f4xx_hal_tim_ex.o(.text)
    HAL_TIMEx_ConfigCommutEvent              0x0801d26f   Thumb Code   176  stm32f4xx_hal_tim_ex.o(.text)
    HAL_TIMEx_ConfigCommutEvent_IT           0x0801d31f   Thumb Code   134  stm32f4xx_hal_tim_ex.o(.text)
    HAL_TIMEx_CommutHalfCpltCallback         0x0801d3a5   Thumb Code     2  stm32f4xx_hal_tim_ex.o(.text)
    TIMEx_DMACommutationHalfCplt             0x0801d3a7   Thumb Code    20  stm32f4xx_hal_tim_ex.o(.text)
    HAL_TIMEx_CommutCallback                 0x0801d3bb   Thumb Code     2  stm32f4xx_hal_tim_ex.o(.text)
    TIMEx_DMACommutationCplt                 0x0801d3bd   Thumb Code    20  stm32f4xx_hal_tim_ex.o(.text)
    HAL_TIMEx_ConfigCommutEvent_DMA          0x0801d3d1   Thumb Code   156  stm32f4xx_hal_tim_ex.o(.text)
    HAL_TIMEx_MasterConfigSynchronization    0x0801d46d   Thumb Code   150  stm32f4xx_hal_tim_ex.o(.text)
    HAL_TIMEx_ConfigBreakDeadTime            0x0801d503   Thumb Code   116  stm32f4xx_hal_tim_ex.o(.text)
    HAL_TIMEx_RemapConfig                    0x0801d577   Thumb Code    42  stm32f4xx_hal_tim_ex.o(.text)
    HAL_TIMEx_BreakCallback                  0x0801d5a1   Thumb Code     2  stm32f4xx_hal_tim_ex.o(.text)
    HAL_TIMEx_HallSensor_GetState            0x0801d5a3   Thumb Code     8  stm32f4xx_hal_tim_ex.o(.text)
    HAL_TIMEx_GetChannelNState               0x0801d5ab   Thumb Code    38  stm32f4xx_hal_tim_ex.o(.text)
    HAL_UART_Init                            0x0801d815   Thumb Code   114  stm32f4xx_hal_uart.o(.text)
    HAL_HalfDuplex_Init                      0x0801d887   Thumb Code   118  stm32f4xx_hal_uart.o(.text)
    HAL_LIN_Init                             0x0801d8fd   Thumb Code   142  stm32f4xx_hal_uart.o(.text)
    HAL_MultiProcessor_Init                  0x0801d98b   Thumb Code   162  stm32f4xx_hal_uart.o(.text)
    HAL_UART_DeInit                          0x0801da2f   Thumb Code    60  stm32f4xx_hal_uart.o(.text)
    HAL_UART_Transmit                        0x0801dad7   Thumb Code   210  stm32f4xx_hal_uart.o(.text)
    HAL_UART_Receive                         0x0801dba9   Thumb Code   220  stm32f4xx_hal_uart.o(.text)
    HAL_UART_Transmit_IT                     0x0801dc85   Thumb Code    88  stm32f4xx_hal_uart.o(.text)
    UART_Start_Receive_IT                    0x0801dcdd   Thumb Code    70  stm32f4xx_hal_uart.o(.text)
    HAL_UART_Receive_IT                      0x0801dd23   Thumb Code    66  stm32f4xx_hal_uart.o(.text)
    HAL_UART_ErrorCallback                   0x0801dd65   Thumb Code     2  stm32f4xx_hal_uart.o(.text)
    HAL_UART_TxHalfCpltCallback              0x0801de01   Thumb Code     2  stm32f4xx_hal_uart.o(.text)
    HAL_UART_TxCpltCallback                  0x0801de11   Thumb Code     2  stm32f4xx_hal_uart.o(.text)
    HAL_UART_Transmit_DMA                    0x0801de49   Thumb Code   142  stm32f4xx_hal_uart.o(.text)
    HAL_UART_RxHalfCpltCallback              0x0801ded7   Thumb Code     2  stm32f4xx_hal_uart.o(.text)
    HAL_UARTEx_RxEventCallback               0x0801ded9   Thumb Code     2  stm32f4xx_hal_uart.o(.text)
    HAL_UART_RxCpltCallback                  0x0801defb   Thumb Code     2  stm32f4xx_hal_uart.o(.text)
    UART_Start_Receive_DMA                   0x0801df65   Thumb Code   138  stm32f4xx_hal_uart.o(.text)
    HAL_UART_Receive_DMA                     0x0801dfef   Thumb Code    66  stm32f4xx_hal_uart.o(.text)
    HAL_UART_DMAPause                        0x0801e031   Thumb Code   124  stm32f4xx_hal_uart.o(.text)
    HAL_UART_DMAResume                       0x0801e0ad   Thumb Code   126  stm32f4xx_hal_uart.o(.text)
    HAL_UART_DMAStop                         0x0801e12b   Thumb Code   102  stm32f4xx_hal_uart.o(.text)
    HAL_UARTEx_ReceiveToIdle                 0x0801e191   Thumb Code   338  stm32f4xx_hal_uart.o(.text)
    HAL_UARTEx_ReceiveToIdle_IT              0x0801e2e3   Thumb Code   114  stm32f4xx_hal_uart.o(.text)
    HAL_UARTEx_ReceiveToIdle_DMA             0x0801e355   Thumb Code   114  stm32f4xx_hal_uart.o(.text)
    HAL_UART_Abort                           0x0801e3c7   Thumb Code   192  stm32f4xx_hal_uart.o(.text)
    HAL_UART_AbortTransmit                   0x0801e487   Thumb Code    90  stm32f4xx_hal_uart.o(.text)
    HAL_UART_AbortReceive                    0x0801e4e1   Thumb Code   124  stm32f4xx_hal_uart.o(.text)
    HAL_UART_AbortCpltCallback               0x0801e55d   Thumb Code     2  stm32f4xx_hal_uart.o(.text)
    HAL_UART_Abort_IT                        0x0801e5cf   Thumb Code   238  stm32f4xx_hal_uart.o(.text)
    HAL_UART_AbortTransmitCpltCallback       0x0801e6bd   Thumb Code     2  stm32f4xx_hal_uart.o(.text)
    HAL_UART_AbortTransmit_IT                0x0801e6d7   Thumb Code   104  stm32f4xx_hal_uart.o(.text)
    HAL_UART_AbortReceiveCpltCallback        0x0801e73f   Thumb Code     2  stm32f4xx_hal_uart.o(.text)
    HAL_UART_AbortReceive_IT                 0x0801e75d   Thumb Code   142  stm32f4xx_hal_uart.o(.text)
    HAL_UART_IRQHandler                      0x0801e93d   Thumb Code   606  stm32f4xx_hal_uart.o(.text)
    HAL_LIN_SendBreak                        0x0801eb9b   Thumb Code    62  stm32f4xx_hal_uart.o(.text)
    HAL_MultiProcessor_EnterMuteMode         0x0801ebd9   Thumb Code    62  stm32f4xx_hal_uart.o(.text)
    HAL_MultiProcessor_ExitMuteMode          0x0801ec17   Thumb Code    62  stm32f4xx_hal_uart.o(.text)
    HAL_HalfDuplex_EnableTransmitter         0x0801ec55   Thumb Code    68  stm32f4xx_hal_uart.o(.text)
    HAL_HalfDuplex_EnableReceiver            0x0801ec99   Thumb Code    68  stm32f4xx_hal_uart.o(.text)
    HAL_UART_GetState                        0x0801ecdd   Thumb Code    20  stm32f4xx_hal_uart.o(.text)
    HAL_UART_GetError                        0x0801ecf1   Thumb Code     6  stm32f4xx_hal_uart.o(.text)
    USB_CoreInit                             0x0801ed43   Thumb Code   128  stm32f4xx_ll_usb.o(.text)
    USB_SetTurnaroundTime                    0x0801edc3   Thumb Code   192  stm32f4xx_ll_usb.o(.text)
    USB_EnableGlobalInt                      0x0801ee83   Thumb Code    14  stm32f4xx_ll_usb.o(.text)
    USB_DisableGlobalInt                     0x0801ee91   Thumb Code    14  stm32f4xx_ll_usb.o(.text)
    USB_SetCurrentMode                       0x0801ee9f   Thumb Code    54  stm32f4xx_ll_usb.o(.text)
    USB_FlushRxFifo                          0x0801eed5   Thumb Code    38  stm32f4xx_ll_usb.o(.text)
    USB_FlushTxFifo                          0x0801eefb   Thumb Code    44  stm32f4xx_ll_usb.o(.text)
    USB_SetDevSpeed                          0x0801ef27   Thumb Code    18  stm32f4xx_ll_usb.o(.text)
    USB_DevInit                              0x0801ef39   Thumb Code   526  stm32f4xx_ll_usb.o(.text)
    USB_GetDevSpeed                          0x0801f147   Thumb Code    38  stm32f4xx_ll_usb.o(.text)
    USB_ActivateEndpoint                     0x0801f16d   Thumb Code   202  stm32f4xx_ll_usb.o(.text)
    USB_ActivateDedicatedEndpoint            0x0801f237   Thumb Code   198  stm32f4xx_ll_usb.o(.text)
    USB_DeactivateEndpoint                   0x0801f2fd   Thumb Code   318  stm32f4xx_ll_usb.o(.text)
    USB_DeactivateDedicatedEndpoint          0x0801f43b   Thumb Code   282  stm32f4xx_ll_usb.o(.text)
    USB_WritePacket                          0x0801f555   Thumb Code    60  stm32f4xx_ll_usb.o(.text)
    USB_EPStartXfer                          0x0801f591   Thumb Code   832  stm32f4xx_ll_usb.o(.text)
    USB_EP0StartXfer                         0x0801f8d1   Thumb Code   474  stm32f4xx_ll_usb.o(.text)
    USB_ReadPacket                           0x0801faab   Thumb Code    34  stm32f4xx_ll_usb.o(.text)
    USB_EPSetStall                           0x0801facd   Thumb Code   154  stm32f4xx_ll_usb.o(.text)
    USB_EPClearStall                         0x0801fb67   Thumb Code   142  stm32f4xx_ll_usb.o(.text)
    USB_StopDevice                           0x0801fbf5   Thumb Code    92  stm32f4xx_ll_usb.o(.text)
    USB_SetDevAddress                        0x0801fc51   Thumb Code    42  stm32f4xx_ll_usb.o(.text)
    USB_DevConnect                           0x0801fc7b   Thumb Code    36  stm32f4xx_ll_usb.o(.text)
    USB_DevDisconnect                        0x0801fc9f   Thumb Code    36  stm32f4xx_ll_usb.o(.text)
    USB_ReadInterrupts                       0x0801fcc3   Thumb Code    10  stm32f4xx_ll_usb.o(.text)
    USB_ReadDevAllOutEpInterrupt             0x0801fccd   Thumb Code    20  stm32f4xx_ll_usb.o(.text)
    USB_ReadDevAllInEpInterrupt              0x0801fce1   Thumb Code    20  stm32f4xx_ll_usb.o(.text)
    USB_ReadDevOutEPInterrupt                0x0801fcf5   Thumb Code    26  stm32f4xx_ll_usb.o(.text)
    USB_ReadDevInEPInterrupt                 0x0801fd0f   Thumb Code    50  stm32f4xx_ll_usb.o(.text)
    USB_ClearInterrupts                      0x0801fd41   Thumb Code     8  stm32f4xx_ll_usb.o(.text)
    USB_GetMode                              0x0801fd49   Thumb Code    10  stm32f4xx_ll_usb.o(.text)
    USB_ActivateSetup                        0x0801fd53   Thumb Code    40  stm32f4xx_ll_usb.o(.text)
    USB_EP0_OutStart                         0x0801fd7b   Thumb Code   106  stm32f4xx_ll_usb.o(.text)
    USB_DriveVbus                            0x0801fde5   Thumb Code    84  stm32f4xx_ll_usb.o(.text)
    USB_HostInit                             0x0801fe39   Thumb Code   234  stm32f4xx_ll_usb.o(.text)
    USB_InitFSLSPClkSel                      0x0801ff23   Thumb Code    68  stm32f4xx_ll_usb.o(.text)
    USB_ResetPort                            0x0801ff67   Thumb Code    60  stm32f4xx_ll_usb.o(.text)
    USB_GetHostSpeed                         0x0801ffa3   Thumb Code    24  stm32f4xx_ll_usb.o(.text)
    USB_GetCurrentFrame                      0x0801ffbb   Thumb Code    14  stm32f4xx_ll_usb.o(.text)
    USB_HC_Init                              0x0801ffc9   Thumb Code   420  stm32f4xx_ll_usb.o(.text)
    USB_DoPing                               0x0802016d   Thumb Code    64  stm32f4xx_ll_usb.o(.text)
    USB_HC_StartXfer                         0x080201ad   Thumb Code   482  stm32f4xx_ll_usb.o(.text)
    USB_HC_ReadInterrupt                     0x0802038f   Thumb Code    14  stm32f4xx_ll_usb.o(.text)
    USB_HC_Halt                              0x0802039d   Thumb Code   432  stm32f4xx_ll_usb.o(.text)
    USB_StopHost                             0x0802054d   Thumb Code   180  stm32f4xx_ll_usb.o(.text)
    USB_ActivateRemoteWakeup                 0x08020601   Thumb Code    36  stm32f4xx_ll_usb.o(.text)
    USB_DeActivateRemoteWakeup               0x08020625   Thumb Code    24  stm32f4xx_ll_usb.o(.text)
    osKernelStart                            0x0802066d   Thumb Code    10  cmsis_os.o(.text)
    osKernelRunning                          0x08020677   Thumb Code    18  cmsis_os.o(.text)
    osKernelSysTick                          0x08020689   Thumb Code    20  cmsis_os.o(.text)
    osThreadCreate                           0x0802069d   Thumb Code    48  cmsis_os.o(.text)
    osThreadGetId                            0x080206cd   Thumb Code     8  cmsis_os.o(.text)
    osThreadTerminate                        0x080206d5   Thumb Code    14  cmsis_os.o(.text)
    osThreadYield                            0x080206e3   Thumb Code    20  cmsis_os.o(.text)
    osThreadSetPriority                      0x080206f7   Thumb Code    26  cmsis_os.o(.text)
    osThreadGetPriority                      0x08020711   Thumb Code    38  cmsis_os.o(.text)
    osDelay                                  0x08020737   Thumb Code    24  cmsis_os.o(.text)
    osTimerCreate                            0x0802074f   Thumb Code     6  cmsis_os.o(.text)
    osTimerStart                             0x08020755   Thumb Code     8  cmsis_os.o(.text)
    osTimerStop                              0x0802075d   Thumb Code     8  cmsis_os.o(.text)
    osTimerDelete                            0x08020765   Thumb Code     8  cmsis_os.o(.text)
    osSignalSet                              0x0802076d   Thumb Code    92  cmsis_os.o(.text)
    osSignalWait                             0x080207c9   Thumb Code    98  cmsis_os.o(.text)
    osMutexCreate                            0x0802082b   Thumb Code    12  cmsis_os.o(.text)
    osMutexWait                              0x08020837   Thumb Code   100  cmsis_os.o(.text)
    osMutexRelease                           0x0802089b   Thumb Code    76  cmsis_os.o(.text)
    osMutexDelete                            0x080208e7   Thumb Code    24  cmsis_os.o(.text)
    osSemaphoreCreate                        0x080208ff   Thumb Code    50  cmsis_os.o(.text)
    osSemaphoreWait                          0x08020931   Thumb Code   100  cmsis_os.o(.text)
    osSemaphoreRelease                       0x08020995   Thumb Code    76  cmsis_os.o(.text)
    osSemaphoreDelete                        0x080209e1   Thumb Code    24  cmsis_os.o(.text)
    osPoolCreate                             0x080209f9   Thumb Code   112  cmsis_os.o(.text)
    osPoolAlloc                              0x08020a69   Thumb Code   130  cmsis_os.o(.text)
    osPoolCAlloc                             0x08020aeb   Thumb Code    22  cmsis_os.o(.text)
    osPoolFree                               0x08020b01   Thumb Code    74  cmsis_os.o(.text)
    osMessageCreate                          0x08020b4b   Thumb Code    18  cmsis_os.o(.text)
    osMessagePut                             0x08020b5d   Thumb Code    92  cmsis_os.o(.text)
    osMessageGet                             0x08020bb9   Thumb Code   150  cmsis_os.o(.text)
    osMailCreate                             0x08020c4f   Thumb Code   122  cmsis_os.o(.text)
    osMailAlloc                              0x08020cc9   Thumb Code    24  cmsis_os.o(.text)
    osMailCAlloc                             0x08020ce1   Thumb Code    44  cmsis_os.o(.text)
    osMailPut                                0x08020d0d   Thumb Code    90  cmsis_os.o(.text)
    osMailGet                                0x08020d67   Thumb Code   146  cmsis_os.o(.text)
    osMailFree                               0x08020df9   Thumb Code    22  cmsis_os.o(.text)
    osSystickHandler                         0x08020e0f   Thumb Code    16  cmsis_os.o(.text)
    osThreadSuspend                          0x08020e1f   Thumb Code    14  cmsis_os.o(.text)
    osThreadResume                           0x08020e2d   Thumb Code    46  cmsis_os.o(.text)
    osThreadSuspendAll                       0x08020e5b   Thumb Code    10  cmsis_os.o(.text)
    osThreadResumeAll                        0x08020e65   Thumb Code    18  cmsis_os.o(.text)
    osDelayUntil                             0x08020e77   Thumb Code     6  cmsis_os.o(.text)
    osAbortDelay                             0x08020e7d   Thumb Code     6  cmsis_os.o(.text)
    osThreadList                             0x08020e83   Thumb Code     6  cmsis_os.o(.text)
    osMessagePeek                            0x08020e89   Thumb Code    86  cmsis_os.o(.text)
    osMessageWaiting                         0x08020edf   Thumb Code    26  cmsis_os.o(.text)
    osMessageAvailableSpace                  0x08020ef9   Thumb Code    12  cmsis_os.o(.text)
    osMessageDelete                          0x08020f05   Thumb Code    24  cmsis_os.o(.text)
    osRecursiveMutexCreate                   0x08020f1d   Thumb Code     6  cmsis_os.o(.text)
    osRecursiveMutexRelease                  0x08020f23   Thumb Code     6  cmsis_os.o(.text)
    osRecursiveMutexWait                     0x08020f29   Thumb Code     6  cmsis_os.o(.text)
    osSemaphoreGetCount                      0x08020f2f   Thumb Code    12  cmsis_os.o(.text)
    pvPortMalloc                             0x08021001   Thumb Code   306  heap_4.o(.text)
    vPortFree                                0x08021133   Thumb Code   150  heap_4.o(.text)
    xPortGetFreeHeapSize                     0x080211c9   Thumb Code     6  heap_4.o(.text)
    xPortGetMinimumEverFreeHeapSize          0x080211cf   Thumb Code     6  heap_4.o(.text)
    vPortInitialiseBlocks                    0x080211d5   Thumb Code     2  heap_4.o(.text)
    vPortGetHeapStats                        0x080211d7   Thumb Code   104  heap_4.o(.text)
    pxPortInitialiseStack                    0x080212a1   Thumb Code    38  port.o(.text)
    vPortSetupTimerInterrupt                 0x080212c7   Thumb Code    26  port.o(.text)
    xPortStartScheduler                      0x080212e1   Thumb Code   288  port.o(.text)
    vPortEndScheduler                        0x08021401   Thumb Code    42  port.o(.text)
    vPortEnterCritical                       0x0802142b   Thumb Code    78  port.o(.text)
    vPortExitCritical                        0x08021479   Thumb Code    56  port.o(.text)
    SysTick_Handler                          0x080214b1   Thumb Code    48  port.o(.text)
    vPortValidateInterruptPriority           0x080214e1   Thumb Code   108  port.o(.text)
    vListInitialise                          0x08021571   Thumb Code    26  list.o(.text)
    vListInitialiseItem                      0x0802158b   Thumb Code     6  list.o(.text)
    vListInsertEnd                           0x08021591   Thumb Code    24  list.o(.text)
    vListInsert                              0x080215a9   Thumb Code    52  list.o(.text)
    uxListRemove                             0x080215dd   Thumb Code    40  list.o(.text)
    xQueueGenericReset                       0x08021605   Thumb Code   146  queue.o(.text)
    xQueueGenericCreate                      0x080216bd   Thumb Code    84  queue.o(.text)
    xQueueGenericSend                        0x0802182b   Thumb Code   420  queue.o(.text)
    xQueueCreateMutex                        0x080219ed   Thumb Code    34  queue.o(.text)
    xQueueCreateCountingSemaphore            0x08021a0f   Thumb Code    98  queue.o(.text)
    xQueueGenericSendFromISR                 0x08021a71   Thumb Code   252  queue.o(.text)
    xQueueGiveFromISR                        0x08021b6d   Thumb Code   224  queue.o(.text)
    xQueueReceive                            0x08021c91   Thumb Code   356  queue.o(.text)
    xQueueSemaphoreTake                      0x08021e09   Thumb Code   434  queue.o(.text)
    xQueuePeek                               0x08021fbb   Thumb Code   366  queue.o(.text)
    xQueueReceiveFromISR                     0x08022129   Thumb Code   202  queue.o(.text)
    xQueuePeekFromISR                        0x080221f3   Thumb Code   176  queue.o(.text)
    uxQueueMessagesWaiting                   0x080222a3   Thumb Code    42  queue.o(.text)
    uxQueueSpacesAvailable                   0x080222cd   Thumb Code    48  queue.o(.text)
    uxQueueMessagesWaitingFromISR            0x080222fd   Thumb Code    34  queue.o(.text)
    vQueueUnregisterQueue                    0x0802231f   Thumb Code    44  queue.o(.text)
    vQueueDelete                             0x0802234b   Thumb Code    44  queue.o(.text)
    xQueueIsQueueEmptyFromISR                0x08022377   Thumb Code    42  queue.o(.text)
    xQueueIsQueueFullFromISR                 0x080223a1   Thumb Code    46  queue.o(.text)
    vQueueAddToRegistry                      0x080223cf   Thumb Code    38  queue.o(.text)
    pcQueueGetName                           0x080223f5   Thumb Code    38  queue.o(.text)
    xTaskCreate                              0x080225b1   Thumb Code    96  tasks.o(.text)
    vTaskDelete                              0x0802264d   Thumb Code   202  tasks.o(.text)
    xTaskIncrementTick                       0x08022717   Thumb Code   362  tasks.o(.text)
    xTaskResumeAll                           0x08022881   Thumb Code   224  tasks.o(.text)
    vTaskSuspendAll                          0x080229dd   Thumb Code    12  tasks.o(.text)
    vTaskDelay                               0x080229e9   Thumb Code    82  tasks.o(.text)
    uxTaskPriorityGet                        0x08022a3b   Thumb Code    30  tasks.o(.text)
    uxTaskPriorityGetFromISR                 0x08022a59   Thumb Code    62  tasks.o(.text)
    vTaskPrioritySet                         0x08022a97   Thumb Code   260  tasks.o(.text)
    vTaskSwitchContext                       0x08022b9b   Thumb Code   118  tasks.o(.text)
    vTaskSuspend                             0x08022c11   Thumb Code   268  tasks.o(.text)
    vTaskResume                              0x08022d6d   Thumb Code   128  tasks.o(.text)
    xTaskResumeFromISR                       0x08022ded   Thumb Code   158  tasks.o(.text)
    vTaskStartScheduler                      0x08022ee7   Thumb Code   108  tasks.o(.text)
    vTaskEndScheduler                        0x08022f53   Thumb Code    32  tasks.o(.text)
    xTaskGetTickCount                        0x08022f73   Thumb Code     6  tasks.o(.text)
    xTaskGetTickCountFromISR                 0x08022f79   Thumb Code    16  tasks.o(.text)
    uxTaskGetNumberOfTasks                   0x08022f89   Thumb Code     6  tasks.o(.text)
    pcTaskGetName                            0x08022f8f   Thumb Code    44  tasks.o(.text)
    xTaskCatchUpTicks                        0x08022fbb   Thumb Code    66  tasks.o(.text)
    vTaskPlaceOnEventList                    0x08022ffd   Thumb Code    52  tasks.o(.text)
    vTaskPlaceOnUnorderedEventList           0x08023031   Thumb Code   172  tasks.o(.text)
    xTaskRemoveFromEventList                 0x080230dd   Thumb Code   128  tasks.o(.text)
    vTaskRemoveFromUnorderedEventList        0x0802315d   Thumb Code   142  tasks.o(.text)
    vTaskSetTimeOutState                     0x080231eb   Thumb Code    50  tasks.o(.text)
    vTaskInternalSetTimeOutState             0x0802321d   Thumb Code    14  tasks.o(.text)
    xTaskCheckForTimeOut                     0x0802322b   Thumb Code   132  tasks.o(.text)
    vTaskMissedYield                         0x080232af   Thumb Code     8  tasks.o(.text)
    xTaskGetCurrentTaskHandle                0x080232b7   Thumb Code     6  tasks.o(.text)
    xTaskGetSchedulerState                   0x080232bd   Thumb Code    24  tasks.o(.text)
    xTaskPriorityInherit                     0x080232d5   Thumb Code   172  tasks.o(.text)
    xTaskPriorityDisinherit                  0x08023381   Thumb Code   188  tasks.o(.text)
    vTaskPriorityDisinheritAfterTimeout      0x0802343d   Thumb Code   256  tasks.o(.text)
    uxTaskResetEventItemValue                0x0802353d   Thumb Code    24  tasks.o(.text)
    pvTaskIncrementMutexHeldCount            0x08023555   Thumb Code    26  tasks.o(.text)
    ulTaskNotifyTake                         0x0802356f   Thumb Code   108  tasks.o(.text)
    xTaskNotifyWait                          0x080235db   Thumb Code   150  tasks.o(.text)
    xTaskGenericNotify                       0x08023671   Thumb Code   280  tasks.o(.text)
    xTaskGenericNotifyFromISR                0x08023789   Thumb Code   334  tasks.o(.text)
    vTaskNotifyGiveFromISR                   0x080238d7   Thumb Code   246  tasks.o(.text)
    xTaskNotifyStateClear                    0x080239cd   Thumb Code    48  tasks.o(.text)
    ulTaskNotifyValueClear                   0x080239fd   Thumb Code    46  tasks.o(.text)
    HAL_HCD_MspInit                          0x08023a45   Thumb Code   160  usbh_conf.o(.text)
    HAL_HCD_MspDeInit                        0x08023ae5   Thumb Code    46  usbh_conf.o(.text)
    HAL_HCD_SOF_Callback                     0x08023b13   Thumb Code    14  usbh_conf.o(.text)
    HAL_HCD_Connect_Callback                 0x08023b21   Thumb Code    14  usbh_conf.o(.text)
    HAL_HCD_Disconnect_Callback              0x08023b2f   Thumb Code    14  usbh_conf.o(.text)
    HAL_HCD_HC_NotifyURBChange_Callback      0x08023b3d   Thumb Code    18  usbh_conf.o(.text)
    HAL_HCD_PortEnabled_Callback             0x08023b4f   Thumb Code    14  usbh_conf.o(.text)
    HAL_HCD_PortDisabled_Callback            0x08023b5d   Thumb Code    14  usbh_conf.o(.text)
    USBH_LL_Init                             0x08023b6b   Thumb Code    82  usbh_conf.o(.text)
    USBH_Get_USB_Status                      0x08023bbd   Thumb Code    44  usbh_conf.o(.text)
    USBH_LL_DeInit                           0x08023be9   Thumb Code    30  usbh_conf.o(.text)
    USBH_LL_Start                            0x08023c07   Thumb Code    30  usbh_conf.o(.text)
    USBH_LL_Stop                             0x08023c25   Thumb Code    30  usbh_conf.o(.text)
    USBH_LL_GetSpeed                         0x08023c43   Thumb Code    48  usbh_conf.o(.text)
    USBH_LL_ResetPort                        0x08023c73   Thumb Code    30  usbh_conf.o(.text)
    USBH_LL_GetLastXferSize                  0x08023c91   Thumb Code    18  usbh_conf.o(.text)
    USBH_LL_OpenPipe                         0x08023ca3   Thumb Code    64  usbh_conf.o(.text)
    USBH_LL_ClosePipe                        0x08023ce3   Thumb Code    38  usbh_conf.o(.text)
    USBH_LL_SubmitURB                        0x08023d09   Thumb Code    64  usbh_conf.o(.text)
    USBH_LL_GetURBState                      0x08023d49   Thumb Code    18  usbh_conf.o(.text)
    USBH_LL_DriverVBUS                       0x08023d5b   Thumb Code    26  usbh_conf.o(.text)
    USBH_LL_SetToggle                        0x08023d75   Thumb Code    70  usbh_conf.o(.text)
    USBH_LL_GetToggle                        0x08023dbb   Thumb Code    70  usbh_conf.o(.text)
    USBH_Delay                               0x08023e01   Thumb Code    12  usbh_conf.o(.text)
    GduTest_CameraGetOpticalZoomFactor       0x08025b0d   Thumb Code   496  test_payload_cam_emu_base.o(.text)
    GduTest_CameraGetDigitalZoomFactor       0x08025cfd   Thumb Code   144  test_payload_cam_emu_base.o(.text)
    GduTest_CameraGetMode                    0x08025d8d   Thumb Code   140  test_payload_cam_emu_base.o(.text)
    GduTest_CameraEmuBaseStartService        0x08025e19   Thumb Code  1366  test_payload_cam_emu_base.o(.text)
    GduTest_CameraGetVideoStreamType         0x0802636f   Thumb Code    26  test_payload_cam_emu_base.o(.text)
    GduTest_CameraIsInited                   0x08026389   Thumb Code     6  test_payload_cam_emu_base.o(.text)
    GduReceiveGpsPositionCallback            0x08026535   Thumb Code    16  test_fc_subscription.o(.text)
    GduTest_FcSubscriptionStartService       0x0802672d   Thumb Code   178  test_fc_subscription.o(.text)
    GduTest_FcSubscriptionRunSample          0x08026c6b   Thumb Code  1466  test_fc_subscription.o(.text)
    GduTest_FcSubscriptionDataShowTrigger    0x08027225   Thumb Code    18  test_fc_subscription.o(.text)
    GduTest_FcSubscriptionGetTotalSatelliteNumber 0x08027237   Thumb Code    14  test_fc_subscription.o(.text)
    GduTest_GimbalRotate                     0x08028bd9   Thumb Code  1462  test_payload_gimbal_emu.o(.text)
    GduTest_GimbalStartService               0x08029451   Thumb Code   350  test_payload_gimbal_emu.o(.text)
    GduTest_GimbalDeInit                     0x080295af   Thumb Code   234  test_payload_gimbal_emu.o(.text)
    GduTest_PositioningStartService          0x08029aa9   Thumb Code   128  test_positioning.o(.text)
    GduTest_TimeSyncRegHandler               0x08029d81   Thumb Code    70  test_time_sync.o(.text)
    GduTest_TimeSyncStartService             0x08029ec9   Thumb Code   256  test_time_sync.o(.text)
    GduTest_TimeSyncGetNewestPpsTriggerLocalTimeUs 0x08029fc9   Thumb Code    42  test_time_sync.o(.text)
    UtilMd5_Transform                        0x0802a205   Thumb Code  2434  util_md5.o(.text)
    UtilMd5_Init                             0x0802ab87   Thumb Code    30  util_md5.o(.text)
    UtilMd5_Update                           0x0802aba5   Thumb Code    68  util_md5.o(.text)
    UtilMd5_Final                            0x0802abe9   Thumb Code   234  util_md5.o(.text)
    GduTest_RegApplyHighPowerHandler         0x0802add9   Thumb Code    70  test_power_management.o(.text)
    GduTest_PowerManagementStartService      0x0802ae1f   Thumb Code   322  test_power_management.o(.text)
    GduTest_WidgetStartService               0x0802b22b   Thumb Code   232  test_widget.o(.text)
    GduTest_WidgetSetConfigFilePath          0x0802b313   Thumb Code    62  test_widget.o(.text)
    GduTest_WidgetLogAppend                  0x0802b351   Thumb Code     2  test_widget.o(.text)
    GduTest_UpgradeStartService              0x0802b6e1   Thumb Code   494  test_upgrade.o(.text)
    GduTestCommonFileTransfer_Start          0x0802bbb9   Thumb Code    86  test_upgrade_common_file_transfer.o(.text)
    GduTestCommonFileTransfer_getTransferProccess 0x0802bc0f   Thumb Code    18  test_upgrade_common_file_transfer.o(.text)
    GduTestCommonFileTransfer_Transfer       0x0802bc21   Thumb Code   118  test_upgrade_common_file_transfer.o(.text)
    GduTestCommonFileTransfer_Finish         0x0802bd7f   Thumb Code   154  test_upgrade_common_file_transfer.o(.text)
    GduTest_RegUpgradePlatformOpt            0x0802bf51   Thumb Code   280  test_upgrade_platform_opt.o(.text)
    GduTest_RebootSystem                     0x0802c069   Thumb Code    10  test_upgrade_platform_opt.o(.text)
    GduTest_CleanUpgradeProgramFileStoreArea 0x0802c073   Thumb Code    10  test_upgrade_platform_opt.o(.text)
    GduTest_CreateUpgradeProgramFile         0x0802c07d   Thumb Code    14  test_upgrade_platform_opt.o(.text)
    GduTest_WriteUpgradeProgramFile          0x0802c08b   Thumb Code    22  test_upgrade_platform_opt.o(.text)
    GduTest_ReadUpgradeProgramFile           0x0802c0a1   Thumb Code    32  test_upgrade_platform_opt.o(.text)
    GduTest_CloseUpgradeProgramFile          0x0802c0c1   Thumb Code    10  test_upgrade_platform_opt.o(.text)
    GduTest_ReplaceOldProgram                0x0802c0cb   Thumb Code    10  test_upgrade_platform_opt.o(.text)
    GduTest_SetUpgradeRebootState            0x0802c0d5   Thumb Code    14  test_upgrade_platform_opt.o(.text)
    GduTest_GetUpgradeRebootState            0x0802c0e3   Thumb Code    18  test_upgrade_platform_opt.o(.text)
    GduTest_CleanUpgradeRebootState          0x0802c0f5   Thumb Code    10  test_upgrade_platform_opt.o(.text)
    GduTest_PPKEventPinInit                  0x0802c339   Thumb Code    24  test_playload_ppk.o(.text)
    GduTest_PPKEventTrigger                  0x0802c351   Thumb Code    26  test_playload_ppk.o(.text)
    GduTest_PPKStartService                  0x0802c425   Thumb Code   138  test_playload_ppk.o(.text)
    GduAircraftInfo_GetBaseInfo              0x0802c5b5   Thumb Code     8  gdu_aircraft_info.o(.text)
    GduAircraftInfo_GetMobileAppInfo         0x0802c5bd   Thumb Code    24  gdu_aircraft_info.o(.text)
    GduCore_SendData                         0x0802c779   Thumb Code    32  gdu_core.o(.text)
    GduCore_SetAliasMsgSend                  0x0802c799   Thumb Code   158  gdu_core.o(.text)
    GduCore_Init                             0x0802c8f7   Thumb Code   268  gdu_core.o(.text)
    GduCore_SetAlias                         0x0802ca03   Thumb Code    26  gdu_core.o(.text)
    GduCore_ApplicationStart                 0x0802ca1d   Thumb Code    22  gdu_core.o(.text)
    GduCore_Reg_FunList                      0x0802ca33   Thumb Code   144  gdu_core.o(.text)
    GduCore_Del_FunList                      0x0802cac3   Thumb Code    72  gdu_core.o(.text)
    GduCode_GetIdInfo                        0x0802cb0b   Thumb Code    74  gdu_core.o(.text)
    GduCore_Subscibe                         0x0802cb55   Thumb Code   496  gdu_core.o(.text)
    GduCoreGetRecvQueuePercentUsed           0x0802cd45   Thumb Code    14  gdu_core.o(.text)
    GduCoreGetSendQueuePercentUsed           0x0802cd53   Thumb Code    14  gdu_core.o(.text)
    GduGimbal_RegCommonHandler               0x0802cd65   Thumb Code   118  gdu_gimbal.o(.text)
    GimbalSetMode                            0x0802cddb   Thumb Code    60  gdu_gimbal.o(.text)
    GimbalReset                              0x0802ce17   Thumb Code    44  gdu_gimbal.o(.text)
    ctrlDeviceCheck                          0x0802ce43   Thumb Code    30  gdu_gimbal.o(.text)
    GduGimbal_Init                           0x0802d227   Thumb Code    62  gdu_gimbal.o(.text)
    GduGimbal_DeInit                         0x0802d265   Thumb Code     6  gdu_gimbal.o(.text)
    GduLogger_LogInit                        0x0802d80d   Thumb Code    16  gdu_logger.o(.text)
    GduLogger_AddConsole                     0x0802d81d   Thumb Code    68  gdu_logger.o(.text)
    Gdu_LogColourSet                         0x0802d861   Thumb Code    56  gdu_logger.o(.text)
    GduLogger_LogOutput                      0x0802d94d   Thumb Code   118  gdu_logger.o(.text)
    GduLogger_LogBin                         0x0802d9c3   Thumb Code    28  gdu_logger.o(.text)
    GduCam_TakeVideoStatus                   0x0802ddc3   Thumb Code   116  gdu_payload_camera.o(.text)
    GduPayloadCamera_Init                    0x0802df35   Thumb Code   242  gdu_payload_camera.o(.text)
    GduPayloadCamera_RegCommonHandler        0x0802e027   Thumb Code   148  gdu_payload_camera.o(.text)
    GduPayloadCamera_RegExposureMeteringHandler 0x0802e0bb   Thumb Code    92  gdu_payload_camera.o(.text)
    GduPayloadCamera_RegFocusHandler         0x0802e117   Thumb Code   112  gdu_payload_camera.o(.text)
    GduPayloadCamera_RegDigitalZoomHandler   0x0802e187   Thumb Code    84  gdu_payload_camera.o(.text)
    GduPayloadCamera_RegOpticalZoomHandler   0x0802e1db   Thumb Code   100  gdu_payload_camera.o(.text)
    GduPayloadCamera_RegTapZoomHandler       0x0802e23f   Thumb Code   100  gdu_payload_camera.o(.text)
    GduPayloadCamera_SetVideoStreamType      0x0802e2a3   Thumb Code     8  gdu_payload_camera.o(.text)
    GduPayloadCamera_GetVideoStreamRemoteAddress 0x0802e2ab   Thumb Code    10  gdu_payload_camera.o(.text)
    GduPayloadCamera_GetVideoStreamState     0x0802e2b7   Thumb Code     8  gdu_payload_camera.o(.text)
    GduPayloadCamera_PushAddedMediaFileInfo  0x0802e2bf   Thumb Code    10  gdu_payload_camera.o(.text)
    GduPayloadCamera_GetCameraTypeOfPayload  0x0802e2c9   Thumb Code    10  gdu_payload_camera.o(.text)
    GduPayloadCamera_GetCameraOpticalZoomSpecOfPayload 0x0802e2d3   Thumb Code    10  gdu_payload_camera.o(.text)
    GduPayloadCamera_GetCameraHybridZoomFocalLengthOfPayload 0x0802e2dd   Thumb Code    10  gdu_payload_camera.o(.text)
    GduCam_GetParam                          0x0802e2e7   Thumb Code   980  gdu_payload_camera.o(.text)
    GduCam_SetMode                           0x0802e6bb   Thumb Code   202  gdu_payload_camera.o(.text)
    GduCam_Cmd                               0x0802e7d9   Thumb Code   416  gdu_payload_camera.o(.text)
    GduCam_SetShootPhotoP                    0x0802e979   Thumb Code   228  gdu_payload_camera.o(.text)
    GduCam_ShootPhoto                        0x0802ea5d   Thumb Code   500  gdu_payload_camera.o(.text)
    GduCam_SetShootPhotoPar                  0x0802ec51   Thumb Code   238  gdu_payload_camera.o(.text)
    GduCam_RecordVideo                       0x0802ed3f   Thumb Code   354  gdu_payload_camera.o(.text)
    GduCam_FormatSDCard                      0x0802eea1   Thumb Code   236  gdu_payload_camera.o(.text)
    GduCam_Focus                             0x0802ef8d   Thumb Code   514  gdu_payload_camera.o(.text)
    GduCam_DigitalZoomFocus                  0x0802f18f   Thumb Code     8  gdu_payload_camera.o(.text)
    GduCam_OpticalZoomFocal                  0x0802f197   Thumb Code   224  gdu_payload_camera.o(.text)
    GduCam_OpticalZoomFocalParSet            0x0802f277   Thumb Code   162  gdu_payload_camera.o(.text)
    GduCam_Metering                          0x0802f319   Thumb Code   308  gdu_payload_camera.o(.text)
    GduCam_DigitalZoomFactor                 0x0802f44d   Thumb Code   198  gdu_payload_camera.o(.text)
    GduPlatform_RegHalUartHandler            0x08030381   Thumb Code    20  gdu_platform.o(.text)
    GduPlatform_RegHalUsbBulkHandler         0x08030395   Thumb Code    20  gdu_platform.o(.text)
    GduPlatform_RegHalNetworkHandler         0x080303a9   Thumb Code    20  gdu_platform.o(.text)
    GduPlatform_RegOsalHandler               0x080303bd   Thumb Code    20  gdu_platform.o(.text)
    GduPlatform_RegFileSystemHandler         0x080303d1   Thumb Code    20  gdu_platform.o(.text)
    GduPlatform_RegSocketHandler             0x080303e5   Thumb Code    20  gdu_platform.o(.text)
    GduPlatform_GetOsalHandler               0x080303f9   Thumb Code     6  gdu_platform.o(.text)
    GduPlatform_GetFileSystemHandler         0x080303ff   Thumb Code     6  gdu_platform.o(.text)
    GduPlatform_GetSocketHandler             0x08030405   Thumb Code     6  gdu_platform.o(.text)
    GduPositioning_getDate                   0x08030569   Thumb Code    34  gdu_positioning.o(.text)
    GduPositioning_setFlag                   0x08030cf7   Thumb Code     6  gdu_positioning.o(.text)
    GduPositioning_Init                      0x08030f1b   Thumb Code   102  gdu_positioning.o(.text)
    GduPositioning_SetTaskIndex              0x08030f81   Thumb Code     2  gdu_positioning.o(.text)
    GduPositioning_GetPositionInformationSync 0x08031073   Thumb Code  2314  gdu_positioning.o(.text)
    GduPowerManagement_Init                  0x08031b11   Thumb Code    14  gdu_power_management.o(.text)
    GduPowerManagement_ApplyHighPowerSync    0x08031b1f   Thumb Code    20  gdu_power_management.o(.text)
    GduPowerManagement_RegWriteHighPowerApplyPinCallback 0x08031b33   Thumb Code    12  gdu_power_management.o(.text)
    GduPPK_Init                              0x08031dfb   Thumb Code   158  gdu_ppk.o(.text)
    GduPPK_RegHandlerList                    0x08031e99   Thumb Code    34  gdu_ppk.o(.text)
    utc2gps                                  0x08031ebb   Thumb Code   314  gdu_ppk.o(.text)
    GduPPK_GetQianXunEventData               0x08031ff5   Thumb Code   324  gdu_ppk.o(.text)
    GduPPK_GetRawData                        0x08032139   Thumb Code    90  gdu_ppk.o(.text)
    GduPPK_GetRawDataCount                   0x08032193   Thumb Code    24  gdu_ppk.o(.text)
    GduFcSubscription_getPosSolutionProperty 0x080321bd   Thumb Code     6  gdu_subscribeinfo.o(.text)
    GduPayloadSubscribe_Init                 0x08032b8d   Thumb Code    78  gdu_subscribeinfo.o(.text)
    GduFcSubscription_Init                   0x08032bdb   Thumb Code    22  gdu_subscribeinfo.o(.text)
    GduFcSubscription_DeInit                 0x08032bf1   Thumb Code    22  gdu_subscribeinfo.o(.text)
    GduFcSubscription_SubscribeTopic         0x08032c07   Thumb Code   128  gdu_subscribeinfo.o(.text)
    GduFcSubscription_GetLatestValueOfTopic  0x08032c87   Thumb Code    32  gdu_subscribeinfo.o(.text)
    getPostioningInfo                        0x08032ca7   Thumb Code     4  gdu_subscribeinfo.o(.text)
    get_isFpvOn                              0x08032ecd   Thumb Code     6  gdu_subscribeinfo.o(.text)
    GduUpdate_ftp_connect                    0x0803368d   Thumb Code   120  gdu_upgrade.o(.text)
    GduUpdate_req_fileinfo                   0x08033705   Thumb Code   128  gdu_upgrade.o(.text)
    GduUpdate_req_download                   0x08033785   Thumb Code   146  gdu_upgrade.o(.text)
    StringToHex                              0x08033817   Thumb Code   188  gdu_upgrade.o(.text)
    HandleRequest_Message                    0x080338d3   Thumb Code   982  gdu_upgrade.o(.text)
    HandleRequestAckMessage                  0x08033ca9   Thumb Code   216  gdu_upgrade.o(.text)
    GduUpgrade_Init                          0x08033dc5   Thumb Code   118  gdu_upgrade.o(.text)
    GduUpgrade_EnableLocalUpgrade            0x08033e3b   Thumb Code     6  gdu_upgrade.o(.text)
    GduUpgrade_RegHandler                    0x08033e41   Thumb Code    18  gdu_upgrade.o(.text)
    GduUpgrade_PushUpgradeState              0x08033e53   Thumb Code   140  gdu_upgrade.o(.text)
    GduWidget_Init                           0x08034935   Thumb Code    94  gdu_widget.o(.text)
    GduWidget_RegDefaultUiConfigByDirPath    0x08034993   Thumb Code     8  gdu_widget.o(.text)
    GduWidget_RegUiConfigByDirPath           0x0803499b   Thumb Code    12  gdu_widget.o(.text)
    GduWidget_RegDefaultUiConfigByBinaryArray 0x080349a7   Thumb Code    44  gdu_widget.o(.text)
    GduWidget_RegUiConfigByBinaryArray       0x080349d3   Thumb Code    12  gdu_widget.o(.text)
    GduWidget_RegHandlerList                 0x080349df   Thumb Code    30  gdu_widget.o(.text)
    GduWidgetFloatingWindow_ShowMessage      0x080349fd   Thumb Code   236  gdu_widget.o(.text)
    GduWidgetFloatingWindow_GetChannelState  0x08034ae9   Thumb Code     8  gdu_widget.o(.text)
    get_timeSyncMsg                          0x08035279   Thumb Code    24  time_sync.o(.text)
    standard_to_stamp                        0x08035291   Thumb Code   108  time_sync.o(.text)
    GduTimeSync_Init                         0x08035615   Thumb Code   428  time_sync.o(.text)
    GduTimeSync_RegGetNewestPpsTriggerTimeCallback 0x080357c1   Thumb Code    12  time_sync.o(.text)
    GduTimeSync_TransferToAircraftTime       0x080357cd   Thumb Code   180  time_sync.o(.text)
    get_adaptRingSn                          0x08035a0d   Thumb Code    16  basemsghandle.o(.text)
    get_comId                                0x08035a1d   Thumb Code     6  basemsghandle.o(.text)
    get_appInfo                              0x08035a23   Thumb Code    14  basemsghandle.o(.text)
    baseMessage_requestComID                 0x08035a59   Thumb Code   126  basemsghandle.o(.text)
    baseMessage_requestAdaptorSN             0x08035ad7   Thumb Code   122  basemsghandle.o(.text)
    getMobileAppInfo                         0x08035b51   Thumb Code   100  basemsghandle.o(.text)
    baseMsg_assignComId_ack                  0x08035bb5   Thumb Code   160  basemsghandle.o(.text)
    baseMsg_adapterRingSn_ack                0x08035c55   Thumb Code   150  basemsghandle.o(.text)
    baseMsg_getAppInfo_ack                   0x08035ceb   Thumb Code   124  basemsghandle.o(.text)
    GduPayloadBaseMsg_Init                   0x08035f4f   Thumb Code   102  basemsghandle.o(.text)
    Queue_Create                             0x0803615d   Thumb Code     2  gdu_cache.o(.text)
    Queue_Close                              0x0803615f   Thumb Code     2  gdu_cache.o(.text)
    EnQueue                                  0x08036161   Thumb Code    92  gdu_cache.o(.text)
    DeQueue                                  0x080361bd   Thumb Code    80  gdu_cache.o(.text)
    GetQueuePercentUsed                      0x0803620d   Thumb Code    40  gdu_cache.o(.text)
    GduSerial_Init                           0x0803623d   Thumb Code   128  gdu_serial.o(.text)
    GduSerial_Read                           0x080362bd   Thumb Code    76  gdu_serial.o(.text)
    GduSerial_Write                          0x08036309   Thumb Code    76  gdu_serial.o(.text)
    npcInit                                  0x0803674d   Thumb Code    10  npc.o(.text)
    NpcLinkCreate                            0x08036757   Thumb Code   312  npc.o(.text)
    NpcLinkSendPacket                        0x0803688f   Thumb Code   142  npc.o(.text)
    NpcLinkconnect                           0x0803691d   Thumb Code   118  npc.o(.text)
    NpcLinkDisconnect                        0x08036993   Thumb Code    74  npc.o(.text)
    NpcLinkSendHeartbeat                     0x080369dd   Thumb Code    90  npc.o(.text)
    NpcLinkHandleReadyPaket                  0x08036ab5   Thumb Code    64  npc.o(.text)
    NpcLinkHandleData                        0x08036af5   Thumb Code   170  npc.o(.text)
    npcSendData                              0x08036b9f   Thumb Code    76  npc.o(.text)
    NpcLinkSubscibe                          0x08036beb   Thumb Code   112  npc.o(.text)
    npc_recvServer                           0x08036c5b   Thumb Code   176  npc.o(.text)
    npc_unpackProcessServer                  0x08036d0b   Thumb Code   152  npc.o(.text)
    npc_heartbeatServer                      0x08036da3   Thumb Code   146  npc.o(.text)
    npc_sendServer                           0x08036e35   Thumb Code   144  npc.o(.text)
    npcStart                                 0x08036ec5   Thumb Code   236  npc.o(.text)
    glink_encode                             0x080372a5   Thumb Code   298  gdu_glink.o(.text)
    glListInit                               0x080373cf   Thumb Code    48  general_linked_list.o(.text)
    glListInsterNode                         0x080373ff   Thumb Code    62  general_linked_list.o(.text)
    glListDeleteNode                         0x0803743d   Thumb Code    74  general_linked_list.o(.text)
    glListErgodic                            0x08037487   Thumb Code    34  general_linked_list.o(.text)
    glListClearNullNode                      0x080374a9   Thumb Code   124  general_linked_list.o(.text)
    __aeabi_uldivmod                         0x08037525   Thumb Code    98  uldiv.o(.text)
    mktime                                   0x08037589   Thumb Code   150  mktime.o(.text)
    __aeabi_memcpy                           0x08037631   Thumb Code    36  memcpya.o(.text)
    __aeabi_memcpy4                          0x08037631   Thumb Code     0  memcpya.o(.text)
    __aeabi_memcpy8                          0x08037631   Thumb Code     0  memcpya.o(.text)
    __aeabi_memset                           0x08037655   Thumb Code    14  memseta.o(.text)
    __aeabi_memset4                          0x08037655   Thumb Code     0  memseta.o(.text)
    __aeabi_memset8                          0x08037655   Thumb Code     0  memseta.o(.text)
    __aeabi_memclr                           0x08037663   Thumb Code     4  memseta.o(.text)
    __aeabi_memclr4                          0x08037663   Thumb Code     0  memseta.o(.text)
    __aeabi_memclr8                          0x08037663   Thumb Code     0  memseta.o(.text)
    _memset$wrapper                          0x08037667   Thumb Code    18  memseta.o(.text)
    strstr                                   0x08037679   Thumb Code    36  strstr.o(.text)
    strncpy                                  0x0803769d   Thumb Code    24  strncpy.o(.text)
    strlen                                   0x080376b5   Thumb Code    14  strlen.o(.text)
    strcmp                                   0x080376c3   Thumb Code    28  strcmp.o(.text)
    memcmp                                   0x080376df   Thumb Code    26  memcmp.o(.text)
    strcpy                                   0x080376f9   Thumb Code    18  strcpy.o(.text)
    strncmp                                  0x0803770b   Thumb Code    30  strncmp.o(.text)
    atoi                                     0x08037729   Thumb Code    26  atoi.o(.text)
    atol                                     0x08037743   Thumb Code    26  atol.o(.text)
    __aeabi_dadd                             0x0803775d   Thumb Code   322  dadd.o(.text)
    __aeabi_dsub                             0x0803789f   Thumb Code     6  dadd.o(.text)
    __aeabi_drsub                            0x080378a5   Thumb Code     6  dadd.o(.text)
    __aeabi_dmul                             0x080378ab   Thumb Code   228  dmul.o(.text)
    __aeabi_ddiv                             0x0803798f   Thumb Code   222  ddiv.o(.text)
    __aeabi_i2d                              0x08037a6d   Thumb Code    34  dflti.o(.text)
    __aeabi_d2iz                             0x08037a8f   Thumb Code    62  dfixi.o(.text)
    __aeabi_f2d                              0x08037acd   Thumb Code    38  f2d.o(.text)
    __aeabi_cdrcmple                         0x08037af5   Thumb Code    48  cdrcmple.o(.text)
    __aeabi_uidiv                            0x08037b25   Thumb Code     0  uidiv.o(.text)
    __aeabi_uidivmod                         0x08037b25   Thumb Code    44  uidiv.o(.text)
    __aeabi_llsl                             0x08037b51   Thumb Code    30  llshl.o(.text)
    _ll_shift_l                              0x08037b51   Thumb Code     0  llshl.o(.text)
    __aeabi_llsr                             0x08037b6f   Thumb Code    32  llushr.o(.text)
    _ll_ushift_r                             0x08037b6f   Thumb Code     0  llushr.o(.text)
    __aeabi_lasr                             0x08037b8f   Thumb Code    36  llsshr.o(.text)
    _ll_sshift_r                             0x08037b8f   Thumb Code     0  llsshr.o(.text)
    localtime                                0x08037bb5   Thumb Code     6  localtime_w.o(.text)
    _localtime                               0x08037bc1   Thumb Code   134  localtime_i.o(.text)
    strtol                                   0x08037c4d   Thumb Code   112  strtol.o(.text)
    __I$use$fp                               0x08037cbd   Thumb Code     0  iusefp.o(.text)
    _double_round                            0x08037cbd   Thumb Code    30  depilogue.o(.text)
    _double_epilogue                         0x08037cdb   Thumb Code   156  depilogue.o(.text)
    __aeabi_d2ulz                            0x08037d77   Thumb Code    48  dfixul.o(.text)
    __scatterload                            0x08037da9   Thumb Code    28  init.o(.text)
    __scatterload_rt2                        0x08037da9   Thumb Code     0  init.o(.text)
    __rt_ctype_table                         0x08037dcd   Thumb Code     4  ctype_o.o(.text)
    _strtoul                                 0x08037dd5   Thumb Code   158  _strtoul.o(.text)
    _chval                                   0x08037e73   Thumb Code    28  _chval.o(.text)
    __decompress                             0x08037e8f   Thumb Code     0  __dczerorl2.o(.text)
    __decompress1                            0x08037e8f   Thumb Code    86  __dczerorl2.o(.text)
    __0printf                                0x08037ee5   Thumb Code    22  printfa.o(i.__0printf)
    __1printf                                0x08037ee5   Thumb Code     0  printfa.o(i.__0printf)
    __2printf                                0x08037ee5   Thumb Code     0  printfa.o(i.__0printf)
    __c89printf                              0x08037ee5   Thumb Code     0  printfa.o(i.__0printf)
    printf                                   0x08037ee5   Thumb Code     0  printfa.o(i.__0printf)
    __0snprintf                              0x08037f05   Thumb Code    44  printfa.o(i.__0snprintf)
    __1snprintf                              0x08037f05   Thumb Code     0  printfa.o(i.__0snprintf)
    __2snprintf                              0x08037f05   Thumb Code     0  printfa.o(i.__0snprintf)
    __c89snprintf                            0x08037f05   Thumb Code     0  printfa.o(i.__0snprintf)
    snprintf                                 0x08037f05   Thumb Code     0  printfa.o(i.__0snprintf)
    __0sprintf                               0x08037f35   Thumb Code    34  printfa.o(i.__0sprintf)
    __1sprintf                               0x08037f35   Thumb Code     0  printfa.o(i.__0sprintf)
    __2sprintf                               0x08037f35   Thumb Code     0  printfa.o(i.__0sprintf)
    __c89sprintf                             0x08037f35   Thumb Code     0  printfa.o(i.__0sprintf)
    sprintf                                  0x08037f35   Thumb Code     0  printfa.o(i.__0sprintf)
    __0vsprintf                              0x08037f5d   Thumb Code    30  printfa.o(i.__0vsprintf)
    __1vsprintf                              0x08037f5d   Thumb Code     0  printfa.o(i.__0vsprintf)
    __2vsprintf                              0x08037f5d   Thumb Code     0  printfa.o(i.__0vsprintf)
    __c89vsprintf                            0x08037f5d   Thumb Code     0  printfa.o(i.__0vsprintf)
    vsprintf                                 0x08037f5d   Thumb Code     0  printfa.o(i.__0vsprintf)
    __ARM_fpclassifyf                        0x08037f81   Thumb Code    38  fpclassifyf.o(i.__ARM_fpclassifyf)
    __aeabi_errno_addr                       0x08037fa9   Thumb Code     4  errno.o(i.__aeabi_errno_addr)
    __rt_errno_addr                          0x08037fa9   Thumb Code     0  errno.o(i.__aeabi_errno_addr)
    __hardfp_asinf                           0x08037fb1   Thumb Code   258  asinf.o(i.__hardfp_asinf)
    __hardfp_atan2f                          0x080380dd   Thumb Code   502  atan2f.o(i.__hardfp_atan2f)
    __mathlib_flt_infnan                     0x0803832d   Thumb Code     6  funder.o(i.__mathlib_flt_infnan)
    __mathlib_flt_infnan2                    0x08038333   Thumb Code     6  funder.o(i.__mathlib_flt_infnan2)
    __mathlib_flt_invalid                    0x08038339   Thumb Code    10  funder.o(i.__mathlib_flt_invalid)
    __mathlib_flt_underflow                  0x08038349   Thumb Code    10  funder.o(i.__mathlib_flt_underflow)
    __scatterload_copy                       0x08038359   Thumb Code    14  handlers.o(i.__scatterload_copy)
    __scatterload_null                       0x08038367   Thumb Code     2  handlers.o(i.__scatterload_null)
    __scatterload_zeroinit                   0x08038369   Thumb Code    14  handlers.o(i.__scatterload_zeroinit)
    __set_errno                              0x08038379   Thumb Code     6  errno.o(i.__set_errno)
    free                                     0x08038c59   Thumb Code    76  malloc.o(i.free)
    malloc                                   0x08038ca9   Thumb Code    92  malloc.o(i.malloc)
    sqrtf                                    0x08038d15   Thumb Code    62  sqrtf.o(i.sqrtf)
    s_ledPin                                 0x08038e32   Data           8  led.o(.constdata)
    AHBPrescTable                            0x08038e61   Data          16  system_stm32f4xx.o(.constdata)
    APBPrescTable                            0x08038e71   Data           8  system_stm32f4xx.o(.constdata)
    __ctype_table                            0x0803ee16   Data         129  ctype_o.o(.constdata)
    Region$$Table$$Base                      0x0803f9e0   Number         0  anon$$obj.o(Region$$Table)
    Region$$Table$$Limit                     0x0803fa00   Number         0  anon$$obj.o(Region$$Table)
    s_ledPort                                0x2000000c   Data          16  led.o(.data)
    usbIrqFlag                               0x2000002c   Data           4  stm32f4xx_it.o(.data)
    SystemCoreClock                          0x20000030   Data           4  system_stm32f4xx.o(.data)
    CDC_Class                                0x20000084   Data          32  usbh_cdc.o(.data)
    ACMDataRecvQueue                         0x200000a4   Data           4  usbh_cdc.o(.data)
    ACMDataSendQueue                         0x200000a8   Data           4  usbh_cdc.o(.data)
    uwTick                                   0x200000ac   Data           4  stm32f4xx_hal.o(.data)
    uwTickPrio                               0x200000b0   Data           4  stm32f4xx_hal.o(.data)
    uwTickFreq                               0x200000b4   Data           1  stm32f4xx_hal.o(.data)
    pxCurrentTCB                             0x200000e4   Data           4  tasks.o(.data)
    g_EnBinaryArrayCount                     0x20000228   Data           4  file_binary_array_list_en.o(.data)
    g_EnFileBinaryArrayList                  0x2000022c   Data           4  file_binary_array_list_en.o(.data)
    UserInfo                                 0x2000027c   Data           4  gdu_core.o(.data)
    GimbalCommonHandler                      0x2000028c   Data           4  gdu_gimbal.o(.data)
    GimbalFunList                            0x20000290   Data         108  gdu_gimbal.o(.data)
    start_time                               0x2000030c   Data           4  gdu_logger.o(.data)
    loogerMutexHandle                        0x20000310   Data           4  gdu_logger.o(.data)
    submodule_function                       0x20000314   Data           2  gdu_payload_camera.o(.data)
    OsalHandler                              0x20000448   Data           4  gdu_platform.o(.data)
    HalUartHandler                           0x2000044c   Data           4  gdu_platform.o(.data)
    HalUsbBulkHandler                        0x20000450   Data           4  gdu_platform.o(.data)
    HalNetworkHandler                        0x20000454   Data           4  gdu_platform.o(.data)
    FileSystemHandler                        0x20000458   Data           4  gdu_platform.o(.data)
    SocketHandler                            0x2000045c   Data           4  gdu_platform.o(.data)
    LoggerConsole                            0x20000460   Data           8  gdu_platform.o(.data)
    isFpvOn                                  0x20000528   Data           4  gdu_subscribeinfo.o(.data)
    downloadFileAck                          0x200005b1   Data           6  gdu_upgrade.o(.data)
    GetNewestPpsTriggerLocalTimeUsCallback   0x20000624   Data           4  time_sync.o(.data)
    timeSyncMsg                              0x20000630   Data           3  time_sync.o(.data)
    year                                     0x20000633   Data           1  time_sync.o(.data)
    month                                    0x20000634   Data           1  time_sync.o(.data)
    day                                      0x20000635   Data           1  time_sync.o(.data)
    comId                                    0x20000663   Data           1  basemsghandle.o(.data)
    appInfo                                  0x20000664   Data           2  basemsghandle.o(.data)
    recv_count                               0x2000068c   Data           4  npc.o(.data)
    sendQueuePercent                         0x200006a6   Data           1  npc.o(.data)
    recvQueuePercent                         0x200006a7   Data           1  npc.o(.data)
    __stdout                                 0x200006a8   Data           4  stdout.o(.data)
    __microlib_freelist                      0x200006ac   Data           4  mvars.o(.data)
    __microlib_freelist_initialised          0x200006b0   Data           4  mvars.o(.data)
    hhcd_USB_OTG_FS                          0x200006b8   Data         772  stm32f4xx_it.o(.bss)
    htim1                                    0x200009bc   Data          72  stm32f4xx_it.o(.bss)
    pFlash                                   0x200047b8   Data          32  stm32f4xx_hal_flash.o(.bss)
    xQueueRegistry                           0x20016cd0   Data          64  queue.o(.bss)
    GduPPKHandlerList                        0x20017158   Data          12  test_playload_ppk.o(.bss)
    ProductAlias                             0x20017164   Data          30  gdu_core.o(.bss)
    status                                   0x20017184   Data          20  gdu_gimbal.o(.bss)
    sprint_buf                               0x20017198   Data         512  gdu_logger.o(.bss)
    log_buf                                  0x20017398   Data         512  gdu_logger.o(.bss)
    posAck                                   0x200179a8   Data          22  gdu_positioning.o(.bss)
    posState                                 0x200179be   Data         189  gdu_positioning.o(.bss)
    geomaticMsg                              0x2001b2c0   Data         106  gdu_positioning.o(.bss)
    aircraftBasicStateInfo1                  0x2001bb32   Data          97  gdu_subscribeinfo.o(.bss)
    aircraftBasicStateInfo2                  0x2001bb93   Data          72  gdu_subscribeinfo.o(.bss)
    aircraftAttitudeInfo                     0x2001bbdb   Data          34  gdu_subscribeinfo.o(.bss)
    aircraftSpeedInfo                        0x2001bbfd   Data          14  gdu_subscribeinfo.o(.bss)
    aircraftGnssInfo                         0x2001bc0b   Data          54  gdu_subscribeinfo.o(.bss)
    aircraftBatteryInfo                      0x2001bc41   Data          38  gdu_subscribeinfo.o(.bss)
    timeSyncInfo                             0x2001bc67   Data          16  gdu_subscribeinfo.o(.bss)
    subscribeInfo                            0x2001c64f   Data         384  gdu_subscribeinfo.o(.bss)
    upgradeConf                              0x2001c7e0   Data          20  gdu_upgrade.o(.bss)
    upgradeHandl                             0x2001c7f4   Data          16  gdu_upgrade.o(.bss)
    upgradeFileInfo                          0x2001c9ac   Data          68  gdu_upgrade.o(.bss)
    adapterRingSn                            0x2001ccd4   Data          20  basemsghandle.o(.bss)
    __heap_base                              0x2001cd18   Data           0  startup_stm32f407xx.o(HEAP)
    __heap_limit                             0x2001cf18   Data           0  startup_stm32f407xx.o(HEAP)
    __initial_sp                             0x2001d318   Data           0  startup_stm32f407xx.o(STACK)



==============================================================================

Memory Map of the image

  Image Entry point : 0x08010189

  Load Region LR_IROM1 (Base: 0x08010000, Size: 0x000300b8, Max: 0x00070000, ABSOLUTE, COMPRESSED[0x0002fc18])

    Execution Region ER_IROM1 (Exec base: 0x08010000, Load base: 0x08010000, Size: 0x0002fa00, Max: 0x00070000, ABSOLUTE)

    Exec Addr    Load Addr    Size         Type   Attr      Idx    E Section Name        Object

    0x08010000   0x08010000   0x00000188   Data   RO          484    RESET               startup_stm32f407xx.o
    0x08010188   0x08010188   0x00000000   Code   RO         2278  * .ARM.Collect$$$$00000000  mc_w.l(entry.o)
    0x08010188   0x08010188   0x00000004   Code   RO         2700    .ARM.Collect$$$$00000001  mc_w.l(entry2.o)
    0x0801018c   0x0801018c   0x00000004   Code   RO         2703    .ARM.Collect$$$$00000004  mc_w.l(entry5.o)
    0x08010190   0x08010190   0x00000000   Code   RO         2705    .ARM.Collect$$$$00000008  mc_w.l(entry7b.o)
    0x08010190   0x08010190   0x00000000   Code   RO         2707    .ARM.Collect$$$$0000000A  mc_w.l(entry8b.o)
    0x08010190   0x08010190   0x00000008   Code   RO         2708    .ARM.Collect$$$$0000000B  mc_w.l(entry9a.o)
    0x08010198   0x08010198   0x00000000   Code   RO         2710    .ARM.Collect$$$$0000000D  mc_w.l(entry10a.o)
    0x08010198   0x08010198   0x00000000   Code   RO         2712    .ARM.Collect$$$$0000000F  mc_w.l(entry11a.o)
    0x08010198   0x08010198   0x00000004   Code   RO         2701    .ARM.Collect$$$$00002712  mc_w.l(entry2.o)
    0x0801019c   0x0801019c   0x000000b6   Code   RO         1429    .emb_text           port.o
    0x08010252   0x08010252   0x00000002   PAD
    0x08010254   0x08010254   0x000009a4   Code   RO            4    .text               application.o
    0x08010bf8   0x08010bf8   0x000000dc   Code   RO          270    .text               hal_uart.o
    0x08010cd4   0x08010cd4   0x00000130   Code   RO          343    .text               main.o
    0x08010e04   0x08010e04   0x000001de   Code   RO          366    .text               osal.o
    0x08010fe2   0x08010fe2   0x00000002   PAD
    0x08010fe4   0x08010fe4   0x00000254   Code   RO          388    .text               flash_if.o
    0x08011238   0x08011238   0x000000f4   Code   RO          426    .text               led.o
    0x0801132c   0x0801132c   0x0000016c   Code   RO          454    .text               pps.o
    0x08011498   0x08011498   0x00000024   Code   RO          485    .text               startup_stm32f407xx.o
    0x080114bc   0x080114bc   0x00000348   Code   RO          492    .text               stm32f4xx_hal_msp.o
    0x08011804   0x08011804   0x000000b0   Code   RO          516    .text               stm32f4xx_hal_timebase_tim.o
    0x080118b4   0x080118b4   0x00000040   Code   RO          541    .text               stm32f4xx_it.o
    0x080118f4   0x080118f4   0x000000dc   Code   RO          572    .text               system_stm32f4xx.o
    0x080119d0   0x080119d0   0x00000774   Code   RO          603    .text               uart.o
    0x08012144   0x08012144   0x0000081c   Code   RO          637    .text               usbh_cdc.o
    0x08012960   0x08012960   0x000010d6   Code   RO          688    .text               usbh_core.o
    0x08013a36   0x08013a36   0x00000002   PAD
    0x08013a38   0x08013a38   0x00000730   Code   RO          724    .text               usbh_ctlreq.o
    0x08014168   0x08014168   0x00000190   Code   RO          758    .text               usbh_ioreq.o
    0x080142f8   0x080142f8   0x000000ac   Code   RO          792    .text               usbh_pipes.o
    0x080143a4   0x080143a4   0x0000013c   Code   RO          823    .text               gdu_ringbuffer.o
    0x080144e0   0x080144e0   0x000000b0   Code   RO          841    .text               apply_high_power.o
    0x08014590   0x08014590   0x000001b4   Code   RO          870    .text               upgrade_platform_opt_stm32.o
    0x08014744   0x08014744   0x00000204   Code   RO          904    .text               stm32f4xx_hal.o
    0x08014948   0x08014948   0x000003d0   Code   RO          934    .text               stm32f4xx_hal_cortex.o
    0x08014d18   0x08014d18   0x000008b0   Code   RO          962    .text               stm32f4xx_hal_dma.o
    0x080155c8   0x080155c8   0x00000468   Code   RO         1035    .text               stm32f4xx_hal_flash.o
    0x08015a30   0x08015a30   0x000003dc   Code   RO         1062    .text               stm32f4xx_hal_flash_ex.o
    0x08015e0c   0x08015e0c   0x000003bc   Code   RO         1105    .text               stm32f4xx_hal_gpio.o
    0x080161c8   0x080161c8   0x000017ac   Code   RO         1129    .text               stm32f4xx_hal_hcd.o
    0x08017974   0x08017974   0x00000948   Code   RO         1201    .text               stm32f4xx_hal_rcc.o
    0x080182bc   0x080182bc   0x00003bac   Code   RO         1249    .text               stm32f4xx_hal_tim.o
    0x0801be68   0x0801be68   0x00001788   Code   RO         1273    .text               stm32f4xx_hal_tim_ex.o
    0x0801d5f0   0x0801d5f0   0x0000170c   Code   RO         1297    .text               stm32f4xx_hal_uart.o
    0x0801ecfc   0x0801ecfc   0x00001940   Code   RO         1321    .text               stm32f4xx_ll_usb.o
    0x0802063c   0x0802063c   0x00000904   Code   RO         1345    .text               cmsis_os.o
    0x08020f40   0x08020f40   0x00000324   Code   RO         1393    .text               heap_4.o
    0x08021264   0x08021264   0x0000030c   Code   RO         1430    .text               port.o
    0x08021570   0x08021570   0x00000094   Code   RO         1495    .text               list.o
    0x08021604   0x08021604   0x00000e1c   Code   RO         1510    .text               queue.o
    0x08022420   0x08022420   0x00001624   Code   RO         1531    .text               tasks.o
    0x08023a44   0x08023a44   0x000003d4   Code   RO         1594    .text               usbh_conf.o
    0x08023e18   0x08023e18   0x0000271c   Code   RO         1626    .text               test_payload_cam_emu_base.o
    0x08026534   0x08026534   0x00000de0   Code   RO         1654    .text               test_fc_subscription.o
    0x08027314   0x08027314   0x00002528   Code   RO         1677    .text               test_payload_gimbal_emu.o
    0x0802983c   0x0802983c   0x00000544   Code   RO         1701    .text               test_positioning.o
    0x08029d80   0x08029d80   0x00000484   Code   RO         1730    .text               test_time_sync.o
    0x0802a204   0x0802a204   0x00000bd4   Code   RO         1783    .text               util_md5.o
    0x0802add8   0x0802add8   0x000003cc   Code   RO         1808    .text               test_power_management.o
    0x0802b1a4   0x0802b1a4   0x00000398   Code   RO         1875    .text               test_widget.o
    0x0802b53c   0x0802b53c   0x0000067c   Code   RO         1914    .text               test_upgrade.o
    0x0802bbb8   0x0802bbb8   0x00000398   Code   RO         1946    .text               test_upgrade_common_file_transfer.o
    0x0802bf50   0x0802bf50   0x000003e8   Code   RO         1973    .text               test_upgrade_platform_opt.o
    0x0802c338   0x0802c338   0x0000027c   Code   RO         2024    .text               test_playload_ppk.o
    0x0802c5b4   0x0802c5b4   0x00000020   Code   RO         2094    .text               libpayload.lib(gdu_aircraft_info.o)
    0x0802c5d4   0x0802c5d4   0x00000790   Code   RO         2096    .text               libpayload.lib(gdu_core.o)
    0x0802cd64   0x0802cd64   0x00000aa8   Code   RO         2107    .text               libpayload.lib(gdu_gimbal.o)
    0x0802d80c   0x0802d80c   0x00000234   Code   RO         2112    .text               libpayload.lib(gdu_logger.o)
    0x0802da40   0x0802da40   0x00002940   Code   RO         2118    .text               libpayload.lib(gdu_payload_camera.o)
    0x08030380   0x08030380   0x000000a4   Code   RO         2124    .text               libpayload.lib(gdu_platform.o)
    0x08030424   0x08030424   0x000016ec   Code   RO         2127    .text               libpayload.lib(gdu_positioning.o)
    0x08031b10   0x08031b10   0x00000034   Code   RO         2133    .text               libpayload.lib(gdu_power_management.o)
    0x08031b44   0x08031b44   0x00000678   Code   RO         2136    .text               libpayload.lib(gdu_ppk.o)
    0x080321bc   0x080321bc   0x00000ee0   Code   RO         2141    .text               libpayload.lib(gdu_subscribeinfo.o)
    0x0803309c   0x0803309c   0x000011c8   Code   RO         2146    .text               libpayload.lib(gdu_upgrade.o)
    0x08034264   0x08034264   0x00001014   Code   RO         2151    .text               libpayload.lib(gdu_widget.o)
    0x08035278   0x08035278   0x00000650   Code   RO         2155    .text               libpayload.lib(time_sync.o)
    0x080358c8   0x080358c8   0x00000894   Code   RO         2159    .text               libpayload.lib(basemsghandle.o)
    0x0803615c   0x0803615c   0x000000e0   Code   RO         2164    .text               libpayload.lib(gdu_cache.o)
    0x0803623c   0x0803623c   0x000001a4   Code   RO         2166    .text               libpayload.lib(gdu_serial.o)
    0x080363e0   0x080363e0   0x00000ec4   Code   RO         2170    .text               libpayload.lib(npc.o)
    0x080372a4   0x080372a4   0x0000012a   Code   RO         2174    .text               libpayload.lib(gdu_glink.o)
    0x080373ce   0x080373ce   0x00000156   Code   RO         2176    .text               libpayload.lib(general_linked_list.o)
    0x08037524   0x08037524   0x00000062   Code   RO         2281    .text               mc_w.l(uldiv.o)
    0x08037586   0x08037586   0x00000002   PAD
    0x08037588   0x08037588   0x000000a8   Code   RO         2289    .text               mc_w.l(mktime.o)
    0x08037630   0x08037630   0x00000024   Code   RO         2292    .text               mc_w.l(memcpya.o)
    0x08037654   0x08037654   0x00000024   Code   RO         2294    .text               mc_w.l(memseta.o)
    0x08037678   0x08037678   0x00000024   Code   RO         2296    .text               mc_w.l(strstr.o)
    0x0803769c   0x0803769c   0x00000018   Code   RO         2298    .text               mc_w.l(strncpy.o)
    0x080376b4   0x080376b4   0x0000000e   Code   RO         2302    .text               mc_w.l(strlen.o)
    0x080376c2   0x080376c2   0x0000001c   Code   RO         2304    .text               mc_w.l(strcmp.o)
    0x080376de   0x080376de   0x0000001a   Code   RO         2306    .text               mc_w.l(memcmp.o)
    0x080376f8   0x080376f8   0x00000012   Code   RO         2308    .text               mc_w.l(strcpy.o)
    0x0803770a   0x0803770a   0x0000001e   Code   RO         2310    .text               mc_w.l(strncmp.o)
    0x08037728   0x08037728   0x0000001a   Code   RO         2603    .text               mc_w.l(atoi.o)
    0x08037742   0x08037742   0x0000001a   Code   RO         2605    .text               mc_w.l(atol.o)
    0x0803775c   0x0803775c   0x0000014e   Code   RO         2607    .text               mf_w.l(dadd.o)
    0x080378aa   0x080378aa   0x000000e4   Code   RO         2609    .text               mf_w.l(dmul.o)
    0x0803798e   0x0803798e   0x000000de   Code   RO         2611    .text               mf_w.l(ddiv.o)
    0x08037a6c   0x08037a6c   0x00000022   Code   RO         2613    .text               mf_w.l(dflti.o)
    0x08037a8e   0x08037a8e   0x0000003e   Code   RO         2615    .text               mf_w.l(dfixi.o)
    0x08037acc   0x08037acc   0x00000026   Code   RO         2617    .text               mf_w.l(f2d.o)
    0x08037af2   0x08037af2   0x00000002   PAD
    0x08037af4   0x08037af4   0x00000030   Code   RO         2621    .text               mf_w.l(cdrcmple.o)
    0x08037b24   0x08037b24   0x0000002c   Code   RO         2715    .text               mc_w.l(uidiv.o)
    0x08037b50   0x08037b50   0x0000001e   Code   RO         2717    .text               mc_w.l(llshl.o)
    0x08037b6e   0x08037b6e   0x00000020   Code   RO         2719    .text               mc_w.l(llushr.o)
    0x08037b8e   0x08037b8e   0x00000024   Code   RO         2721    .text               mc_w.l(llsshr.o)
    0x08037bb2   0x08037bb2   0x00000002   PAD
    0x08037bb4   0x08037bb4   0x0000000c   Code   RO         2723    .text               mc_w.l(localtime_w.o)
    0x08037bc0   0x08037bc0   0x0000008c   Code   RO         2726    .text               mc_w.l(localtime_i.o)
    0x08037c4c   0x08037c4c   0x00000070   Code   RO         2738    .text               mc_w.l(strtol.o)
    0x08037cbc   0x08037cbc   0x00000000   Code   RO         2740    .text               mc_w.l(iusefp.o)
    0x08037cbc   0x08037cbc   0x000000ba   Code   RO         2743    .text               mf_w.l(depilogue.o)
    0x08037d76   0x08037d76   0x00000030   Code   RO         2751    .text               mf_w.l(dfixul.o)
    0x08037da6   0x08037da6   0x00000002   PAD
    0x08037da8   0x08037da8   0x00000024   Code   RO         2753    .text               mc_w.l(init.o)
    0x08037dcc   0x08037dcc   0x00000008   Code   RO         2755    .text               mc_w.l(ctype_o.o)
    0x08037dd4   0x08037dd4   0x0000009e   Code   RO         2783    .text               mc_w.l(_strtoul.o)
    0x08037e72   0x08037e72   0x0000001c   Code   RO         2787    .text               mc_w.l(_chval.o)
    0x08037e8e   0x08037e8e   0x00000056   Code   RO         2797    .text               mc_w.l(__dczerorl2.o)
    0x08037ee4   0x08037ee4   0x00000020   Code   RO         2547    i.__0printf         mc_w.l(printfa.o)
    0x08037f04   0x08037f04   0x00000030   Code   RO         2548    i.__0snprintf       mc_w.l(printfa.o)
    0x08037f34   0x08037f34   0x00000028   Code   RO         2549    i.__0sprintf        mc_w.l(printfa.o)
    0x08037f5c   0x08037f5c   0x00000024   Code   RO         2553    i.__0vsprintf       mc_w.l(printfa.o)
    0x08037f80   0x08037f80   0x00000026   Code   RO         2658    i.__ARM_fpclassifyf  m_wm.l(fpclassifyf.o)
    0x08037fa6   0x08037fa6   0x00000002   PAD
    0x08037fa8   0x08037fa8   0x00000008   Code   RO         2731    i.__aeabi_errno_addr  mc_w.l(errno.o)
    0x08037fb0   0x08037fb0   0x0000012c   Code   RO         2192    i.__hardfp_asinf    m_wm.l(asinf.o)
    0x080380dc   0x080380dc   0x00000250   Code   RO         2216    i.__hardfp_atan2f   m_wm.l(atan2f.o)
    0x0803832c   0x0803832c   0x00000006   Code   RO         2661    i.__mathlib_flt_infnan  m_wm.l(funder.o)
    0x08038332   0x08038332   0x00000006   Code   RO         2662    i.__mathlib_flt_infnan2  m_wm.l(funder.o)
    0x08038338   0x08038338   0x00000010   Code   RO         2663    i.__mathlib_flt_invalid  m_wm.l(funder.o)
    0x08038348   0x08038348   0x00000010   Code   RO         2666    i.__mathlib_flt_underflow  m_wm.l(funder.o)
    0x08038358   0x08038358   0x0000000e   Code   RO         2791    i.__scatterload_copy  mc_w.l(handlers.o)
    0x08038366   0x08038366   0x00000002   Code   RO         2792    i.__scatterload_null  mc_w.l(handlers.o)
    0x08038368   0x08038368   0x0000000e   Code   RO         2793    i.__scatterload_zeroinit  mc_w.l(handlers.o)
    0x08038376   0x08038376   0x00000002   PAD
    0x08038378   0x08038378   0x0000000c   Code   RO         2733    i.__set_errno       mc_w.l(errno.o)
    0x08038384   0x08038384   0x00000184   Code   RO         2554    i._fp_digits        mc_w.l(printfa.o)
    0x08038508   0x08038508   0x000006dc   Code   RO         2555    i._printf_core      mc_w.l(printfa.o)
    0x08038be4   0x08038be4   0x00000024   Code   RO         2556    i._printf_post_padding  mc_w.l(printfa.o)
    0x08038c08   0x08038c08   0x0000002e   Code   RO         2557    i._printf_pre_padding  mc_w.l(printfa.o)
    0x08038c36   0x08038c36   0x00000016   Code   RO         2558    i._snputc           mc_w.l(printfa.o)
    0x08038c4c   0x08038c4c   0x0000000a   Code   RO         2559    i._sputc            mc_w.l(printfa.o)
    0x08038c56   0x08038c56   0x00000002   PAD
    0x08038c58   0x08038c58   0x00000050   Code   RO         2575    i.free              mc_w.l(malloc.o)
    0x08038ca8   0x08038ca8   0x0000006c   Code   RO         2576    i.malloc            mc_w.l(malloc.o)
    0x08038d14   0x08038d14   0x0000003e   Code   RO         2690    i.sqrtf             m_wm.l(sqrtf.o)
    0x08038d52   0x08038d52   0x00000002   PAD
    0x08038d54   0x08038d54   0x000000dd   Data   RO            5    .constdata          application.o
    0x08038e31   0x08038e31   0x00000001   PAD
    0x08038e32   0x08038e32   0x00000008   Data   RO          427    .constdata          led.o
    0x08038e3a   0x08038e3a   0x00000027   Data   RO          455    .constdata          pps.o
    0x08038e61   0x08038e61   0x00000018   Data   RO          573    .constdata          system_stm32f4xx.o
    0x08038e79   0x08038e79   0x00000003   PAD
    0x08038e7c   0x08038e7c   0x0000001c   Data   RO          689    .constdata          usbh_core.o
    0x08038e98   0x08038e98   0x0000001f   Data   RO          842    .constdata          apply_high_power.o
    0x08038eb7   0x08038eb7   0x00000008   Data   RO          963    .constdata          stm32f4xx_hal_dma.o
    0x08038ebf   0x08038ebf   0x000002d1   Data   RO         1628    .constdata          test_payload_cam_emu_base.o
    0x08039190   0x08039190   0x0000008b   Data   RO         1655    .constdata          test_fc_subscription.o
    0x0803921b   0x0803921b   0x000001c1   Data   RO         1679    .constdata          test_payload_gimbal_emu.o
    0x080393dc   0x080393dc   0x00000038   Data   RO         1702    .constdata          test_positioning.o
    0x08039414   0x08039414   0x0000007c   Data   RO         1731    .constdata          test_time_sync.o
    0x08039490   0x08039490   0x0000006a   Data   RO         1809    .constdata          test_power_management.o
    0x080394fa   0x080394fa   0x000051f1   Data   RO         1830    .constdata          file_binary_array_list_en.o
    0x0803e6eb   0x0803e6eb   0x00000001   PAD
    0x0803e6ec   0x0803e6ec   0x00000113   Data   RO         1877    .constdata          test_widget.o
    0x0803e7ff   0x0803e7ff   0x00000001   PAD
    0x0803e800   0x0803e800   0x0000007f   Data   RO         1915    .constdata          test_upgrade.o
    0x0803e87f   0x0803e87f   0x00000082   Data   RO         1948    .constdata          test_upgrade_common_file_transfer.o
    0x0803e901   0x0803e901   0x0000001e   Data   RO         1975    .constdata          test_upgrade_platform_opt.o
    0x0803e91f   0x0803e91f   0x00000058   Data   RO         2026    .constdata          test_playload_ppk.o
    0x0803e977   0x0803e977   0x0000004d   Data   RO         2098    .constdata          libpayload.lib(gdu_core.o)
    0x0803e9c4   0x0803e9c4   0x0000002a   Data   RO         2109    .constdata          libpayload.lib(gdu_gimbal.o)
    0x0803e9ee   0x0803e9ee   0x00000002   PAD
    0x0803e9f0   0x0803e9f0   0x00000010   Data   RO         2114    .constdata          libpayload.lib(gdu_logger.o)
    0x0803ea00   0x0803ea00   0x00000132   Data   RO         2120    .constdata          libpayload.lib(gdu_payload_camera.o)
    0x0803eb32   0x0803eb32   0x00000084   Data   RO         2129    .constdata          libpayload.lib(gdu_positioning.o)
    0x0803ebb6   0x0803ebb6   0x00000019   Data   RO         2138    .constdata          libpayload.lib(gdu_ppk.o)
    0x0803ebcf   0x0803ebcf   0x0000005a   Data   RO         2143    .constdata          libpayload.lib(gdu_subscribeinfo.o)
    0x0803ec29   0x0803ec29   0x0000009e   Data   RO         2148    .constdata          libpayload.lib(gdu_upgrade.o)
    0x0803ecc7   0x0803ecc7   0x00000044   Data   RO         2156    .constdata          libpayload.lib(time_sync.o)
    0x0803ed0b   0x0803ed0b   0x00000096   Data   RO         2161    .constdata          libpayload.lib(basemsghandle.o)
    0x0803eda1   0x0803eda1   0x0000002e   Data   RO         2167    .constdata          libpayload.lib(gdu_serial.o)
    0x0803edcf   0x0803edcf   0x0000002f   Data   RO         2171    .constdata          libpayload.lib(npc.o)
    0x0803edfe   0x0803edfe   0x0000000c   Data   RO         2290    .constdata          mc_w.l(mktime.o)
    0x0803ee0a   0x0803ee0a   0x0000000c   Data   RO         2727    .constdata          mc_w.l(localtime_i.o)
    0x0803ee16   0x0803ee16   0x00000081   Data   RO         2756    .constdata          mc_w.l(ctype_o.o)
    0x0803ee97   0x0803ee97   0x00000001   PAD
    0x0803ee98   0x0803ee98   0x00000004   Data   RO         2757    .constdata          mc_w.l(ctype_o.o)
    0x0803ee9c   0x0803ee9c   0x000002d5   Data   RO            6    .conststring        application.o
    0x0803f171   0x0803f171   0x00000003   PAD
    0x0803f174   0x0803f174   0x0000004d   Data   RO          639    .conststring        usbh_cdc.o
    0x0803f1c1   0x0803f1c1   0x00000003   PAD
    0x0803f1c4   0x0803f1c4   0x0000004e   Data   RO          690    .conststring        usbh_core.o
    0x0803f212   0x0803f212   0x00000002   PAD
    0x0803f214   0x0803f214   0x00000162   Data   RO         1629    .conststring        test_payload_cam_emu_base.o
    0x0803f376   0x0803f376   0x00000002   PAD
    0x0803f378   0x0803f378   0x00000172   Data   RO         1656    .conststring        test_fc_subscription.o
    0x0803f4ea   0x0803f4ea   0x00000002   PAD
    0x0803f4ec   0x0803f4ec   0x000000c9   Data   RO         1680    .conststring        test_payload_gimbal_emu.o
    0x0803f5b5   0x0803f5b5   0x00000003   PAD
    0x0803f5b8   0x0803f5b8   0x00000049   Data   RO         1703    .conststring        test_positioning.o
    0x0803f601   0x0803f601   0x00000003   PAD
    0x0803f604   0x0803f604   0x0000012b   Data   RO         1732    .conststring        test_time_sync.o
    0x0803f72f   0x0803f72f   0x00000001   PAD
    0x0803f730   0x0803f730   0x000000a7   Data   RO         1831    .conststring        file_binary_array_list_en.o
    0x0803f7d7   0x0803f7d7   0x00000001   PAD
    0x0803f7d8   0x0803f7d8   0x000000ce   Data   RO         1878    .conststring        test_widget.o
    0x0803f8a6   0x0803f8a6   0x00000002   PAD
    0x0803f8a8   0x0803f8a8   0x00000042   Data   RO         1916    .conststring        test_upgrade.o
    0x0803f8ea   0x0803f8ea   0x00000002   PAD
    0x0803f8ec   0x0803f8ec   0x00000041   Data   RO         1949    .conststring        test_upgrade_common_file_transfer.o
    0x0803f92d   0x0803f92d   0x00000003   PAD
    0x0803f930   0x0803f930   0x0000001e   Data   RO         2115    .conststring        libpayload.lib(gdu_logger.o)
    0x0803f94e   0x0803f94e   0x00000002   PAD
    0x0803f950   0x0803f950   0x00000042   Data   RO         2121    .conststring        libpayload.lib(gdu_payload_camera.o)
    0x0803f992   0x0803f992   0x00000002   PAD
    0x0803f994   0x0803f994   0x0000004b   Data   RO         2130    .conststring        libpayload.lib(gdu_positioning.o)
    0x0803f9df   0x0803f9df   0x00000001   PAD
    0x0803f9e0   0x0803f9e0   0x00000020   Data   RO         2789    Region$$Table       anon$$obj.o


    Execution Region RW_IRAM1 (Exec base: 0x20000000, Load base: 0x0803fa00, Size: 0x0001d318, Max: 0x00020000, ABSOLUTE, COMPRESSED[0x00000218])

    Exec Addr    Load Addr    Size         Type   Attr      Idx    E Section Name        Object

    0x20000000   COMPRESSED   0x00000004   Data   RW            7    .data               application.o
    0x20000004   COMPRESSED   0x00000008   Data   RW          344    .data               main.o
    0x2000000c   COMPRESSED   0x00000010   Data   RW          428    .data               led.o
    0x2000001c   COMPRESSED   0x00000004   PAD
    0x20000020   COMPRESSED   0x0000000c   Data   RW          456    .data               pps.o
    0x2000002c   COMPRESSED   0x00000004   Data   RW          543    .data               stm32f4xx_it.o
    0x20000030   COMPRESSED   0x00000004   Data   RW          574    .data               system_stm32f4xx.o
    0x20000034   COMPRESSED   0x00000050   Data   RW          605    .data               uart.o
    0x20000084   COMPRESSED   0x00000028   Data   RW          640    .data               usbh_cdc.o
    0x200000ac   COMPRESSED   0x00000009   Data   RW          905    .data               stm32f4xx_hal.o
    0x200000b5   COMPRESSED   0x00000003   PAD
    0x200000b8   COMPRESSED   0x00000020   Data   RW         1395    .data               heap_4.o
    0x200000d8   COMPRESSED   0x0000000c   Data   RW         1431    .data               port.o
    0x200000e4   COMPRESSED   0x0000003c   Data   RW         1533    .data               tasks.o
    0x20000120   COMPRESSED   0x00000060   Data   RW         1630    .data               test_payload_cam_emu_base.o
    0x20000180   COMPRESSED   0x00000006   Data   RW         1657    .data               test_fc_subscription.o
    0x20000186   COMPRESSED   0x00000002   PAD
    0x20000188   COMPRESSED   0x00000024   Data   RW         1681    .data               test_payload_gimbal_emu.o
    0x200001ac   COMPRESSED   0x00000008   Data   RW         1704    .data               test_positioning.o
    0x200001b4   COMPRESSED   0x0000000c   Data   RW         1733    .data               test_time_sync.o
    0x200001c0   COMPRESSED   0x00000008   Data   RW         1810    .data               test_power_management.o
    0x200001c8   COMPRESSED   0x00000068   Data   RW         1832    .data               file_binary_array_list_en.o
    0x20000230   COMPRESSED   0x00000020   Data   RW         1879    .data               test_widget.o
    0x20000250   COMPRESSED   0x00000012   Data   RW         1917    .data               test_upgrade.o
    0x20000262   COMPRESSED   0x00000002   PAD
    0x20000264   COMPRESSED   0x00000004   Data   RW         1950    .data               test_upgrade_common_file_transfer.o
    0x20000268   COMPRESSED   0x00000008   Data   RW         2027    .data               test_playload_ppk.o
    0x20000270   COMPRESSED   0x00000015   Data   RW         2099    .data               libpayload.lib(gdu_core.o)
    0x20000285   COMPRESSED   0x00000003   PAD
    0x20000288   COMPRESSED   0x00000084   Data   RW         2110    .data               libpayload.lib(gdu_gimbal.o)
    0x2000030c   COMPRESSED   0x00000008   Data   RW         2116    .data               libpayload.lib(gdu_logger.o)
    0x20000314   COMPRESSED   0x00000131   Data   RW         2122    .data               libpayload.lib(gdu_payload_camera.o)
    0x20000445   COMPRESSED   0x00000003   PAD
    0x20000448   COMPRESSED   0x00000020   Data   RW         2125    .data               libpayload.lib(gdu_platform.o)
    0x20000468   COMPRESSED   0x0000006b   Data   RW         2131    .data               libpayload.lib(gdu_positioning.o)
    0x200004d3   COMPRESSED   0x00000001   PAD
    0x200004d4   COMPRESSED   0x00000004   Data   RW         2134    .data               libpayload.lib(gdu_power_management.o)
    0x200004d8   COMPRESSED   0x0000001d   Data   RW         2139    .data               libpayload.lib(gdu_ppk.o)
    0x200004f5   COMPRESSED   0x00000003   PAD
    0x200004f8   COMPRESSED   0x00000098   Data   RW         2144    .data               libpayload.lib(gdu_subscribeinfo.o)
    0x20000590   COMPRESSED   0x00000034   Data   RW         2149    .data               libpayload.lib(gdu_upgrade.o)
    0x200005c4   COMPRESSED   0x00000047   Data   RW         2153    .data               libpayload.lib(gdu_widget.o)
    0x2000060b   COMPRESSED   0x00000005   PAD
    0x20000610   COMPRESSED   0x00000044   Data   RW         2157    .data               libpayload.lib(time_sync.o)
    0x20000654   COMPRESSED   0x00000032   Data   RW         2162    .data               libpayload.lib(basemsghandle.o)
    0x20000686   COMPRESSED   0x00000002   PAD
    0x20000688   COMPRESSED   0x00000004   Data   RW         2168    .data               libpayload.lib(gdu_serial.o)
    0x2000068c   COMPRESSED   0x0000001c   Data   RW         2172    .data               libpayload.lib(npc.o)
    0x200006a8   COMPRESSED   0x00000004   Data   RW         2714    .data               mc_w.l(stdout.o)
    0x200006ac   COMPRESSED   0x00000004   Data   RW         2729    .data               mc_w.l(mvars.o)
    0x200006b0   COMPRESSED   0x00000004   Data   RW         2730    .data               mc_w.l(mvars.o)
    0x200006b4   COMPRESSED   0x00000004   Data   RW         2734    .data               mc_w.l(errno.o)
    0x200006b8        -       0x0000034c   Zero   RW          542    .bss                stm32f4xx_it.o
    0x20000a04        -       0x00003970   Zero   RW          604    .bss                uart.o
    0x20004374        -       0x00000400   Zero   RW          638    .bss                usbh_cdc.o
    0x20004774        -       0x00000044   Zero   RW          871    .bss                upgrade_platform_opt_stm32.o
    0x200047b8        -       0x00000020   Zero   RW         1036    .bss                stm32f4xx_hal_flash.o
    0x200047d8        -       0x000124f8   Zero   RW         1394    .bss                heap_4.o
    0x20016cd0        -       0x00000040   Zero   RW         1511    .bss                queue.o
    0x20016d10        -       0x000000f0   Zero   RW         1532    .bss                tasks.o
    0x20016e00        -       0x000000ea   Zero   RW         1627    .bss                test_payload_cam_emu_base.o
    0x20016eea   COMPRESSED   0x00000002   PAD
    0x20016eec        -       0x00000098   Zero   RW         1678    .bss                test_payload_gimbal_emu.o
    0x20016f84        -       0x00000168   Zero   RW         1876    .bss                test_widget.o
    0x200170ec        -       0x00000044   Zero   RW         1947    .bss                test_upgrade_common_file_transfer.o
    0x20017130        -       0x00000028   Zero   RW         1974    .bss                test_upgrade_platform_opt.o
    0x20017158        -       0x0000000c   Zero   RW         2025    .bss                test_playload_ppk.o
    0x20017164        -       0x0000001e   Zero   RW         2097    .bss                libpayload.lib(gdu_core.o)
    0x20017182   COMPRESSED   0x00000002   PAD
    0x20017184        -       0x00000014   Zero   RW         2108    .bss                libpayload.lib(gdu_gimbal.o)
    0x20017198        -       0x00000400   Zero   RW         2113    .bss                libpayload.lib(gdu_logger.o)
    0x20017598        -       0x000002e4   Zero   RW         2119    .bss                libpayload.lib(gdu_payload_camera.o)
    0x2001787c   COMPRESSED   0x00000004   PAD
    0x20017880        -       0x00003aaa   Zero   RW         2128    .bss                libpayload.lib(gdu_positioning.o)
    0x2001b32a        -       0x00000808   Zero   RW         2137    .bss                libpayload.lib(gdu_ppk.o)
    0x2001bb32        -       0x00000cad   Zero   RW         2142    .bss                libpayload.lib(gdu_subscribeinfo.o)
    0x2001c7df   COMPRESSED   0x00000001   PAD
    0x2001c7e0        -       0x00000210   Zero   RW         2147    .bss                libpayload.lib(gdu_upgrade.o)
    0x2001c9f0        -       0x000001bc   Zero   RW         2152    .bss                libpayload.lib(gdu_widget.o)
    0x2001cbac        -       0x0000013c   Zero   RW         2160    .bss                libpayload.lib(basemsghandle.o)
    0x2001cce8        -       0x0000002c   Zero   RW         2724    .bss                mc_w.l(localtime_w.o)
    0x2001cd14   COMPRESSED   0x00000004   PAD
    0x2001cd18        -       0x00000200   Zero   RW          483    HEAP                startup_stm32f407xx.o
    0x2001cf18        -       0x00000400   Zero   RW          482    STACK               startup_stm32f407xx.o


==============================================================================

Image component sizes


      Code (inc. data)   RO Data    RW Data    ZI Data      Debug   Object Name

      2468        978        946          4          0     765800   application.o
       176         52         31          0          0       1755   apply_high_power.o
      2308         12          0          0          0      31508   cmsis_os.o
         0          0          0          0          0       8508   event_groups.o
         0          0      21144        104          0       8019   file_binary_array_list_en.o
       596         52          0          0          0       3053   flash_if.o
       316          0          0          0          0       2501   gdu_ringbuffer.o
       220          0          0          0          0      21575   hal_uart.o
       804         38          0         32      75000       9846   heap_4.o
       244         12          8         16          0       2515   led.o
       148          0          0          0          0       2366   list.o
       304         56          0          8          0       2379   main.o
       478          0          0          0          0       5204   osal.o
       962         52          0         12          0       9567   port.o
       364        108         39         12          0       2440   pps.o
      3612         16          0          0         64      20012   queue.o
        36          8        392          0       1536       1012   startup_stm32f407xx.o
       516         40          0          9          0      11232   stm32f4xx_hal.o
       976         20          0          0          0      36538   stm32f4xx_hal_cortex.o
      2224         28          8          0          0       7421   stm32f4xx_hal_dma.o
      1128         32          0          0         32       4817   stm32f4xx_hal_flash.o
       988          8          0          0          0       5101   stm32f4xx_hal_flash_ex.o
       956         46          0          0          0       3635   stm32f4xx_hal_gpio.o
      6060          0          0          0          0      10042   stm32f4xx_hal_hcd.o
       840         32          0          0          0       3990   stm32f4xx_hal_msp.o
      2376         70          0          0          0       5675   stm32f4xx_hal_rcc.o
     15276        346          0          0          0      41686   stm32f4xx_hal_tim.o
      6024        192          0          0          0      17179   stm32f4xx_hal_tim_ex.o
       176         18          0          0          0       1870   stm32f4xx_hal_timebase_tim.o
      5900         52          0          0          0      19834   stm32f4xx_hal_uart.o
        64         12          0          4        844       1797   stm32f4xx_it.o
      6464        106          0          0          0      17615   stm32f4xx_ll_usb.o
       220         28         24          4          0       1993   system_stm32f4xx.o
      5668        312          0         60        240      27505   tasks.o
      3552       1338        509          6          0       5427   test_fc_subscription.o
     10012       2542       1075         96        234      21508   test_payload_cam_emu_base.o
      9512       1806        650         36        152      13083   test_payload_gimbal_emu.o
       636        262         88          8         12       3810   test_playload_ppk.o
      1348        600        129          8          0       4582   test_positioning.o
       972        550        106          8          0       3291   test_power_management.o
      1156        530        423         12          0       3869   test_time_sync.o
      1660        646        193         18          0       7890   test_upgrade.o
       920        312        195          4         68       4524   test_upgrade_common_file_transfer.o
      1000        570         30          0         40       5448   test_upgrade_platform_opt.o
       920        408        481         32        360       5173   test_widget.o
      1908        212          0         80      14704       7771   uart.o
       436         38          0          0         68      35445   upgrade_platform_opt_stm32.o
      2076        164         77         40       1024      12526   usbh_cdc.o
       980         12          0          0          0       7852   usbh_conf.o
      4310        956        106          0          0       8763   usbh_core.o
      1840         66          0          0          0       7110   usbh_ctlreq.o
       400          0          0          0          0       4516   usbh_ioreq.o
       172          0          0          0          0       2644   usbh_pipes.o
      3028        262          0          0          0       4014   util_md5.o

    ----------------------------------------------------------------------
    115736      14000      26719        624      94380    1285236   Object Totals
         0          0         32          0          0          0   (incl. Generated)
         6          0         33         11          2          0   (incl. Padding)

    ----------------------------------------------------------------------

      Code (inc. data)   RO Data    RW Data    ZI Data      Debug   Library Member Name

      2196        430        150         50        316        908   basemsghandle.o
        32          0          0          0          0        240   gdu_aircraft_info.o
       224          8          0          0          0        508   gdu_cache.o
      1936        448         77         21         30        704   gdu_core.o
      2728        136         42        132         20       1200   gdu_gimbal.o
       298          0          0          0          0        148   gdu_glink.o
       564         98         46          8       1024        328   gdu_logger.o
     10560       1058        372        305        740       2900   gdu_payload_camera.o
       164         26          0         32          0        344   gdu_platform.o
      5868        552        207        107      15018       1148   gdu_positioning.o
        52          6          0          4          0        360   gdu_power_management.o
      1656        242         25         29       2056        548   gdu_ppk.o
       420        140         46          4          0        196   gdu_serial.o
      3808        622         90        152       3245        916   gdu_subscribeinfo.o
      4552        802        158         52        528       1224   gdu_upgrade.o
      4116        176          0         71        444       1324   gdu_widget.o
       342          0          0          0          0        340   general_linked_list.o
      3780        368         47         28          0       1116   npc.o
      1616        414         68         68          0        560   time_sync.o
       300         42          0          0          0        176   asinf.o
       592         90          0          0          0        184   atan2f.o
        38          0          0          0          0        116   fpclassifyf.o
        44         12          0          0          0        464   funder.o
        62          0          0          0          0        136   sqrtf.o
        86          0          0          0          0          0   __dczerorl2.o
        28          0          0          0          0         68   _chval.o
       158          0          0          0          0         92   _strtoul.o
        26          0          0          0          0         80   atoi.o
        26          0          0          0          0         80   atol.o
         8          4        133          0          0         68   ctype_o.o
         0          0          0          0          0          0   entry.o
         0          0          0          0          0          0   entry10a.o
         0          0          0          0          0          0   entry11a.o
         8          4          0          0          0          0   entry2.o
         4          0          0          0          0          0   entry5.o
         0          0          0          0          0          0   entry7b.o
         0          0          0          0          0          0   entry8b.o
         8          4          0          0          0          0   entry9a.o
        20         10          0          4          0        136   errno.o
        30          0          0          0          0          0   handlers.o
        36          8          0          0          0         68   init.o
         0          0          0          0          0          0   iusefp.o
        30          0          0          0          0         68   llshl.o
        36          0          0          0          0         68   llsshr.o
        32          0          0          0          0         68   llushr.o
       140          6         12          0          0         76   localtime_i.o
        12          6          0          0         44         68   localtime_w.o
       188         20          0          0          0        160   malloc.o
        26          0          0          0          0         80   memcmp.o
        36          0          0          0          0         68   memcpya.o
        36          0          0          0          0        108   memseta.o
       168         18         12          0          0         80   mktime.o
         0          0          0          8          0          0   mvars.o
      2414        106          0          0          0        836   printfa.o
         0          0          0          4          0          0   stdout.o
        28          0          0          0          0         76   strcmp.o
        18          0          0          0          0         68   strcpy.o
        14          0          0          0          0         68   strlen.o
        30          0          0          0          0         80   strncmp.o
        24          0          0          0          0         76   strncpy.o
        36          0          0          0          0         80   strstr.o
       112          0          0          0          0         88   strtol.o
        44          0          0          0          0         80   uidiv.o
        98          0          0          0          0         92   uldiv.o
        48          0          0          0          0         68   cdrcmple.o
       334          0          0          0          0        148   dadd.o
       222          0          0          0          0        100   ddiv.o
       186          0          0          0          0        176   depilogue.o
        62          0          0          0          0         80   dfixi.o
        48          0          0          0          0         68   dfixul.o
        34          0          0          0          0         76   dflti.o
       228          0          0          0          0         96   dmul.o
        38          0          0          0          0         68   f2d.o

    ----------------------------------------------------------------------
     51124       5856       1493       1096      23476      19948   Library Totals
        16          0          8         17         11          0   (incl. Padding)

    ----------------------------------------------------------------------

      Code (inc. data)   RO Data    RW Data    ZI Data      Debug   Library Name

     44912       5526       1328       1063      23421      15012   libpayload.lib
      1036        144          0          0          0       1076   m_wm.l
      3960        186        157         16         44       2980   mc_w.l
      1200          0          0          0          0        880   mf_w.l

    ----------------------------------------------------------------------
     51124       5856       1493       1096      23476      19948   Library Totals

    ----------------------------------------------------------------------

==============================================================================


      Code (inc. data)   RO Data    RW Data    ZI Data      Debug   

    166860      19856      28212       1720     117856    1286284   Grand Totals
    166860      19856      28212        536     117856    1286284   ELF Image Totals (compressed)
    166860      19856      28212        536          0          0   ROM Totals

==============================================================================

    Total RO  Size (Code + RO Data)               195072 ( 190.50kB)
    Total RW  Size (RW Data + ZI Data)            119576 ( 116.77kB)
    Total ROM Size (Code + RO Data + RW Data)     195608 ( 191.02kB)

==============================================================================

