Component: ARM Compiler 5.06 update 5 (build 528) Tool: armlink [4d35e2]

==============================================================================

Section Cross References

    application.o(.text) refers to memseta.o(.text) for __aeabi_memclr
    application.o(.text) refers to gdu_logger.o(.text) for GduLogger_LogOutput
    application.o(.text) refers to strcmp.o(.text) for strcmp
    application.o(.text) refers to strncpy.o(.text) for strncpy
    application.o(.text) refers to memcpya.o(.text) for __aeabi_memcpy
    application.o(.text) refers to uart.o(.text) for UART_Init
    application.o(.text) refers to led.o(.text) for Led_Init
    application.o(.text) refers to gdu_platform.o(.text) for GduPlatform_RegOsalHandler
    application.o(.text) refers to printfa.o(i.__0printf) for __2printf
    application.o(.text) refers to gdu_core.o(.text) for GduCore_Init
    application.o(.text) refers to gdu_aircraft_info.o(.text) for GduAircraftInfo_GetBaseInfo
    application.o(.text) refers to test_power_management.o(.text) for GduTest_RegApplyHighPowerHandler
    application.o(.text) refers to test_payload_cam_emu_base.o(.text) for GduTest_CameraEmuBaseStartService
    application.o(.text) refers to test_widget.o(.text) for GduTest_WidgetStartService
    application.o(.text) refers to test_fc_subscription.o(.text) for GduTest_FcSubscriptionStartService
    application.o(.text) refers to test_payload_gimbal_emu.o(.text) for GduTest_GimbalStartService
    application.o(.text) refers to test_time_sync.o(.text) for GduTest_TimeSyncRegHandler
    application.o(.text) refers to test_positioning.o(.text) for GduTest_PositioningStartService
    application.o(.text) refers to application.o(.constdata) for __FUNCTION__
    application.o(.text) refers to application.o(.conststring) for .conststring
    application.o(.text) refers to gdu_flight_controller.o(.text) for GduFlightController_Init
    application.o(.text) refers to test_upgrade.o(.text) for GduTest_UpgradeStartService
    application.o(.text) refers to osal.o(.text) for Osal_TaskSleepMs
    application.o(.text) refers to tasks.o(.text) for xTaskGetCurrentTaskHandle
    application.o(.text) refers to heap_4.o(.text) for xPortGetFreeHeapSize
    application.o(.text) refers to application.o(.data) for runIndicateTaskStep
    application.o(.constdata) refers to osal.o(.text) for Osal_TaskCreate
    application.o(.constdata) refers to application.o(.text) for GduUser_PrintConsole
    application.o(.constdata) refers to hal_uart.o(.text) for HalUart_Init
    application.o(.constdata) refers to apply_high_power.o(.text) for GduTest_HighPowerApplyPinInit
    application.o(.constdata) refers to pps.o(.text) for GduTest_PpsSignalResponseInit
    application.o(.constdata) refers to upgrade_platform_opt_stm32.o(.text) for GduUpgradePlatformStm32_RebootSystem
    hal_uart.o(.text) refers to malloc.o(i.malloc) for malloc
    hal_uart.o(.text) refers to uart.o(.text) for UART_Init
    hal_uart.o(.text) refers to usbh_cdc.o(.text) for USBH_CDC_WriteData
    main.o(.text) refers to memseta.o(.text) for __aeabi_memclr4
    main.o(.text) refers to stm32f4xx_hal_rcc.o(.text) for HAL_RCC_OscConfig
    main.o(.text) refers to stm32f4xx_hal.o(.text) for HAL_Init
    main.o(.text) refers to tasks.o(.text) for xTaskCreate
    main.o(.text) refers to main.o(.data) for startTask
    main.o(.text) refers to application.o(.text) for GduUser_StartTask
    osal.o(.text) refers to strncpy.o(.text) for strncpy
    osal.o(.text) refers to tasks.o(.text) for xTaskCreate
    osal.o(.text) refers to queue.o(.text) for xQueueCreateMutex
    osal.o(.text) refers to heap_4.o(.text) for pvPortMalloc
    flash_if.o(.text) refers to stm32f4xx_hal_flash.o(.text) for HAL_FLASH_Unlock
    flash_if.o(.text) refers to stm32f4xx_hal_flash_ex.o(.text) for HAL_FLASHEx_Erase
    freertos.o(.text) refers to freertos.o(.bss) for xIdleTaskTCBBuffer
    led.o(.text) refers to stm32f4xx_hal_gpio.o(.text) for HAL_GPIO_Init
    led.o(.text) refers to led.o(.constdata) for s_ledPin
    led.o(.text) refers to led.o(.data) for s_ledPort
    pps.o(.text) refers to osal.o(.text) for Osal_GetTimeMs
    pps.o(.text) refers to gdu_logger.o(.text) for GduLogger_LogOutput
    pps.o(.text) refers to stm32f4xx_hal_gpio.o(.text) for HAL_GPIO_Init
    pps.o(.text) refers to stm32f4xx_hal_cortex.o(.text) for HAL_NVIC_SetPriority
    pps.o(.text) refers to pps.o(.data) for s_ppsNewestTriggerLocalTimeMs
    pps.o(.text) refers to pps.o(.constdata) for __FUNCTION__
    startup_stm32f407xx.o(RESET) refers to startup_stm32f407xx.o(STACK) for __initial_sp
    startup_stm32f407xx.o(RESET) refers to startup_stm32f407xx.o(.text) for Reset_Handler
    startup_stm32f407xx.o(RESET) refers to stm32f4xx_it.o(.text) for NMI_Handler
    startup_stm32f407xx.o(RESET) refers to port.o(.emb_text) for SVC_Handler
    startup_stm32f407xx.o(RESET) refers to port.o(.text) for SysTick_Handler
    startup_stm32f407xx.o(RESET) refers to pps.o(.text) for EXTI2_IRQHandler
    startup_stm32f407xx.o(RESET) refers to uart.o(.text) for USART1_IRQHandler
    startup_stm32f407xx.o(.text) refers to system_stm32f4xx.o(.text) for SystemInit
    startup_stm32f407xx.o(.text) refers to entry.o(.ARM.Collect$$$$00000000) for __main
    stm32f4xx_hal_msp.o(.text) refers to stm32f4xx_hal_cortex.o(.text) for HAL_NVIC_SetPriority
    stm32f4xx_hal_msp.o(.text) refers to stm32f4xx_hal_gpio.o(.text) for HAL_GPIO_Init
    stm32f4xx_hal_timebase_tim.o(.text) refers to stm32f4xx_hal_cortex.o(.text) for HAL_NVIC_SetPriority
    stm32f4xx_hal_timebase_tim.o(.text) refers to stm32f4xx_hal_rcc.o(.text) for HAL_RCC_GetClockConfig
    stm32f4xx_hal_timebase_tim.o(.text) refers to stm32f4xx_hal_tim.o(.text) for HAL_TIM_Base_Init
    stm32f4xx_hal_timebase_tim.o(.text) refers to stm32f4xx_it.o(.bss) for htim1
    stm32f4xx_it.o(.text) refers to stm32f4xx_hal_tim.o(.text) for HAL_TIM_IRQHandler
    stm32f4xx_it.o(.text) refers to stm32f4xx_hal_hcd.o(.text) for HAL_HCD_IRQHandler
    stm32f4xx_it.o(.text) refers to stm32f4xx_it.o(.bss) for htim1
    stm32f4xx_it.o(.text) refers to stm32f4xx_it.o(.data) for usbIrqFlag
    system_stm32f4xx.o(.text) refers to system_stm32f4xx.o(.data) for SystemCoreClock
    system_stm32f4xx.o(.text) refers to system_stm32f4xx.o(.constdata) for AHBPrescTable
    uart.o(.text) refers to gdu_ringbuffer.o(.text) for RingBuf_Init
    uart.o(.text) refers to stm32f4xx_hal_uart.o(.text) for HAL_UART_Init
    uart.o(.text) refers to osal.o(.text) for Osal_MutexCreate
    uart.o(.text) refers to uart.o(.bss) for s_uart1ReadBuf
    uart.o(.text) refers to uart.o(.data) for s_uart1Mutex
    usbh_cdc.o(.text) refers to queue.o(.text) for xQueueGenericCreate
    usbh_cdc.o(.text) refers to usbh_core.o(.text) for USBH_FindInterface
    usbh_cdc.o(.text) refers to printfa.o(i.__0printf) for __2printf
    usbh_cdc.o(.text) refers to malloc.o(i.malloc) for malloc
    usbh_cdc.o(.text) refers to memseta.o(.text) for __aeabi_memclr4
    usbh_cdc.o(.text) refers to usbh_pipes.o(.text) for USBH_AllocPipe
    usbh_cdc.o(.text) refers to usbh_conf.o(.text) for USBH_LL_SetToggle
    usbh_cdc.o(.text) refers to malloc.o(i.free) for free
    usbh_cdc.o(.text) refers to cmsis_os.o(.text) for osDelay
    usbh_cdc.o(.text) refers to usbh_cdc.o(.data) for ACMDataRecvQueue
    usbh_cdc.o(.text) refers to usbh_cdc.o(.conststring) for .conststring
    usbh_cdc.o(.text) refers to usbh_ioreq.o(.text) for USBH_BulkReceiveData
    usbh_cdc.o(.text) refers to usbh_ctlreq.o(.text) for USBH_CtlReq
    usbh_cdc.o(.text) refers to usbh_cdc.o(.bss) for cdcBuff
    usbh_cdc.o(.data) refers to usbh_cdc.o(.conststring) for .conststring
    usbh_cdc.o(.data) refers to usbh_cdc.o(.text) for USBH_CDC_InterfaceInit
    usbh_core.o(.text) refers to printfa.o(i.__0printf) for __2printf
    usbh_core.o(.text) refers to cmsis_os.o(.text) for osMessageCreate
    usbh_core.o(.text) refers to memcpya.o(.text) for __aeabi_memcpy4
    usbh_core.o(.text) refers to usbh_conf.o(.text) for USBH_LL_Init
    usbh_core.o(.text) refers to usbh_pipes.o(.text) for USBH_FreePipe
    usbh_core.o(.text) refers to usbh_ctlreq.o(.text) for USBH_Get_DevDesc
    usbh_core.o(.text) refers to usbh_core.o(.constdata) for .constdata
    usbh_core.o(.text) refers to usbh_core.o(.conststring) for .conststring
    usbh_core.o(.constdata) refers to usbh_core.o(.conststring) for .conststring
    usbh_core.o(.constdata) refers to usbh_core.o(.text) for USBH_Process_OS
    usbh_ctlreq.o(.text) refers to usbh_ioreq.o(.text) for USBH_CtlSendSetup
    usbh_ctlreq.o(.text) refers to usbh_conf.o(.text) for USBH_LL_GetURBState
    usbh_ctlreq.o(.text) refers to cmsis_os.o(.text) for osMessagePut
    usbh_ctlreq.o(.text) refers to printfa.o(i.__0printf) for __2printf
    usbh_ctlreq.o(.text) refers to usbh_pipes.o(.text) for USBH_FreePipe
    usbh_ioreq.o(.text) refers to usbh_conf.o(.text) for USBH_LL_SubmitURB
    usbh_pipes.o(.text) refers to usbh_conf.o(.text) for USBH_LL_OpenPipe
    gdu_ringbuffer.o(.text) refers to memcpya.o(.text) for __aeabi_memcpy
    apply_high_power.o(.text) refers to stm32f4xx_hal_gpio.o(.text) for HAL_GPIO_Init
    apply_high_power.o(.text) refers to gdu_logger.o(.text) for GduLogger_LogOutput
    apply_high_power.o(.text) refers to apply_high_power.o(.constdata) for __FUNCTION__
    upgrade_platform_opt_stm32.o(.text) refers to flash_if.o(.text) for FLASH_If_Erase
    upgrade_platform_opt_stm32.o(.text) refers to memcpya.o(.text) for __aeabi_memcpy4
    upgrade_platform_opt_stm32.o(.text) refers to upgrade_platform_opt_stm32.o(.bss) for s_upgradeFileInfo
    stm32f4xx_hal.o(.text) refers to stm32f4xx_hal_cortex.o(.text) for HAL_SYSTICK_Config
    stm32f4xx_hal.o(.text) refers to stm32f4xx_hal_timebase_tim.o(.text) for HAL_InitTick
    stm32f4xx_hal.o(.text) refers to stm32f4xx_hal_msp.o(.text) for HAL_MspInit
    stm32f4xx_hal.o(.text) refers to stm32f4xx_hal.o(.data) for uwTickFreq
    stm32f4xx_hal.o(.text) refers to system_stm32f4xx.o(.data) for SystemCoreClock
    stm32f4xx_hal_dma.o(.text) refers to stm32f4xx_hal.o(.text) for HAL_GetTick
    stm32f4xx_hal_dma.o(.text) refers to stm32f4xx_hal_dma.o(.constdata) for flagBitshiftOffset
    stm32f4xx_hal_dma.o(.text) refers to system_stm32f4xx.o(.data) for SystemCoreClock
    stm32f4xx_hal_flash.o(.text) refers to stm32f4xx_hal.o(.text) for HAL_GetTick
    stm32f4xx_hal_flash.o(.text) refers to stm32f4xx_hal_flash_ex.o(.text) for FLASH_Erase_Sector
    stm32f4xx_hal_flash.o(.text) refers to stm32f4xx_hal_flash.o(.bss) for pFlash
    stm32f4xx_hal_flash_ex.o(.text) refers to stm32f4xx_hal_flash.o(.text) for FLASH_WaitForLastOperation
    stm32f4xx_hal_flash_ex.o(.text) refers to stm32f4xx_hal_flash.o(.bss) for pFlash
    stm32f4xx_hal_hcd.o(.text) refers to usbh_conf.o(.text) for HAL_HCD_MspInit
    stm32f4xx_hal_hcd.o(.text) refers to stm32f4xx_ll_usb.o(.text) for USB_DisableGlobalInt
    stm32f4xx_hal_hcd.o(.text) refers to memcpya.o(.text) for __aeabi_memcpy4
    stm32f4xx_hal_pwr_ex.o(.text) refers to stm32f4xx_hal.o(.text) for HAL_GetTick
    stm32f4xx_hal_rcc.o(.text) refers to stm32f4xx_hal.o(.text) for HAL_GetTick
    stm32f4xx_hal_rcc.o(.text) refers to uldiv.o(.text) for __aeabi_uldivmod
    stm32f4xx_hal_rcc.o(.text) refers to stm32f4xx_hal_timebase_tim.o(.text) for HAL_InitTick
    stm32f4xx_hal_rcc.o(.text) refers to stm32f4xx_hal_gpio.o(.text) for HAL_GPIO_Init
    stm32f4xx_hal_rcc.o(.text) refers to system_stm32f4xx.o(.constdata) for AHBPrescTable
    stm32f4xx_hal_rcc.o(.text) refers to system_stm32f4xx.o(.data) for SystemCoreClock
    stm32f4xx_hal_rcc.o(.text) refers to stm32f4xx_hal.o(.data) for uwTickPrio
    stm32f4xx_hal_rcc_ex.o(.text) refers to stm32f4xx_hal.o(.text) for HAL_GetTick
    stm32f4xx_hal_rcc_ex.o(.text) refers to stm32f4xx_hal_timebase_tim.o(.text) for HAL_InitTick
    stm32f4xx_hal_rcc_ex.o(.text) refers to system_stm32f4xx.o(.data) for SystemCoreClock
    stm32f4xx_hal_rcc_ex.o(.text) refers to stm32f4xx_hal.o(.data) for uwTickPrio
    stm32f4xx_hal_tim.o(.text) refers to main.o(.text) for HAL_TIM_PeriodElapsedCallback
    stm32f4xx_hal_tim.o(.text) refers to stm32f4xx_hal_dma.o(.text) for HAL_DMA_Start_IT
    stm32f4xx_hal_tim.o(.text) refers to stm32f4xx_hal_tim_ex.o(.text) for HAL_TIMEx_BreakCallback
    stm32f4xx_hal_tim_ex.o(.text) refers to stm32f4xx_hal_tim.o(.text) for TIM_Base_SetConfig
    stm32f4xx_hal_tim_ex.o(.text) refers to stm32f4xx_hal_dma.o(.text) for HAL_DMA_Start_IT
    stm32f4xx_hal_uart.o(.text) refers to stm32f4xx_hal_rcc.o(.text) for HAL_RCC_GetPCLK2Freq
    stm32f4xx_hal_uart.o(.text) refers to uldiv.o(.text) for __aeabi_uldivmod
    stm32f4xx_hal_uart.o(.text) refers to stm32f4xx_hal_msp.o(.text) for HAL_UART_MspInit
    stm32f4xx_hal_uart.o(.text) refers to stm32f4xx_hal.o(.text) for HAL_GetTick
    stm32f4xx_hal_uart.o(.text) refers to stm32f4xx_hal_dma.o(.text) for HAL_DMA_Start_IT
    stm32f4xx_ll_usb.o(.text) refers to stm32f4xx_hal.o(.text) for HAL_Delay
    cmsis_os.o(.text) refers to tasks.o(.text) for vTaskStartScheduler
    cmsis_os.o(.text) refers to queue.o(.text) for xQueueCreateMutex
    cmsis_os.o(.text) refers to heap_4.o(.text) for pvPortMalloc
    cmsis_os.o(.text) refers to port.o(.text) for vPortEnterCritical
    heap_4.o(.text) refers to tasks.o(.text) for vTaskSuspendAll
    heap_4.o(.text) refers to port.o(.text) for vPortEnterCritical
    heap_4.o(.text) refers to heap_4.o(.data) for xStart
    heap_4.o(.text) refers to heap_4.o(.bss) for ucHeap
    port.o(.emb_text) refers to tasks.o(.text) for vTaskSwitchContext
    port.o(.emb_text) refers to tasks.o(.data) for pxCurrentTCB
    port.o(.text) refers to port.o(.emb_text) for __asm___6_port_c_39a90d8d__prvEnableVFP
    port.o(.text) refers to tasks.o(.text) for xTaskIncrementTick
    port.o(.text) refers to port.o(.data) for uxCriticalNesting
    port.o(.text) refers to system_stm32f4xx.o(.data) for SystemCoreClock
    event_groups.o(.text) refers to heap_4.o(.text) for pvPortMalloc
    event_groups.o(.text) refers to list.o(.text) for vListInitialise
    event_groups.o(.text) refers to tasks.o(.text) for vTaskSuspendAll
    event_groups.o(.text) refers to port.o(.text) for vPortEnterCritical
    queue.o(.text) refers to port.o(.text) for vPortEnterCritical
    queue.o(.text) refers to tasks.o(.text) for xTaskRemoveFromEventList
    queue.o(.text) refers to list.o(.text) for vListInitialise
    queue.o(.text) refers to heap_4.o(.text) for pvPortMalloc
    queue.o(.text) refers to memcpya.o(.text) for __aeabi_memcpy
    queue.o(.text) refers to queue.o(.bss) for xQueueRegistry
    tasks.o(.text) refers to list.o(.text) for vListInitialise
    tasks.o(.text) refers to port.o(.text) for vPortEnterCritical
    tasks.o(.text) refers to heap_4.o(.text) for pvPortMalloc
    tasks.o(.text) refers to tasks.o(.bss) for pxReadyTasksLists
    tasks.o(.text) refers to tasks.o(.data) for pxDelayedTaskList
    usb_host.o(.text) refers to usbh_cdc.o(.text) for USBH_CDC_DataQueueInit
    usb_host.o(.text) refers to usbh_core.o(.text) for USBH_Init
    usb_host.o(.text) refers to main.o(.text) for Error_Handler
    usb_host.o(.text) refers to usb_host.o(.data) for ApplicaionState
    usb_host.o(.text) refers to usb_host.o(.bss) for hUsbHostFS
    usb_host.o(.text) refers to usbh_cdc.o(.data) for CDC_Class
    usbh_conf.o(.text) refers to memseta.o(.text) for __aeabi_memclr4
    usbh_conf.o(.text) refers to stm32f4xx_hal_gpio.o(.text) for HAL_GPIO_Init
    usbh_conf.o(.text) refers to stm32f4xx_hal_cortex.o(.text) for HAL_NVIC_SetPriority
    usbh_conf.o(.text) refers to usbh_core.o(.text) for USBH_LL_IncTimer
    usbh_conf.o(.text) refers to stm32f4xx_hal_hcd.o(.text) for HAL_HCD_Init
    usbh_conf.o(.text) refers to main.o(.text) for Error_Handler
    usbh_conf.o(.text) refers to stm32f4xx_hal.o(.text) for HAL_Delay
    usbh_conf.o(.text) refers to stm32f4xx_it.o(.bss) for hhcd_USB_OTG_FS
    test_payload_cam_emu_base.o(.text) refers to gdu_platform.o(.text) for GduPlatform_GetOsalHandler
    test_payload_cam_emu_base.o(.text) refers to gdu_logger.o(.text) for GduLogger_LogOutput
    test_payload_cam_emu_base.o(.text) refers to memcpya.o(.text) for __aeabi_memcpy
    test_payload_cam_emu_base.o(.text) refers to test_payload_cam_emu_base.o(.data) for s_commonMutex
    test_payload_cam_emu_base.o(.text) refers to test_payload_cam_emu_base.o(.constdata) for __FUNCTION__
    test_payload_cam_emu_base.o(.text) refers to test_payload_cam_emu_base.o(.bss) for s_cameraState
    test_payload_cam_emu_base.o(.text) refers to memseta.o(.text) for __aeabi_memclr4
    test_payload_cam_emu_base.o(.text) refers to f2d.o(.text) for __aeabi_f2d
    test_payload_cam_emu_base.o(.text) refers to test_payload_cam_emu_base.o(.conststring) for .conststring
    test_payload_cam_emu_base.o(.text) refers to atan2f.o(i.__hardfp_atan2f) for __hardfp_atan2f
    test_payload_cam_emu_base.o(.text) refers to gdu_payload_camera.o(.text) for GduPayloadCamera_Init
    test_payload_cam_emu_base.o(.text) refers to gdu_aircraft_info.o(.text) for GduAircraftInfo_GetBaseInfo
    test_fc_subscription.o(.text) refers to memseta.o(.text) for __aeabi_memclr4
    test_fc_subscription.o(.text) refers to gdu_platform.o(.text) for GduPlatform_GetOsalHandler
    test_fc_subscription.o(.text) refers to gdu_subscribeinfo.o(.text) for GduFcSubscription_GetLatestValueOfTopic
    test_fc_subscription.o(.text) refers to gdu_logger.o(.text) for GduLogger_LogOutput
    test_fc_subscription.o(.text) refers to f2d.o(.text) for __aeabi_f2d
    test_fc_subscription.o(.text) refers to asinf.o(i.__hardfp_asinf) for __hardfp_asinf
    test_fc_subscription.o(.text) refers to dmul.o(.text) for __aeabi_dmul
    test_fc_subscription.o(.text) refers to atan2f.o(i.__hardfp_atan2f) for __hardfp_atan2f
    test_fc_subscription.o(.text) refers to test_fc_subscription.o(.constdata) for __FUNCTION__
    test_fc_subscription.o(.text) refers to test_fc_subscription.o(.data) for s_userFcSubscriptionDataShow
    test_fc_subscription.o(.text) refers to test_fc_subscription.o(.conststring) for .conststring
    test_payload_gimbal_emu.o(.text) refers to gdu_logger.o(.text) for GduLogger_LogOutput
    test_payload_gimbal_emu.o(.text) refers to gdu_platform.o(.text) for GduPlatform_GetOsalHandler
    test_payload_gimbal_emu.o(.text) refers to test_payload_gimbal_emu.o(.constdata) for __FUNCTION__
    test_payload_gimbal_emu.o(.text) refers to test_payload_gimbal_emu.o(.bss) for s_systemState
    test_payload_gimbal_emu.o(.text) refers to test_payload_gimbal_emu.o(.data) for step
    test_payload_gimbal_emu.o(.text) refers to memcmp.o(.text) for memcmp
    test_payload_gimbal_emu.o(.text) refers to test_payload_gimbal_emu.o(.conststring) for .conststring
    test_payload_gimbal_emu.o(.text) refers to memcpya.o(.text) for __aeabi_memcpy
    test_payload_gimbal_emu.o(.text) refers to gdu_gimbal.o(.text) for GduGimbal_RegCommonHandler
    test_positioning.o(.text) refers to memseta.o(.text) for __aeabi_memclr4
    test_positioning.o(.text) refers to gdu_platform.o(.text) for GduPlatform_GetOsalHandler
    test_positioning.o(.text) refers to test_fc_subscription.o(.text) for GduTest_FcSubscriptionGetTotalSatelliteNumber
    test_positioning.o(.text) refers to gdu_logger.o(.text) for GduLogger_LogOutput
    test_positioning.o(.text) refers to test_time_sync.o(.text) for GduTest_TimeSyncGetNewestPpsTriggerLocalTimeUs
    test_positioning.o(.text) refers to time_sync.o(.text) for GduTimeSync_TransferToAircraftTime
    test_positioning.o(.text) refers to gdu_positioning.o(.text) for GduPositioning_GetPositionInformationSync
    test_positioning.o(.text) refers to test_positioning.o(.constdata) for __FUNCTION__
    test_positioning.o(.text) refers to test_positioning.o(.data) for s_eventIndex
    test_positioning.o(.text) refers to test_positioning.o(.conststring) for .conststring
    test_time_sync.o(.text) refers to gdu_logger.o(.text) for GduLogger_LogOutput
    test_time_sync.o(.text) refers to gdu_platform.o(.text) for GduPlatform_GetOsalHandler
    test_time_sync.o(.text) refers to test_fc_subscription.o(.text) for GduTest_FcSubscriptionGetTotalSatelliteNumber
    test_time_sync.o(.text) refers to time_sync.o(.text) for GduTimeSync_TransferToAircraftTime
    test_time_sync.o(.text) refers to test_time_sync.o(.constdata) for __FUNCTION__
    test_time_sync.o(.text) refers to test_time_sync.o(.conststring) for .conststring
    test_time_sync.o(.text) refers to test_time_sync.o(.data) for s_timeSyncHandler
    util_buffer.o(.text) refers to memcpya.o(.text) for __aeabi_memcpy
    util_md5.o(.text) refers to memseta.o(.text) for __aeabi_memclr4
    test_power_management.o(.text) refers to gdu_logger.o(.text) for GduLogger_LogOutput
    test_power_management.o(.text) refers to gdu_power_management.o(.text) for GduPowerManagement_Init
    test_power_management.o(.text) refers to gdu_aircraft_info.o(.text) for GduAircraftInfo_GetBaseInfo
    test_power_management.o(.text) refers to test_power_management.o(.constdata) for __FUNCTION__
    test_power_management.o(.text) refers to test_power_management.o(.data) for s_applyHighPowerHandler
    file_binary_array_list_en.o(.data) refers to file_binary_array_list_en.o(.conststring) for .conststring
    file_binary_array_list_en.o(.data) refers to file_binary_array_list_en.o(.constdata) for widget_config_json_fileBinaryArray
    test_widget.o(.text) refers to gdu_platform.o(.text) for GduPlatform_GetOsalHandler
    test_widget.o(.text) refers to gdu_logger.o(.text) for GduLogger_LogOutput
    test_widget.o(.text) refers to printfa.o(i.__0snprintf) for __2snprintf
    test_widget.o(.text) refers to gdu_widget.o(.text) for GduWidgetFloatingWindow_ShowMessage
    test_widget.o(.text) refers to memseta.o(.text) for __aeabi_memclr4
    test_widget.o(.text) refers to strlen.o(.text) for strlen
    test_widget.o(.text) refers to memcpya.o(.text) for __aeabi_memcpy
    test_widget.o(.text) refers to test_widget.o(.constdata) for __FUNCTION__
    test_widget.o(.text) refers to test_widget.o(.conststring) for .conststring
    test_widget.o(.text) refers to file_binary_array_list_en.o(.data) for g_EnBinaryArrayCount
    test_widget.o(.text) refers to test_widget.o(.data) for s_widgetTestThread
    test_widget.o(.text) refers to test_widget.o(.bss) for s_widgetFileDirPath
    test_widget.o(.constdata) refers to test_widget.o(.text) for GduTestWidget_SetWidgetValue
    test_widget.o(.data) refers to test_widget.o(.conststring) for .conststring
    test_upgrade.o(.text) refers to gdu_platform.o(.text) for GduPlatform_GetOsalHandler
    test_upgrade.o(.text) refers to test_upgrade_platform_opt.o(.text) for GduTest_CleanUpgradeProgramFileStoreArea
    test_upgrade.o(.text) refers to gdu_logger.o(.text) for GduLogger_LogOutput
    test_upgrade.o(.text) refers to gdu_upgrade.o(.text) for GduUpgrade_PushUpgradeState
    test_upgrade.o(.text) refers to memcpya.o(.text) for __aeabi_memcpy4
    test_upgrade.o(.text) refers to test_upgrade.o(.data) for s_isNeedEnterUpgradeModeProcess
    test_upgrade.o(.text) refers to test_upgrade.o(.constdata) for __FUNCTION__
    test_upgrade.o(.text) refers to test_upgrade.o(.conststring) for .conststring
    test_upgrade.o(.constdata) refers to test_upgrade_common_file_transfer.o(.text) for GduTestCommonFileTransfer_Start
    test_upgrade.o(.constdata) refers to test_upgrade.o(.text) for GduTest_EnterUpgradeMode
    test_upgrade_common_file_transfer.o(.text) refers to memseta.o(.text) for __aeabi_memclr4
    test_upgrade_common_file_transfer.o(.text) refers to test_upgrade_platform_opt.o(.text) for GduTest_CreateUpgradeProgramFile
    test_upgrade_common_file_transfer.o(.text) refers to gdu_logger.o(.text) for GduLogger_LogOutput
    test_upgrade_common_file_transfer.o(.text) refers to memcpya.o(.text) for __aeabi_memcpy4
    test_upgrade_common_file_transfer.o(.text) refers to util_md5.o(.text) for UtilMd5_Init
    test_upgrade_common_file_transfer.o(.text) refers to memcmp.o(.text) for memcmp
    test_upgrade_common_file_transfer.o(.text) refers to test_upgrade_common_file_transfer.o(.bss) for s_upgradeFileInfo
    test_upgrade_common_file_transfer.o(.text) refers to test_upgrade_common_file_transfer.o(.data) for s_alreadyTransferFileSize
    test_upgrade_common_file_transfer.o(.text) refers to test_upgrade_common_file_transfer.o(.constdata) for __FUNCTION__
    test_upgrade_common_file_transfer.o(.text) refers to test_upgrade_common_file_transfer.o(.conststring) for .conststring
    test_upgrade_platform_opt.o(.text) refers to gdu_logger.o(.text) for GduLogger_LogOutput
    test_upgrade_platform_opt.o(.text) refers to memcpya.o(.text) for __aeabi_memcpy4
    test_upgrade_platform_opt.o(.text) refers to test_upgrade_platform_opt.o(.constdata) for __FUNCTION__
    test_upgrade_platform_opt.o(.text) refers to test_upgrade_platform_opt.o(.bss) for s_upgradePlatformOpt
    test_flight_control.o(.text) refers to gdu_flight_controller.o(.text) for GduFlightController_Deinit
    test_flight_control.o(.text) refers to gdu_logger.o(.text) for GduLogger_LogOutput
    test_flight_control.o(.text) refers to gdu_subscribeinfo.o(.text) for GduFcSubscription_DeInit
    test_flight_control.o(.text) refers to test_widget.o(.text) for GduTest_WidgetLogAppend
    test_flight_control.o(.text) refers to test_flight_control.o(.constdata) for __FUNCTION__
    test_flight_control.o(.text) refers to test_flight_control.o(.conststring) for .conststring
    test_flight_control.o(.text) refers to test_flight_control.o(.data) for s_osalHandler
    test_flight_control.o(.text) refers to memseta.o(.text) for __aeabi_memclr4
    test_flight_control.o(.text) refers to f2d.o(.text) for __aeabi_f2d
    test_flight_control.o(.text) refers to memcpya.o(.text) for __aeabi_memcpy
    test_flight_control.o(.text) refers to cdrcmple.o(.text) for __aeabi_cdrcmple
    test_flight_control.o(.text) refers to cdcmple.o(.text) for __aeabi_cdcmple
    test_flight_control.o(.text) refers to pow.o(i.__hardfp_pow) for __hardfp_pow
    test_flight_control.o(.text) refers to dadd.o(.text) for __aeabi_dadd
    test_flight_control.o(.text) refers to sqrt.o(i.__hardfp_sqrt) for __hardfp_sqrt
    test_flight_control.o(.text) refers to d2f.o(.text) for __aeabi_d2f
    test_flight_control.o(.text) refers to fabs.o(i.__hardfp_fabs) for __hardfp_fabs
    test_flight_control.o(.text) refers to dmul.o(.text) for __aeabi_dmul
    test_flight_control.o(.text) refers to cos.o(i.__hardfp_cos) for __hardfp_cos
    test_flight_control.o(.text) refers to asin.o(i.__hardfp_asin) for __hardfp_asin
    test_flight_control.o(.text) refers to atan2.o(i.__hardfp_atan2) for __hardfp_atan2
    test_flight_control.o(.text) refers to ddiv.o(.text) for __aeabi_ddiv
    test_flight_control.o(.text) refers to gdu_platform.o(.text) for GduPlatform_GetOsalHandler
    test_flight_control.o(.constdata) refers to test_flight_control.o(.conststring) for .conststring
    gdu_aircraft_info.o(.text) refers to basemsghandle.o(.text) for get_appInfo
    gdu_core.o(.text) refers to memcpya.o(.text) for __aeabi_memcpy
    gdu_core.o(.text) refers to memseta.o(.text) for __aeabi_memclr
    gdu_core.o(.text) refers to npc.o(.text) for npcSendData
    gdu_core.o(.text) refers to strlen.o(.text) for strlen
    gdu_core.o(.text) refers to gdu_platform.o(.text) for GduPlatform_GetOsalHandler
    gdu_core.o(.text) refers to gdu_logger.o(.text) for GduLogger_LogOutput
    gdu_core.o(.text) refers to gdu_serial.o(.text) for GduSerial_Init
    gdu_core.o(.text) refers to strcpy.o(.text) for strcpy
    gdu_core.o(.text) refers to gdu_core.o(.data) for NPCUartLink
    gdu_core.o(.text) refers to gdu_core.o(.bss) for ProductAlias
    gdu_core.o(.text) refers to gdu_platform.o(.data) for OsalHandler
    gdu_core.o(.text) refers to gdu_core.o(.constdata) for __FUNCTION__
    gdu_gimbal.o(.text) refers to gdu_logger.o(.text) for GduLogger_LogOutput
    gdu_gimbal.o(.text) refers to memseta.o(.text) for __aeabi_memclr4
    gdu_gimbal.o(.text) refers to dflti.o(.text) for __aeabi_i2d
    gdu_gimbal.o(.text) refers to dmul.o(.text) for __aeabi_dmul
    gdu_gimbal.o(.text) refers to dfixi.o(.text) for __aeabi_d2iz
    gdu_gimbal.o(.text) refers to memcpya.o(.text) for __aeabi_memcpy
    gdu_gimbal.o(.text) refers to gdu_gimbal.o(.constdata) for __FUNCTION__
    gdu_gimbal.o(.text) refers to gdu_gimbal.o(.data) for GimbalCommonHandler
    gdu_gimbal.o(.text) refers to gdu_core.o(.text) for GduCore_Reg_FunList
    gdu_gimbal.o(.data) refers to gdu_gimbal.o(.text) for GduGimbal_PTZ_CtrlCmd
    gdu_logger.o(.text) refers to gdu_platform.o(.text) for GduPlatform_GetOsalHandler
    gdu_logger.o(.text) refers to printfa.o(i.__0printf) for __2printf
    gdu_logger.o(.text) refers to f2d.o(.text) for __aeabi_f2d
    gdu_logger.o(.text) refers to printfa.o(i.__0sprintf) for __2sprintf
    gdu_logger.o(.text) refers to strlen.o(.text) for strlen
    gdu_logger.o(.text) refers to printfa.o(i.__0vsprintf) for vsprintf
    gdu_logger.o(.text) refers to gdu_logger.o(.data) for loogerMutexHandle
    gdu_logger.o(.text) refers to gdu_platform.o(.data) for OsalHandler
    gdu_logger.o(.text) refers to gdu_logger.o(.constdata) for .constdata
    gdu_logger.o(.text) refers to gdu_logger.o(.bss) for sprint_buf
    gdu_logger.o(.constdata) refers to gdu_logger.o(.conststring) for .conststring
    gdu_payload_camera.o(.text) refers to memcpya.o(.text) for __aeabi_memcpy
    gdu_payload_camera.o(.text) refers to gdu_core.o(.text) for GduCore_SendData
    gdu_payload_camera.o(.text) refers to gdu_platform.o(.text) for GduPlatform_GetOsalHandler
    gdu_payload_camera.o(.text) refers to gdu_logger.o(.text) for GduLogger_LogOutput
    gdu_payload_camera.o(.text) refers to gdu_payload_camera.o(.bss) for CameraSDCardState
    gdu_payload_camera.o(.text) refers to gdu_payload_camera.o(.data) for SysInfo
    gdu_payload_camera.o(.text) refers to gdu_payload_camera.o(.constdata) for __FUNCTION__
    gdu_payload_camera.o(.text) refers to gdu_payload_camera.o(.conststring) for .conststring
    gdu_payload_camera.o(.text) refers to memseta.o(.text) for __aeabi_memclr
    gdu_payload_camera.o(.data) refers to gdu_payload_camera.o(.text) for GduCam_GetParam
    gdu_platform.o(.text) refers to gdu_platform.o(.data) for HalUartHandler
    gdu_positioning.o(.text) refers to memcpya.o(.text) for __aeabi_memcpy
    gdu_positioning.o(.text) refers to memseta.o(.text) for __aeabi_memclr4
    gdu_positioning.o(.text) refers to gdu_core.o(.text) for GduCore_SendData
    gdu_positioning.o(.text) refers to gdu_logger.o(.text) for GduLogger_LogOutput
    gdu_positioning.o(.text) refers to gdu_platform.o(.text) for GduPlatform_GetOsalHandler
    gdu_positioning.o(.text) refers to printfa.o(i.__0sprintf) for __2sprintf
    gdu_positioning.o(.text) refers to time_sync.o(.text) for standard_to_stamp
    gdu_positioning.o(.text) refers to gdu_positioning.o(.bss) for posState
    gdu_positioning.o(.text) refers to gdu_positioning.o(.data) for SysInfo
    gdu_positioning.o(.text) refers to gdu_positioning.o(.constdata) for __FUNCTION__
    gdu_positioning.o(.text) refers to uldiv.o(.text) for __aeabi_uldivmod
    gdu_positioning.o(.text) refers to dflti.o(.text) for __aeabi_i2d
    gdu_positioning.o(.text) refers to dadd.o(.text) for __aeabi_dsub
    gdu_positioning.o(.text) refers to ddiv.o(.text) for __aeabi_ddiv
    gdu_positioning.o(.text) refers to gdu_positioning.o(.conststring) for .conststring
    gdu_positioning.o(.text) refers to dmul.o(.text) for __aeabi_dmul
    gdu_positioning.o(.text) refers to gdu_subscribeinfo.o(.text) for GduFcSubscription_getPosSolutionProperty
    gdu_power_management.o(.text) refers to gdu_power_management.o(.data) for GduWriteHighPowerApplyPin
    gdu_subscribeinfo.o(.text) refers to gdu_core.o(.text) for GduCore_Subscibe
    gdu_subscribeinfo.o(.text) refers to gdu_platform.o(.text) for GduPlatform_GetOsalHandler
    gdu_subscribeinfo.o(.text) refers to gdu_logger.o(.text) for GduLogger_LogOutput
    gdu_subscribeinfo.o(.text) refers to time_sync.o(.text) for GduTimeSync_TransferToAircraftTime
    gdu_subscribeinfo.o(.text) refers to memcpya.o(.text) for __aeabi_memcpy
    gdu_subscribeinfo.o(.text) refers to dflti.o(.text) for __aeabi_i2d
    gdu_subscribeinfo.o(.text) refers to ddiv.o(.text) for __aeabi_ddiv
    gdu_subscribeinfo.o(.text) refers to gdu_subscribeinfo.o(.data) for positionSolutionProperty
    gdu_subscribeinfo.o(.text) refers to gdu_subscribeinfo.o(.constdata) for __FUNCTION__
    gdu_subscribeinfo.o(.text) refers to gdu_subscribeinfo.o(.bss) for posAndTime
    gdu_subscribeinfo.o(.text) refers to printfa.o(i.__0sprintf) for __2sprintf
    gdu_subscribeinfo.o(.text) refers to atoi.o(.text) for atoi
    gdu_subscribeinfo.o(.text) refers to memseta.o(.text) for __aeabi_memclr
    gdu_subscribeinfo.o(.data) refers to gdu_subscribeinfo.o(.text) for aircraft_fc_basic_state_1_Handle
    gdu_upgrade.o(.text) refers to memcpya.o(.text) for __aeabi_memcpy
    gdu_upgrade.o(.text) refers to strstr.o(.text) for strstr
    gdu_upgrade.o(.text) refers to atoi.o(.text) for atoi
    gdu_upgrade.o(.text) refers to memseta.o(.text) for __aeabi_memclr4
    gdu_upgrade.o(.text) refers to printfa.o(i.__0sprintf) for __2sprintf
    gdu_upgrade.o(.text) refers to strlen.o(.text) for strlen
    gdu_upgrade.o(.text) refers to gdu_core.o(.text) for GduCore_SendData
    gdu_upgrade.o(.text) refers to gdu_logger.o(.text) for GduLogger_LogOutput
    gdu_upgrade.o(.text) refers to gdu_upgrade.o(.bss) for status
    gdu_upgrade.o(.text) refers to gdu_upgrade.o(.data) for SysInfo
    gdu_upgrade.o(.text) refers to gdu_upgrade.o(.constdata) for __FUNCTION__
    gdu_upgrade.o(.text) refers to gdu_platform.o(.text) for GduPlatform_GetOsalHandler
    gdu_widget.o(.text) refers to memcpya.o(.text) for __aeabi_memcpy
    gdu_widget.o(.text) refers to gdu_core.o(.text) for GduCore_SendData
    gdu_widget.o(.text) refers to strlen.o(.text) for strlen
    gdu_widget.o(.text) refers to gdu_widget.o(.bss) for status
    gdu_widget.o(.text) refers to gdu_widget.o(.data) for SysInfo
    gdu_widget.o(.text) refers to gdu_platform.o(.text) for GduPlatform_GetOsalHandler
    gdu_widget.o(.text) refers to memseta.o(.text) for __aeabi_memclr4
    gdu_widget.o(.text) refers to strcmp.o(.text) for strcmp
    gdu_widget.o(.data) refers to gdu_widget.o(.text) for GduWidget_ReceiveCmd
    time_sync.o(.text) refers to memseta.o(.text) for __aeabi_memclr4
    time_sync.o(.text) refers to atoi.o(.text) for atoi
    time_sync.o(.text) refers to mktime.o(.text) for mktime
    time_sync.o(.text) refers to gdu_platform.o(.text) for GduPlatform_GetOsalHandler
    time_sync.o(.text) refers to gdu_logger.o(.text) for GduLogger_LogOutput
    time_sync.o(.text) refers to strcmp.o(.text) for strcmp
    time_sync.o(.text) refers to strstr.o(.text) for strstr
    time_sync.o(.text) refers to printfa.o(i.__0sprintf) for __2sprintf
    time_sync.o(.text) refers to strncmp.o(.text) for strncmp
    time_sync.o(.text) refers to gdu_positioning.o(.text) for GduPositioning_getDate
    time_sync.o(.text) refers to gdu_core.o(.text) for GduCore_Reg_FunList
    time_sync.o(.text) refers to uldiv.o(.text) for __aeabi_uldivmod
    time_sync.o(.text) refers to localtime_w.o(.text) for localtime
    time_sync.o(.text) refers to time_sync.o(.data) for lastSeq
    time_sync.o(.text) refers to time_sync.o(.constdata) for __FUNCTION__
    gdu_flight_controller.o(.text) refers to memcpya.o(.text) for __aeabi_memcpy
    gdu_flight_controller.o(.text) refers to memseta.o(.text) for __aeabi_memclr4
    gdu_flight_controller.o(.text) refers to gdu_core.o(.text) for GduCore_SendData
    gdu_flight_controller.o(.text) refers to gdu_logger.o(.text) for GduLogger_LogOutput
    gdu_flight_controller.o(.text) refers to gdu_flight_controller.o(.bss) for avoidanceState
    gdu_flight_controller.o(.text) refers to gdu_flight_controller.o(.data) for SysInfo
    gdu_flight_controller.o(.text) refers to gdu_flight_controller.o(.constdata) for __FUNCTION__
    gdu_flight_controller.o(.text) refers to gdu_platform.o(.text) for GduPlatform_GetOsalHandler
    gdu_flight_controller.o(.text) refers to gdu_flight_controller.o(.conststring) for .conststring
    gdu_flight_controller.o(.text) refers to dfixi.o(.text) for __aeabi_d2iz
    gdu_flight_controller.o(.text) refers to gdu_subscribeinfo.o(.text) for GduFcSubscription_GetLatestValueOfTopic
    gdu_flight_controller.o(.data) refers to gdu_flight_controller.o(.text) for GduFlightController_getSubDirAvoidanceState
    basemsghandle.o(.text) refers to memcpya.o(.text) for __aeabi_memcpy
    basemsghandle.o(.text) refers to memseta.o(.text) for __aeabi_memclr4
    basemsghandle.o(.text) refers to gdu_core.o(.text) for GduCore_SendData
    basemsghandle.o(.text) refers to gdu_logger.o(.text) for GduLogger_LogOutput
    basemsghandle.o(.text) refers to strcmp.o(.text) for strcmp
    basemsghandle.o(.text) refers to gdu_platform.o(.text) for GduPlatform_GetOsalHandler
    basemsghandle.o(.text) refers to basemsghandle.o(.bss) for adapterRingSn
    basemsghandle.o(.text) refers to basemsghandle.o(.data) for comId
    basemsghandle.o(.text) refers to basemsghandle.o(.constdata) for __FUNCTION__
    basemsghandle.o(.data) refers to basemsghandle.o(.text) for baseMsg_assignComId_ack
    gdu_serial.o(.text) refers to gdu_logger.o(.text) for GduLogger_LogOutput
    gdu_serial.o(.text) refers to gdu_platform.o(.data) for HalUartHandler
    gdu_serial.o(.text) refers to gdu_serial.o(.constdata) for __FUNCTION__
    gdu_serial.o(.text) refers to gdu_serial.o(.data) for UartHandle_Data
    npc.o(.text) refers to memcpya.o(.text) for __aeabi_memcpy
    npc.o(.text) refers to general_linked_list.o(.text) for glListInit
    npc.o(.text) refers to gdu_platform.o(.text) for GduPlatform_GetOsalHandler
    npc.o(.text) refers to memseta.o(.text) for __aeabi_memclr4
    npc.o(.text) refers to malloc.o(i.malloc) for malloc
    npc.o(.text) refers to gdu_logger.o(.text) for GduLogger_LogOutput
    npc.o(.text) refers to gdu_cache.o(.text) for EnQueue
    npc.o(.text) refers to npc.o(.data) for commList
    npc.o(.text) refers to npc.o(.constdata) for __FUNCTION__
    general_linked_list.o(.text) refers to gdu_platform.o(.text) for GduPlatform_GetOsalHandler
    asin.o(i.__hardfp_asin) refers (Special) to iusefp.o(.text) for __I$use$fp
    asin.o(i.__hardfp_asin) refers to dunder.o(i.__mathlib_dbl_infnan) for __mathlib_dbl_infnan
    asin.o(i.__hardfp_asin) refers to dmul.o(.text) for __aeabi_dmul
    asin.o(i.__hardfp_asin) refers to dadd.o(.text) for __aeabi_dadd
    asin.o(i.__hardfp_asin) refers to errno.o(i.__set_errno) for __set_errno
    asin.o(i.__hardfp_asin) refers to dunder.o(i.__mathlib_dbl_invalid) for __mathlib_dbl_invalid
    asin.o(i.__hardfp_asin) refers to fpclassify.o(i.__ARM_fpclassify) for __ARM_fpclassify
    asin.o(i.__hardfp_asin) refers to dunder.o(i.__mathlib_dbl_underflow) for __mathlib_dbl_underflow
    asin.o(i.__hardfp_asin) refers to poly.o(i.__kernel_poly) for __kernel_poly
    asin.o(i.__hardfp_asin) refers to ddiv.o(.text) for __aeabi_ddiv
    asin.o(i.__hardfp_asin) refers to fabs.o(i.fabs) for fabs
    asin.o(i.__hardfp_asin) refers to sqrt.o(i.sqrt) for sqrt
    asin.o(i.__hardfp_asin) refers to asin.o(.constdata) for .constdata
    asin.o(i.__softfp_asin) refers (Special) to iusefp.o(.text) for __I$use$fp
    asin.o(i.__softfp_asin) refers to asin.o(i.__hardfp_asin) for __hardfp_asin
    asin.o(i.asin) refers (Special) to iusefp.o(.text) for __I$use$fp
    asin.o(i.asin) refers to asin.o(i.__hardfp_asin) for __hardfp_asin
    asin.o(.constdata) refers (Special) to iusefp.o(.text) for __I$use$fp
    asin_x.o(i.____hardfp_asin$lsc) refers (Special) to iusefp.o(.text) for __I$use$fp
    asin_x.o(i.____hardfp_asin$lsc) refers to dunder.o(i.__mathlib_dbl_infnan) for __mathlib_dbl_infnan
    asin_x.o(i.____hardfp_asin$lsc) refers to dmul.o(.text) for __aeabi_dmul
    asin_x.o(i.____hardfp_asin$lsc) refers to dadd.o(.text) for __aeabi_dadd
    asin_x.o(i.____hardfp_asin$lsc) refers to errno.o(i.__set_errno) for __set_errno
    asin_x.o(i.____hardfp_asin$lsc) refers to poly.o(i.__kernel_poly) for __kernel_poly
    asin_x.o(i.____hardfp_asin$lsc) refers to ddiv.o(.text) for __aeabi_ddiv
    asin_x.o(i.____hardfp_asin$lsc) refers to fabs.o(i.fabs) for fabs
    asin_x.o(i.____hardfp_asin$lsc) refers to sqrt.o(i.sqrt) for sqrt
    asin_x.o(i.____hardfp_asin$lsc) refers to asin_x.o(.constdata) for .constdata
    asin_x.o(i.____softfp_asin$lsc) refers (Special) to iusefp.o(.text) for __I$use$fp
    asin_x.o(i.____softfp_asin$lsc) refers to asin_x.o(i.____hardfp_asin$lsc) for ____hardfp_asin$lsc
    asin_x.o(i.__asin$lsc) refers (Special) to iusefp.o(.text) for __I$use$fp
    asin_x.o(i.__asin$lsc) refers to asin_x.o(i.____hardfp_asin$lsc) for ____hardfp_asin$lsc
    asin_x.o(.constdata) refers (Special) to iusefp.o(.text) for __I$use$fp
    asinf.o(i.__hardfp_asinf) refers (Special) to iusefp.o(.text) for __I$use$fp
    asinf.o(i.__hardfp_asinf) refers to sqrtf.o(i.sqrtf) for sqrtf
    asinf.o(i.__hardfp_asinf) refers to fpclassifyf.o(i.__ARM_fpclassifyf) for __ARM_fpclassifyf
    asinf.o(i.__hardfp_asinf) refers to funder.o(i.__mathlib_flt_underflow) for __mathlib_flt_underflow
    asinf.o(i.__hardfp_asinf) refers to funder.o(i.__mathlib_flt_infnan) for __mathlib_flt_infnan
    asinf.o(i.__hardfp_asinf) refers to errno.o(i.__set_errno) for __set_errno
    asinf.o(i.__hardfp_asinf) refers to funder.o(i.__mathlib_flt_invalid) for __mathlib_flt_invalid
    asinf.o(i.__softfp_asinf) refers (Special) to iusefp.o(.text) for __I$use$fp
    asinf.o(i.__softfp_asinf) refers to asinf.o(i.__hardfp_asinf) for __hardfp_asinf
    asinf.o(i.asinf) refers (Special) to iusefp.o(.text) for __I$use$fp
    asinf.o(i.asinf) refers to asinf.o(i.__hardfp_asinf) for __hardfp_asinf
    asinf_x.o(i.____hardfp_asinf$lsc) refers (Special) to iusefp.o(.text) for __I$use$fp
    asinf_x.o(i.____hardfp_asinf$lsc) refers to sqrtf.o(i.sqrtf) for sqrtf
    asinf_x.o(i.____hardfp_asinf$lsc) refers to funder.o(i.__mathlib_flt_infnan) for __mathlib_flt_infnan
    asinf_x.o(i.____hardfp_asinf$lsc) refers to errno.o(i.__set_errno) for __set_errno
    asinf_x.o(i.____softfp_asinf$lsc) refers (Special) to iusefp.o(.text) for __I$use$fp
    asinf_x.o(i.____softfp_asinf$lsc) refers to asinf_x.o(i.____hardfp_asinf$lsc) for ____hardfp_asinf$lsc
    asinf_x.o(i.__asinf$lsc) refers (Special) to iusefp.o(.text) for __I$use$fp
    asinf_x.o(i.__asinf$lsc) refers to asinf_x.o(i.____hardfp_asinf$lsc) for ____hardfp_asinf$lsc
    atan2.o(i.__hardfp_atan2) refers (Special) to iusefp.o(.text) for __I$use$fp
    atan2.o(i.__hardfp_atan2) refers to dunder.o(i.__mathlib_dbl_infnan2) for __mathlib_dbl_infnan2
    atan2.o(i.__hardfp_atan2) refers to atan.o(i.atan) for atan
    atan2.o(i.__hardfp_atan2) refers to ddiv.o(.text) for __aeabi_ddiv
    atan2.o(i.__hardfp_atan2) refers to fabs.o(i.fabs) for fabs
    atan2.o(i.__hardfp_atan2) refers to dadd.o(.text) for __aeabi_dsub
    atan2.o(i.__hardfp_atan2) refers to qnan.o(.constdata) for __mathlib_zero
    atan2.o(i.__softfp_atan2) refers (Special) to iusefp.o(.text) for __I$use$fp
    atan2.o(i.__softfp_atan2) refers to atan2.o(i.__hardfp_atan2) for __hardfp_atan2
    atan2.o(i.atan2) refers (Special) to iusefp.o(.text) for __I$use$fp
    atan2.o(i.atan2) refers to atan2.o(i.__hardfp_atan2) for __hardfp_atan2
    atan2_x.o(i.____hardfp_atan2$lsc) refers (Special) to iusefp.o(.text) for __I$use$fp
    atan2_x.o(i.____hardfp_atan2$lsc) refers to dunder.o(i.__mathlib_dbl_infnan2) for __mathlib_dbl_infnan2
    atan2_x.o(i.____hardfp_atan2$lsc) refers to atan.o(i.atan) for atan
    atan2_x.o(i.____hardfp_atan2$lsc) refers to errno.o(i.__set_errno) for __set_errno
    atan2_x.o(i.____hardfp_atan2$lsc) refers to ddiv.o(.text) for __aeabi_ddiv
    atan2_x.o(i.____hardfp_atan2$lsc) refers to fabs.o(i.fabs) for fabs
    atan2_x.o(i.____hardfp_atan2$lsc) refers to dadd.o(.text) for __aeabi_dsub
    atan2_x.o(i.____hardfp_atan2$lsc) refers to qnan.o(.constdata) for __mathlib_zero
    atan2_x.o(i.____softfp_atan2$lsc) refers (Special) to iusefp.o(.text) for __I$use$fp
    atan2_x.o(i.____softfp_atan2$lsc) refers to atan2_x.o(i.____hardfp_atan2$lsc) for ____hardfp_atan2$lsc
    atan2_x.o(i.__atan2$lsc) refers (Special) to iusefp.o(.text) for __I$use$fp
    atan2_x.o(i.__atan2$lsc) refers to atan2_x.o(i.____hardfp_atan2$lsc) for ____hardfp_atan2$lsc
    atan2f.o(i.__hardfp_atan2f) refers (Special) to iusefp.o(.text) for __I$use$fp
    atan2f.o(i.__hardfp_atan2f) refers to fpclassifyf.o(i.__ARM_fpclassifyf) for __ARM_fpclassifyf
    atan2f.o(i.__hardfp_atan2f) refers to funder.o(i.__mathlib_flt_underflow) for __mathlib_flt_underflow
    atan2f.o(i.__hardfp_atan2f) refers to funder.o(i.__mathlib_flt_infnan2) for __mathlib_flt_infnan2
    atan2f.o(i.__softfp_atan2f) refers (Special) to iusefp.o(.text) for __I$use$fp
    atan2f.o(i.__softfp_atan2f) refers to atan2f.o(i.__hardfp_atan2f) for __hardfp_atan2f
    atan2f.o(i.atan2f) refers (Special) to iusefp.o(.text) for __I$use$fp
    atan2f.o(i.atan2f) refers to atan2f.o(i.__hardfp_atan2f) for __hardfp_atan2f
    atan2f_x.o(i.____hardfp_atan2f$lsc) refers (Special) to iusefp.o(.text) for __I$use$fp
    atan2f_x.o(i.____hardfp_atan2f$lsc) refers to funder.o(i.__mathlib_flt_infnan2) for __mathlib_flt_infnan2
    atan2f_x.o(i.____hardfp_atan2f$lsc) refers to errno.o(i.__set_errno) for __set_errno
    atan2f_x.o(i.____softfp_atan2f$lsc) refers (Special) to iusefp.o(.text) for __I$use$fp
    atan2f_x.o(i.____softfp_atan2f$lsc) refers to atan2f_x.o(i.____hardfp_atan2f$lsc) for ____hardfp_atan2f$lsc
    atan2f_x.o(i.__atan2f$lsc) refers (Special) to iusefp.o(.text) for __I$use$fp
    atan2f_x.o(i.__atan2f$lsc) refers to atan2f_x.o(i.____hardfp_atan2f$lsc) for ____hardfp_atan2f$lsc
    cos.o(i.__hardfp_cos) refers (Special) to iusefp.o(.text) for __I$use$fp
    cos.o(i.__hardfp_cos) refers to errno.o(i.__set_errno) for __set_errno
    cos.o(i.__hardfp_cos) refers to dunder.o(i.__mathlib_dbl_invalid) for __mathlib_dbl_invalid
    cos.o(i.__hardfp_cos) refers to dunder.o(i.__mathlib_dbl_infnan) for __mathlib_dbl_infnan
    cos.o(i.__hardfp_cos) refers to rred.o(i.__ieee754_rem_pio2) for __ieee754_rem_pio2
    cos.o(i.__hardfp_cos) refers to sin_i.o(i.__kernel_sin) for __kernel_sin
    cos.o(i.__hardfp_cos) refers to cos_i.o(i.__kernel_cos) for __kernel_cos
    cos.o(i.__softfp_cos) refers (Special) to iusefp.o(.text) for __I$use$fp
    cos.o(i.__softfp_cos) refers to cos.o(i.__hardfp_cos) for __hardfp_cos
    cos.o(i.cos) refers (Special) to iusefp.o(.text) for __I$use$fp
    cos.o(i.cos) refers to cos.o(i.__hardfp_cos) for __hardfp_cos
    cos_x.o(i.____hardfp_cos$lsc) refers (Special) to iusefp.o(.text) for __I$use$fp
    cos_x.o(i.____hardfp_cos$lsc) refers to errno.o(i.__set_errno) for __set_errno
    cos_x.o(i.____hardfp_cos$lsc) refers to dunder.o(i.__mathlib_dbl_infnan) for __mathlib_dbl_infnan
    cos_x.o(i.____hardfp_cos$lsc) refers to rred.o(i.__ieee754_rem_pio2) for __ieee754_rem_pio2
    cos_x.o(i.____hardfp_cos$lsc) refers to sin_i.o(i.__kernel_sin) for __kernel_sin
    cos_x.o(i.____hardfp_cos$lsc) refers to cos_i.o(i.__kernel_cos) for __kernel_cos
    cos_x.o(i.____softfp_cos$lsc) refers (Special) to iusefp.o(.text) for __I$use$fp
    cos_x.o(i.____softfp_cos$lsc) refers to cos_x.o(i.____hardfp_cos$lsc) for ____hardfp_cos$lsc
    cos_x.o(i.__cos$lsc) refers (Special) to iusefp.o(.text) for __I$use$fp
    cos_x.o(i.__cos$lsc) refers to cos_x.o(i.____hardfp_cos$lsc) for ____hardfp_cos$lsc
    fabs.o(i.__hardfp_fabs) refers (Special) to iusefp.o(.text) for __I$use$fp
    fabs.o(i.__softfp_fabs) refers (Special) to iusefp.o(.text) for __I$use$fp
    fabs.o(i.fabs) refers (Special) to iusefp.o(.text) for __I$use$fp
    pow.o(i.__hardfp_pow) refers (Special) to iusefp.o(.text) for __I$use$fp
    pow.o(i.__hardfp_pow) refers to dunder.o(i.__mathlib_dbl_infnan2) for __mathlib_dbl_infnan2
    pow.o(i.__hardfp_pow) refers to errno.o(i.__set_errno) for __set_errno
    pow.o(i.__hardfp_pow) refers to dunder.o(i.__mathlib_dbl_divzero) for __mathlib_dbl_divzero
    pow.o(i.__hardfp_pow) refers to dunder.o(i.__mathlib_dbl_overflow) for __mathlib_dbl_overflow
    pow.o(i.__hardfp_pow) refers to ddiv.o(.text) for __aeabi_ddiv
    pow.o(i.__hardfp_pow) refers to sqrt.o(i.sqrt) for sqrt
    pow.o(i.__hardfp_pow) refers to fabs.o(i.fabs) for fabs
    pow.o(i.__hardfp_pow) refers to dflti.o(.text) for __aeabi_i2d
    pow.o(i.__hardfp_pow) refers to dunder.o(i.__mathlib_dbl_invalid) for __mathlib_dbl_invalid
    pow.o(i.__hardfp_pow) refers to dmul.o(.text) for __aeabi_dmul
    pow.o(i.__hardfp_pow) refers to dunder.o(i.__mathlib_dbl_underflow) for __mathlib_dbl_underflow
    pow.o(i.__hardfp_pow) refers to dadd.o(.text) for __aeabi_dsub
    pow.o(i.__hardfp_pow) refers to qnan.o(.constdata) for __mathlib_zero
    pow.o(i.__hardfp_pow) refers to poly.o(i.__kernel_poly) for __kernel_poly
    pow.o(i.__hardfp_pow) refers to pow.o(.constdata) for .constdata
    pow.o(i.__hardfp_pow) refers to cdrcmple.o(.text) for __aeabi_cdrcmple
    pow.o(i.__hardfp_pow) refers to dscalb.o(.text) for __ARM_scalbn
    pow.o(i.__hardfp_pow) refers to fpclassify.o(i.__ARM_fpclassify) for __ARM_fpclassify
    pow.o(i.__softfp_pow) refers (Special) to iusefp.o(.text) for __I$use$fp
    pow.o(i.__softfp_pow) refers to pow.o(i.__hardfp_pow) for __hardfp_pow
    pow.o(i.pow) refers (Special) to iusefp.o(.text) for __I$use$fp
    pow.o(i.pow) refers to pow.o(i.__hardfp_pow) for __hardfp_pow
    pow.o(.constdata) refers (Special) to iusefp.o(.text) for __I$use$fp
    pow_x.o(i.____hardfp_pow$lsc) refers (Special) to iusefp.o(.text) for __I$use$fp
    pow_x.o(i.____hardfp_pow$lsc) refers to dunder.o(i.__mathlib_dbl_infnan2) for __mathlib_dbl_infnan2
    pow_x.o(i.____hardfp_pow$lsc) refers to errno.o(i.__set_errno) for __set_errno
    pow_x.o(i.____hardfp_pow$lsc) refers to ddiv.o(.text) for __aeabi_ddiv
    pow_x.o(i.____hardfp_pow$lsc) refers to sqrt.o(i.sqrt) for sqrt
    pow_x.o(i.____hardfp_pow$lsc) refers to fabs.o(i.fabs) for fabs
    pow_x.o(i.____hardfp_pow$lsc) refers to dflti.o(.text) for __aeabi_i2d
    pow_x.o(i.____hardfp_pow$lsc) refers to dmul.o(.text) for __aeabi_dmul
    pow_x.o(i.____hardfp_pow$lsc) refers to dadd.o(.text) for __aeabi_dsub
    pow_x.o(i.____hardfp_pow$lsc) refers to qnan.o(.constdata) for __mathlib_zero
    pow_x.o(i.____hardfp_pow$lsc) refers to poly.o(i.__kernel_poly) for __kernel_poly
    pow_x.o(i.____hardfp_pow$lsc) refers to pow_x.o(.constdata) for .constdata
    pow_x.o(i.____hardfp_pow$lsc) refers to cdrcmple.o(.text) for __aeabi_cdrcmple
    pow_x.o(i.____hardfp_pow$lsc) refers to dscalb.o(.text) for __ARM_scalbn
    pow_x.o(i.____softfp_pow$lsc) refers (Special) to iusefp.o(.text) for __I$use$fp
    pow_x.o(i.____softfp_pow$lsc) refers to pow_x.o(i.____hardfp_pow$lsc) for ____hardfp_pow$lsc
    pow_x.o(i.__pow$lsc) refers (Special) to iusefp.o(.text) for __I$use$fp
    pow_x.o(i.__pow$lsc) refers to pow_x.o(i.____hardfp_pow$lsc) for ____hardfp_pow$lsc
    pow_x.o(.constdata) refers (Special) to iusefp.o(.text) for __I$use$fp
    sqrt.o(i.__hardfp_sqrt) refers (Special) to iusefp.o(.text) for __I$use$fp
    sqrt.o(i.__hardfp_sqrt) refers to dsqrt.o(.text) for _dsqrt
    sqrt.o(i.__hardfp_sqrt) refers to errno.o(i.__set_errno) for __set_errno
    sqrt.o(i.__softfp_sqrt) refers (Special) to iusefp.o(.text) for __I$use$fp
    sqrt.o(i.__softfp_sqrt) refers to dsqrt.o(.text) for _dsqrt
    sqrt.o(i.__softfp_sqrt) refers to errno.o(i.__set_errno) for __set_errno
    sqrt.o(i.sqrt) refers (Special) to iusefp.o(.text) for __I$use$fp
    sqrt.o(i.sqrt) refers to dsqrt.o(.text) for _dsqrt
    sqrt.o(i.sqrt) refers to errno.o(i.__set_errno) for __set_errno
    sqrt_x.o(i.____hardfp_sqrt$lsc) refers (Special) to iusefp.o(.text) for __I$use$fp
    sqrt_x.o(i.____hardfp_sqrt$lsc) refers to cdcmple.o(.text) for __aeabi_cdcmple
    sqrt_x.o(i.____hardfp_sqrt$lsc) refers to errno.o(i.__set_errno) for __set_errno
    sqrt_x.o(i.____hardfp_sqrt$lsc) refers to dsqrt.o(.text) for _dsqrt
    sqrt_x.o(i.____softfp_sqrt$lsc) refers (Special) to iusefp.o(.text) for __I$use$fp
    sqrt_x.o(i.____softfp_sqrt$lsc) refers to cdcmple.o(.text) for __aeabi_cdcmple
    sqrt_x.o(i.____softfp_sqrt$lsc) refers to errno.o(i.__set_errno) for __set_errno
    sqrt_x.o(i.____softfp_sqrt$lsc) refers to dsqrt.o(.text) for _dsqrt
    sqrt_x.o(i.__sqrt$lsc) refers (Special) to iusefp.o(.text) for __I$use$fp
    sqrt_x.o(i.__sqrt$lsc) refers to cdcmple.o(.text) for __aeabi_cdcmple
    sqrt_x.o(i.__sqrt$lsc) refers to errno.o(i.__set_errno) for __set_errno
    sqrt_x.o(i.__sqrt$lsc) refers to dsqrt.o(.text) for _dsqrt
    entry.o(.ARM.Collect$$$$00000000) refers (Special) to entry10a.o(.ARM.Collect$$$$0000000D) for __rt_final_cpp
    entry.o(.ARM.Collect$$$$00000000) refers (Special) to entry11a.o(.ARM.Collect$$$$0000000F) for __rt_final_exit
    entry.o(.ARM.Collect$$$$00000000) refers (Special) to entry7b.o(.ARM.Collect$$$$00000008) for _main_clock
    entry.o(.ARM.Collect$$$$00000000) refers (Special) to entry8b.o(.ARM.Collect$$$$0000000A) for _main_cpp_init
    entry.o(.ARM.Collect$$$$00000000) refers (Special) to entry9a.o(.ARM.Collect$$$$0000000B) for _main_init
    entry.o(.ARM.Collect$$$$00000000) refers (Special) to entry5.o(.ARM.Collect$$$$00000004) for _main_scatterload
    entry.o(.ARM.Collect$$$$00000000) refers (Special) to entry2.o(.ARM.Collect$$$$00000001) for _main_stk
    uldiv.o(.text) refers to llushr.o(.text) for __aeabi_llsr
    uldiv.o(.text) refers to llshl.o(.text) for __aeabi_llsl
    localtime.o(.text) refers to localtime.o(.bss) for .bss
    localtime.o(.text) refers to localtime.o(.constdata) for .constdata
    mktime.o(.text) refers to localtime_i.o(.text) for _localtime
    mktime.o(.text) refers to mktime.o(.constdata) for .constdata
    printfb.o(i.__0fprintf$bare) refers to printfb.o(i._printf_core) for _printf_core
    printfb.o(i.__0fprintf$bare) refers to uart.o(.text) for fputc
    printfb.o(i.__0printf$bare) refers to printfb.o(i._printf_core) for _printf_core
    printfb.o(i.__0printf$bare) refers to uart.o(.text) for fputc
    printfb.o(i.__0printf$bare) refers to stdout.o(.data) for __stdout
    printfb.o(i.__0snprintf$bare) refers to printfb.o(i._printf_core) for _printf_core
    printfb.o(i.__0snprintf$bare) refers to printfb.o(i._snputc) for _snputc
    printfb.o(i.__0sprintf$bare) refers to printfb.o(i._printf_core) for _printf_core
    printfb.o(i.__0sprintf$bare) refers to printfb.o(i._sputc) for _sputc
    printfb.o(i.__0vfprintf$bare) refers to printfb.o(i._printf_core) for _printf_core
    printfb.o(i.__0vfprintf$bare) refers to uart.o(.text) for fputc
    printfb.o(i.__0vprintf$bare) refers to printfb.o(i._printf_core) for _printf_core
    printfb.o(i.__0vprintf$bare) refers to uart.o(.text) for fputc
    printfb.o(i.__0vprintf$bare) refers to stdout.o(.data) for __stdout
    printfb.o(i.__0vsnprintf$bare) refers to printfb.o(i._printf_core) for _printf_core
    printfb.o(i.__0vsnprintf$bare) refers to printfb.o(i._snputc) for _snputc
    printfb.o(i.__0vsprintf$bare) refers to printfb.o(i._printf_core) for _printf_core
    printfb.o(i.__0vsprintf$bare) refers to printfb.o(i._sputc) for _sputc
    printf0.o(i.__0fprintf$0) refers to printf0.o(i._printf_core) for _printf_core
    printf0.o(i.__0fprintf$0) refers to uart.o(.text) for fputc
    printf0.o(i.__0printf$0) refers to printf0.o(i._printf_core) for _printf_core
    printf0.o(i.__0printf$0) refers to uart.o(.text) for fputc
    printf0.o(i.__0printf$0) refers to stdout.o(.data) for __stdout
    printf0.o(i.__0snprintf$0) refers to printf0.o(i._printf_core) for _printf_core
    printf0.o(i.__0snprintf$0) refers to printf0.o(i._snputc) for _snputc
    printf0.o(i.__0sprintf$0) refers to printf0.o(i._printf_core) for _printf_core
    printf0.o(i.__0sprintf$0) refers to printf0.o(i._sputc) for _sputc
    printf0.o(i.__0vfprintf$0) refers to printf0.o(i._printf_core) for _printf_core
    printf0.o(i.__0vfprintf$0) refers to uart.o(.text) for fputc
    printf0.o(i.__0vprintf$0) refers to printf0.o(i._printf_core) for _printf_core
    printf0.o(i.__0vprintf$0) refers to uart.o(.text) for fputc
    printf0.o(i.__0vprintf$0) refers to stdout.o(.data) for __stdout
    printf0.o(i.__0vsnprintf$0) refers to printf0.o(i._printf_core) for _printf_core
    printf0.o(i.__0vsnprintf$0) refers to printf0.o(i._snputc) for _snputc
    printf0.o(i.__0vsprintf$0) refers to printf0.o(i._printf_core) for _printf_core
    printf0.o(i.__0vsprintf$0) refers to printf0.o(i._sputc) for _sputc
    printf1.o(i.__0fprintf$1) refers to printf1.o(i._printf_core) for _printf_core
    printf1.o(i.__0fprintf$1) refers to uart.o(.text) for fputc
    printf1.o(i.__0printf$1) refers to printf1.o(i._printf_core) for _printf_core
    printf1.o(i.__0printf$1) refers to uart.o(.text) for fputc
    printf1.o(i.__0printf$1) refers to stdout.o(.data) for __stdout
    printf1.o(i.__0snprintf$1) refers to printf1.o(i._printf_core) for _printf_core
    printf1.o(i.__0snprintf$1) refers to printf1.o(i._snputc) for _snputc
    printf1.o(i.__0sprintf$1) refers to printf1.o(i._printf_core) for _printf_core
    printf1.o(i.__0sprintf$1) refers to printf1.o(i._sputc) for _sputc
    printf1.o(i.__0vfprintf$1) refers to printf1.o(i._printf_core) for _printf_core
    printf1.o(i.__0vfprintf$1) refers to uart.o(.text) for fputc
    printf1.o(i.__0vprintf$1) refers to printf1.o(i._printf_core) for _printf_core
    printf1.o(i.__0vprintf$1) refers to uart.o(.text) for fputc
    printf1.o(i.__0vprintf$1) refers to stdout.o(.data) for __stdout
    printf1.o(i.__0vsnprintf$1) refers to printf1.o(i._printf_core) for _printf_core
    printf1.o(i.__0vsnprintf$1) refers to printf1.o(i._snputc) for _snputc
    printf1.o(i.__0vsprintf$1) refers to printf1.o(i._printf_core) for _printf_core
    printf1.o(i.__0vsprintf$1) refers to printf1.o(i._sputc) for _sputc
    printf1.o(i._printf_core) refers to uidiv.o(.text) for __aeabi_uidivmod
    printf2.o(i.__0fprintf$2) refers to printf2.o(i._printf_core) for _printf_core
    printf2.o(i.__0fprintf$2) refers to uart.o(.text) for fputc
    printf2.o(i.__0printf$2) refers to printf2.o(i._printf_core) for _printf_core
    printf2.o(i.__0printf$2) refers to uart.o(.text) for fputc
    printf2.o(i.__0printf$2) refers to stdout.o(.data) for __stdout
    printf2.o(i.__0snprintf$2) refers to printf2.o(i._printf_core) for _printf_core
    printf2.o(i.__0snprintf$2) refers to printf2.o(i._snputc) for _snputc
    printf2.o(i.__0sprintf$2) refers to printf2.o(i._printf_core) for _printf_core
    printf2.o(i.__0sprintf$2) refers to printf2.o(i._sputc) for _sputc
    printf2.o(i.__0vfprintf$2) refers to printf2.o(i._printf_core) for _printf_core
    printf2.o(i.__0vfprintf$2) refers to uart.o(.text) for fputc
    printf2.o(i.__0vprintf$2) refers to printf2.o(i._printf_core) for _printf_core
    printf2.o(i.__0vprintf$2) refers to uart.o(.text) for fputc
    printf2.o(i.__0vprintf$2) refers to stdout.o(.data) for __stdout
    printf2.o(i.__0vsnprintf$2) refers to printf2.o(i._printf_core) for _printf_core
    printf2.o(i.__0vsnprintf$2) refers to printf2.o(i._snputc) for _snputc
    printf2.o(i.__0vsprintf$2) refers to printf2.o(i._printf_core) for _printf_core
    printf2.o(i.__0vsprintf$2) refers to printf2.o(i._sputc) for _sputc
    printf3.o(i.__0fprintf$3) refers to printf3.o(i._printf_core) for _printf_core
    printf3.o(i.__0fprintf$3) refers to uart.o(.text) for fputc
    printf3.o(i.__0printf$3) refers to printf3.o(i._printf_core) for _printf_core
    printf3.o(i.__0printf$3) refers to uart.o(.text) for fputc
    printf3.o(i.__0printf$3) refers to stdout.o(.data) for __stdout
    printf3.o(i.__0snprintf$3) refers to printf3.o(i._printf_core) for _printf_core
    printf3.o(i.__0snprintf$3) refers to printf3.o(i._snputc) for _snputc
    printf3.o(i.__0sprintf$3) refers to printf3.o(i._printf_core) for _printf_core
    printf3.o(i.__0sprintf$3) refers to printf3.o(i._sputc) for _sputc
    printf3.o(i.__0vfprintf$3) refers to printf3.o(i._printf_core) for _printf_core
    printf3.o(i.__0vfprintf$3) refers to uart.o(.text) for fputc
    printf3.o(i.__0vprintf$3) refers to printf3.o(i._printf_core) for _printf_core
    printf3.o(i.__0vprintf$3) refers to uart.o(.text) for fputc
    printf3.o(i.__0vprintf$3) refers to stdout.o(.data) for __stdout
    printf3.o(i.__0vsnprintf$3) refers to printf3.o(i._printf_core) for _printf_core
    printf3.o(i.__0vsnprintf$3) refers to printf3.o(i._snputc) for _snputc
    printf3.o(i.__0vsprintf$3) refers to printf3.o(i._printf_core) for _printf_core
    printf3.o(i.__0vsprintf$3) refers to printf3.o(i._sputc) for _sputc
    printf3.o(i._printf_core) refers to uidiv.o(.text) for __aeabi_uidivmod
    printf4.o(i.__0fprintf$4) refers to printf4.o(i._printf_core) for _printf_core
    printf4.o(i.__0fprintf$4) refers to uart.o(.text) for fputc
    printf4.o(i.__0printf$4) refers to printf4.o(i._printf_core) for _printf_core
    printf4.o(i.__0printf$4) refers to uart.o(.text) for fputc
    printf4.o(i.__0printf$4) refers to stdout.o(.data) for __stdout
    printf4.o(i.__0snprintf$4) refers to printf4.o(i._printf_core) for _printf_core
    printf4.o(i.__0snprintf$4) refers to printf4.o(i._snputc) for _snputc
    printf4.o(i.__0sprintf$4) refers to printf4.o(i._printf_core) for _printf_core
    printf4.o(i.__0sprintf$4) refers to printf4.o(i._sputc) for _sputc
    printf4.o(i.__0vfprintf$4) refers to printf4.o(i._printf_core) for _printf_core
    printf4.o(i.__0vfprintf$4) refers to uart.o(.text) for fputc
    printf4.o(i.__0vprintf$4) refers to printf4.o(i._printf_core) for _printf_core
    printf4.o(i.__0vprintf$4) refers to uart.o(.text) for fputc
    printf4.o(i.__0vprintf$4) refers to stdout.o(.data) for __stdout
    printf4.o(i.__0vsnprintf$4) refers to printf4.o(i._printf_core) for _printf_core
    printf4.o(i.__0vsnprintf$4) refers to printf4.o(i._snputc) for _snputc
    printf4.o(i.__0vsprintf$4) refers to printf4.o(i._printf_core) for _printf_core
    printf4.o(i.__0vsprintf$4) refers to printf4.o(i._sputc) for _sputc
    printf4.o(i._printf_core) refers to uldiv.o(.text) for __aeabi_uldivmod
    printf5.o(i.__0fprintf$5) refers to printf5.o(i._printf_core) for _printf_core
    printf5.o(i.__0fprintf$5) refers to uart.o(.text) for fputc
    printf5.o(i.__0printf$5) refers to printf5.o(i._printf_core) for _printf_core
    printf5.o(i.__0printf$5) refers to uart.o(.text) for fputc
    printf5.o(i.__0printf$5) refers to stdout.o(.data) for __stdout
    printf5.o(i.__0snprintf$5) refers to printf5.o(i._printf_core) for _printf_core
    printf5.o(i.__0snprintf$5) refers to printf5.o(i._snputc) for _snputc
    printf5.o(i.__0sprintf$5) refers to printf5.o(i._printf_core) for _printf_core
    printf5.o(i.__0sprintf$5) refers to printf5.o(i._sputc) for _sputc
    printf5.o(i.__0vfprintf$5) refers to printf5.o(i._printf_core) for _printf_core
    printf5.o(i.__0vfprintf$5) refers to uart.o(.text) for fputc
    printf5.o(i.__0vprintf$5) refers to printf5.o(i._printf_core) for _printf_core
    printf5.o(i.__0vprintf$5) refers to uart.o(.text) for fputc
    printf5.o(i.__0vprintf$5) refers to stdout.o(.data) for __stdout
    printf5.o(i.__0vsnprintf$5) refers to printf5.o(i._printf_core) for _printf_core
    printf5.o(i.__0vsnprintf$5) refers to printf5.o(i._snputc) for _snputc
    printf5.o(i.__0vsprintf$5) refers to printf5.o(i._printf_core) for _printf_core
    printf5.o(i.__0vsprintf$5) refers to printf5.o(i._sputc) for _sputc
    printf5.o(i._printf_core) refers to uldiv.o(.text) for __aeabi_uldivmod
    printf6.o(i.__0fprintf$6) refers to printf6.o(i._printf_core) for _printf_core
    printf6.o(i.__0fprintf$6) refers to uart.o(.text) for fputc
    printf6.o(i.__0printf$6) refers to printf6.o(i._printf_core) for _printf_core
    printf6.o(i.__0printf$6) refers to uart.o(.text) for fputc
    printf6.o(i.__0printf$6) refers to stdout.o(.data) for __stdout
    printf6.o(i.__0snprintf$6) refers to printf6.o(i._printf_core) for _printf_core
    printf6.o(i.__0snprintf$6) refers to printf6.o(i._snputc) for _snputc
    printf6.o(i.__0sprintf$6) refers to printf6.o(i._printf_core) for _printf_core
    printf6.o(i.__0sprintf$6) refers to printf6.o(i._sputc) for _sputc
    printf6.o(i.__0vfprintf$6) refers to printf6.o(i._printf_core) for _printf_core
    printf6.o(i.__0vfprintf$6) refers to uart.o(.text) for fputc
    printf6.o(i.__0vprintf$6) refers to printf6.o(i._printf_core) for _printf_core
    printf6.o(i.__0vprintf$6) refers to uart.o(.text) for fputc
    printf6.o(i.__0vprintf$6) refers to stdout.o(.data) for __stdout
    printf6.o(i.__0vsnprintf$6) refers to printf6.o(i._printf_core) for _printf_core
    printf6.o(i.__0vsnprintf$6) refers to printf6.o(i._snputc) for _snputc
    printf6.o(i.__0vsprintf$6) refers to printf6.o(i._printf_core) for _printf_core
    printf6.o(i.__0vsprintf$6) refers to printf6.o(i._sputc) for _sputc
    printf6.o(i._printf_core) refers to printf6.o(i._printf_pre_padding) for _printf_pre_padding
    printf6.o(i._printf_core) refers to uidiv.o(.text) for __aeabi_uidivmod
    printf6.o(i._printf_core) refers to printf6.o(i._printf_post_padding) for _printf_post_padding
    printf7.o(i.__0fprintf$7) refers to printf7.o(i._printf_core) for _printf_core
    printf7.o(i.__0fprintf$7) refers to uart.o(.text) for fputc
    printf7.o(i.__0printf$7) refers to printf7.o(i._printf_core) for _printf_core
    printf7.o(i.__0printf$7) refers to uart.o(.text) for fputc
    printf7.o(i.__0printf$7) refers to stdout.o(.data) for __stdout
    printf7.o(i.__0snprintf$7) refers to printf7.o(i._printf_core) for _printf_core
    printf7.o(i.__0snprintf$7) refers to printf7.o(i._snputc) for _snputc
    printf7.o(i.__0sprintf$7) refers to printf7.o(i._printf_core) for _printf_core
    printf7.o(i.__0sprintf$7) refers to printf7.o(i._sputc) for _sputc
    printf7.o(i.__0vfprintf$7) refers to printf7.o(i._printf_core) for _printf_core
    printf7.o(i.__0vfprintf$7) refers to uart.o(.text) for fputc
    printf7.o(i.__0vprintf$7) refers to printf7.o(i._printf_core) for _printf_core
    printf7.o(i.__0vprintf$7) refers to uart.o(.text) for fputc
    printf7.o(i.__0vprintf$7) refers to stdout.o(.data) for __stdout
    printf7.o(i.__0vsnprintf$7) refers to printf7.o(i._printf_core) for _printf_core
    printf7.o(i.__0vsnprintf$7) refers to printf7.o(i._snputc) for _snputc
    printf7.o(i.__0vsprintf$7) refers to printf7.o(i._printf_core) for _printf_core
    printf7.o(i.__0vsprintf$7) refers to printf7.o(i._sputc) for _sputc
    printf7.o(i._printf_core) refers to printf7.o(i._printf_pre_padding) for _printf_pre_padding
    printf7.o(i._printf_core) refers to uldiv.o(.text) for __aeabi_uldivmod
    printf7.o(i._printf_core) refers to printf7.o(i._printf_post_padding) for _printf_post_padding
    printf8.o(i.__0fprintf$8) refers to printf8.o(i._printf_core) for _printf_core
    printf8.o(i.__0fprintf$8) refers to uart.o(.text) for fputc
    printf8.o(i.__0printf$8) refers to printf8.o(i._printf_core) for _printf_core
    printf8.o(i.__0printf$8) refers to uart.o(.text) for fputc
    printf8.o(i.__0printf$8) refers to stdout.o(.data) for __stdout
    printf8.o(i.__0snprintf$8) refers to printf8.o(i._printf_core) for _printf_core
    printf8.o(i.__0snprintf$8) refers to printf8.o(i._snputc) for _snputc
    printf8.o(i.__0sprintf$8) refers to printf8.o(i._printf_core) for _printf_core
    printf8.o(i.__0sprintf$8) refers to printf8.o(i._sputc) for _sputc
    printf8.o(i.__0vfprintf$8) refers to printf8.o(i._printf_core) for _printf_core
    printf8.o(i.__0vfprintf$8) refers to uart.o(.text) for fputc
    printf8.o(i.__0vprintf$8) refers to printf8.o(i._printf_core) for _printf_core
    printf8.o(i.__0vprintf$8) refers to uart.o(.text) for fputc
    printf8.o(i.__0vprintf$8) refers to stdout.o(.data) for __stdout
    printf8.o(i.__0vsnprintf$8) refers to printf8.o(i._printf_core) for _printf_core
    printf8.o(i.__0vsnprintf$8) refers to printf8.o(i._snputc) for _snputc
    printf8.o(i.__0vsprintf$8) refers to printf8.o(i._printf_core) for _printf_core
    printf8.o(i.__0vsprintf$8) refers to printf8.o(i._sputc) for _sputc
    printf8.o(i._printf_core) refers to printf8.o(i._printf_pre_padding) for _printf_pre_padding
    printf8.o(i._printf_core) refers to uldiv.o(.text) for __aeabi_uldivmod
    printf8.o(i._printf_core) refers to printf8.o(i._printf_post_padding) for _printf_post_padding
    printfa.o(i.__0fprintf) refers (Special) to iusefp.o(.text) for __I$use$fp
    printfa.o(i.__0fprintf) refers to printfa.o(i._printf_core) for _printf_core
    printfa.o(i.__0fprintf) refers to uart.o(.text) for fputc
    printfa.o(i.__0printf) refers (Special) to iusefp.o(.text) for __I$use$fp
    printfa.o(i.__0printf) refers to printfa.o(i._printf_core) for _printf_core
    printfa.o(i.__0printf) refers to uart.o(.text) for fputc
    printfa.o(i.__0printf) refers to stdout.o(.data) for __stdout
    printfa.o(i.__0snprintf) refers (Special) to iusefp.o(.text) for __I$use$fp
    printfa.o(i.__0snprintf) refers to printfa.o(i._printf_core) for _printf_core
    printfa.o(i.__0snprintf) refers to printfa.o(i._snputc) for _snputc
    printfa.o(i.__0sprintf) refers (Special) to iusefp.o(.text) for __I$use$fp
    printfa.o(i.__0sprintf) refers to printfa.o(i._printf_core) for _printf_core
    printfa.o(i.__0sprintf) refers to printfa.o(i._sputc) for _sputc
    printfa.o(i.__0vfprintf) refers (Special) to iusefp.o(.text) for __I$use$fp
    printfa.o(i.__0vfprintf) refers to printfa.o(i._printf_core) for _printf_core
    printfa.o(i.__0vfprintf) refers to uart.o(.text) for fputc
    printfa.o(i.__0vprintf) refers (Special) to iusefp.o(.text) for __I$use$fp
    printfa.o(i.__0vprintf) refers to printfa.o(i._printf_core) for _printf_core
    printfa.o(i.__0vprintf) refers to uart.o(.text) for fputc
    printfa.o(i.__0vprintf) refers to stdout.o(.data) for __stdout
    printfa.o(i.__0vsnprintf) refers (Special) to iusefp.o(.text) for __I$use$fp
    printfa.o(i.__0vsnprintf) refers to printfa.o(i._printf_core) for _printf_core
    printfa.o(i.__0vsnprintf) refers to printfa.o(i._snputc) for _snputc
    printfa.o(i.__0vsprintf) refers (Special) to iusefp.o(.text) for __I$use$fp
    printfa.o(i.__0vsprintf) refers to printfa.o(i._printf_core) for _printf_core
    printfa.o(i.__0vsprintf) refers to printfa.o(i._sputc) for _sputc
    printfa.o(i._fp_digits) refers (Special) to iusefp.o(.text) for __I$use$fp
    printfa.o(i._fp_digits) refers to dmul.o(.text) for __aeabi_dmul
    printfa.o(i._fp_digits) refers to ddiv.o(.text) for __aeabi_ddiv
    printfa.o(i._fp_digits) refers to cdrcmple.o(.text) for __aeabi_cdrcmple
    printfa.o(i._fp_digits) refers to dadd.o(.text) for __aeabi_dadd
    printfa.o(i._fp_digits) refers to dfixul.o(.text) for __aeabi_d2ulz
    printfa.o(i._fp_digits) refers to uldiv.o(.text) for __aeabi_uldivmod
    printfa.o(i._printf_core) refers (Special) to iusefp.o(.text) for __I$use$fp
    printfa.o(i._printf_core) refers to printfa.o(i._printf_pre_padding) for _printf_pre_padding
    printfa.o(i._printf_core) refers to uldiv.o(.text) for __aeabi_uldivmod
    printfa.o(i._printf_core) refers to printfa.o(i._printf_post_padding) for _printf_post_padding
    printfa.o(i._printf_core) refers to printfa.o(i._fp_digits) for _fp_digits
    printfa.o(i._printf_core) refers to uidiv.o(.text) for __aeabi_uidivmod
    printfa.o(i._printf_post_padding) refers (Special) to iusefp.o(.text) for __I$use$fp
    printfa.o(i._printf_pre_padding) refers (Special) to iusefp.o(.text) for __I$use$fp
    printfa.o(i._snputc) refers (Special) to iusefp.o(.text) for __I$use$fp
    printfa.o(i._sputc) refers (Special) to iusefp.o(.text) for __I$use$fp
    malloc.o(i.free) refers to mvars.o(.data) for __microlib_freelist
    malloc.o(i.malloc) refers to mvars.o(.data) for __microlib_freelist_initialised
    malloc.o(i.malloc) refers to mvars.o(.data) for __microlib_freelist
    malloc.o(i.malloc) refers to startup_stm32f407xx.o(HEAP) for __heap_base
    mallocr.o(i.__free$realloc) refers to mvars.o(.data) for __microlib_freelist
    mallocr.o(i.__malloc$realloc) refers to mallocr.o(i.internal_alloc) for internal_alloc
    mallocr.o(i.__malloc$realloc) refers to mvars.o(.data) for __microlib_freelist_initialised
    mallocr.o(i.__malloc$realloc) refers to startup_stm32f407xx.o(HEAP) for __heap_base
    mallocr.o(i.__malloc$realloc) refers to mvars.o(.data) for __microlib_freelist
    mallocr.o(i.internal_alloc) refers to memcpya.o(.text) for __aeabi_memcpy
    mallocr.o(i.internal_alloc) refers to mvars.o(.data) for __microlib_freelist
    mallocr.o(i.realloc) refers to mallocr.o(i.__free$realloc) for __free$realloc
    mallocr.o(i.realloc) refers to mallocr.o(i.internal_alloc) for internal_alloc
    mallocr.o(i.realloc) refers to mallocr.o(i.__malloc$realloc) for __malloc$realloc
    mallocr.o(i.realloc) refers to mvars.o(.data) for __microlib_freelist
    malloca.o(i.__aligned_malloc) refers to mvars.o(.data) for __microlib_freelist_initialised
    malloca.o(i.__aligned_malloc) refers to mvars.o(.data) for __microlib_freelist
    malloca.o(i.__aligned_malloc) refers to startup_stm32f407xx.o(HEAP) for __heap_base
    malloca.o(i.__free$memalign) refers to mvars.o(.data) for __microlib_freelist
    malloca.o(i.__malloc$memalign) refers to malloca.o(i.__aligned_malloc) for __aligned_malloc
    mallocra.o(i.__aligned_malloc$realloc) refers to mallocra.o(i.internal_alloc) for internal_alloc
    mallocra.o(i.__aligned_malloc$realloc) refers to mvars.o(.data) for __microlib_freelist_initialised
    mallocra.o(i.__aligned_malloc$realloc) refers to startup_stm32f407xx.o(HEAP) for __heap_base
    mallocra.o(i.__aligned_malloc$realloc) refers to mvars.o(.data) for __microlib_freelist
    mallocra.o(i.__free$realloc$memalign) refers to mvars.o(.data) for __microlib_freelist
    mallocra.o(i.__malloc$realloc$memalign) refers to mallocra.o(i.__aligned_malloc$realloc) for __aligned_malloc$realloc
    mallocra.o(i.__realloc$memalign) refers to mallocra.o(i.__free$realloc$memalign) for __free$realloc$memalign
    mallocra.o(i.__realloc$memalign) refers to mallocra.o(i.internal_alloc) for internal_alloc
    mallocra.o(i.__realloc$memalign) refers to mallocra.o(i.__malloc$realloc$memalign) for __malloc$realloc$memalign
    mallocra.o(i.__realloc$memalign) refers to mvars.o(.data) for __microlib_freelist
    mallocra.o(i.internal_alloc) refers to memcpya.o(.text) for __aeabi_memcpy
    mallocra.o(i.internal_alloc) refers to mvars.o(.data) for __microlib_freelist
    atoi.o(.text) refers to errno.o(i.__aeabi_errno_addr) for __aeabi_errno_addr
    atoi.o(.text) refers to strtol.o(.text) for strtol
    dadd.o(.text) refers (Special) to iusefp.o(.text) for __I$use$fp
    dadd.o(.text) refers to llshl.o(.text) for __aeabi_llsl
    dadd.o(.text) refers to llsshr.o(.text) for __aeabi_lasr
    dadd.o(.text) refers to depilogue.o(.text) for _double_epilogue
    dmul.o(.text) refers (Special) to iusefp.o(.text) for __I$use$fp
    dmul.o(.text) refers to depilogue.o(.text) for _double_epilogue
    ddiv.o(.text) refers (Special) to iusefp.o(.text) for __I$use$fp
    ddiv.o(.text) refers to depilogue.o(.text) for _double_round
    dflti.o(.text) refers (Special) to iusefp.o(.text) for __I$use$fp
    dflti.o(.text) refers to depilogue.o(.text) for _double_epilogue
    dfixi.o(.text) refers (Special) to iusefp.o(.text) for __I$use$fp
    dfixi.o(.text) refers to llushr.o(.text) for __aeabi_llsr
    f2d.o(.text) refers (Special) to iusefp.o(.text) for __I$use$fp
    cdcmple.o(.text) refers (Special) to iusefp.o(.text) for __I$use$fp
    cdrcmple.o(.text) refers (Special) to iusefp.o(.text) for __I$use$fp
    d2f.o(.text) refers (Special) to iusefp.o(.text) for __I$use$fp
    d2f.o(.text) refers to fepilogue.o(.text) for _float_round
    atan.o(i.__hardfp_atan) refers (Special) to iusefp.o(.text) for __I$use$fp
    atan.o(i.__hardfp_atan) refers to dunder.o(i.__mathlib_dbl_infnan) for __mathlib_dbl_infnan
    atan.o(i.__hardfp_atan) refers to fpclassify.o(i.__ARM_fpclassify) for __ARM_fpclassify
    atan.o(i.__hardfp_atan) refers to dunder.o(i.__mathlib_dbl_underflow) for __mathlib_dbl_underflow
    atan.o(i.__hardfp_atan) refers to fabs.o(i.fabs) for fabs
    atan.o(i.__hardfp_atan) refers to dadd.o(.text) for __aeabi_dadd
    atan.o(i.__hardfp_atan) refers to dmul.o(.text) for __aeabi_dmul
    atan.o(i.__hardfp_atan) refers to ddiv.o(.text) for __aeabi_ddiv
    atan.o(i.__hardfp_atan) refers to poly.o(i.__kernel_poly) for __kernel_poly
    atan.o(i.__hardfp_atan) refers to atan.o(.constdata) for .constdata
    atan.o(i.__softfp_atan) refers (Special) to iusefp.o(.text) for __I$use$fp
    atan.o(i.__softfp_atan) refers to atan.o(i.__hardfp_atan) for __hardfp_atan
    atan.o(i.atan) refers (Special) to iusefp.o(.text) for __I$use$fp
    atan.o(i.atan) refers to atan.o(i.__hardfp_atan) for __hardfp_atan
    atan.o(.constdata) refers (Special) to iusefp.o(.text) for __I$use$fp
    atan_x.o(i.____hardfp_atan$lsc) refers (Special) to iusefp.o(.text) for __I$use$fp
    atan_x.o(i.____hardfp_atan$lsc) refers to dunder.o(i.__mathlib_dbl_infnan) for __mathlib_dbl_infnan
    atan_x.o(i.____hardfp_atan$lsc) refers to fabs.o(i.fabs) for fabs
    atan_x.o(i.____hardfp_atan$lsc) refers to dadd.o(.text) for __aeabi_dadd
    atan_x.o(i.____hardfp_atan$lsc) refers to dmul.o(.text) for __aeabi_dmul
    atan_x.o(i.____hardfp_atan$lsc) refers to ddiv.o(.text) for __aeabi_ddiv
    atan_x.o(i.____hardfp_atan$lsc) refers to poly.o(i.__kernel_poly) for __kernel_poly
    atan_x.o(i.____hardfp_atan$lsc) refers to atan_x.o(.constdata) for .constdata
    atan_x.o(i.____softfp_atan$lsc) refers (Special) to iusefp.o(.text) for __I$use$fp
    atan_x.o(i.____softfp_atan$lsc) refers to atan_x.o(i.____hardfp_atan$lsc) for ____hardfp_atan$lsc
    atan_x.o(i.__atan$lsc) refers (Special) to iusefp.o(.text) for __I$use$fp
    atan_x.o(i.__atan$lsc) refers to atan_x.o(i.____hardfp_atan$lsc) for ____hardfp_atan$lsc
    atan_x.o(.constdata) refers (Special) to iusefp.o(.text) for __I$use$fp
    cos_i.o(i.__kernel_cos) refers (Special) to iusefp.o(.text) for __I$use$fp
    cos_i.o(i.__kernel_cos) refers to dfixi.o(.text) for __aeabi_d2iz
    cos_i.o(i.__kernel_cos) refers to dmul.o(.text) for __aeabi_dmul
    cos_i.o(i.__kernel_cos) refers to poly.o(i.__kernel_poly) for __kernel_poly
    cos_i.o(i.__kernel_cos) refers to dadd.o(.text) for __aeabi_dsub
    cos_i.o(i.__kernel_cos) refers to cos_i.o(.constdata) for .constdata
    cos_i.o(.constdata) refers (Special) to iusefp.o(.text) for __I$use$fp
    dunder.o(i.__mathlib_dbl_divzero) refers to ddiv.o(.text) for __aeabi_ddiv
    dunder.o(i.__mathlib_dbl_infnan) refers to dadd.o(.text) for __aeabi_dadd
    dunder.o(i.__mathlib_dbl_infnan2) refers to dadd.o(.text) for __aeabi_dadd
    dunder.o(i.__mathlib_dbl_invalid) refers to ddiv.o(.text) for __aeabi_ddiv
    dunder.o(i.__mathlib_dbl_overflow) refers to dmul.o(.text) for __aeabi_dmul
    dunder.o(i.__mathlib_dbl_posinfnan) refers to dmul.o(.text) for __aeabi_dmul
    dunder.o(i.__mathlib_dbl_underflow) refers to dmul.o(.text) for __aeabi_dmul
    fpclassify.o(i.__ARM_fpclassify) refers (Special) to iusefp.o(.text) for __I$use$fp
    fpclassifyf.o(i.__ARM_fpclassifyf) refers (Special) to iusefp.o(.text) for __I$use$fp
    poly.o(i.__kernel_poly) refers (Special) to iusefp.o(.text) for __I$use$fp
    poly.o(i.__kernel_poly) refers to dmul.o(.text) for __aeabi_dmul
    poly.o(i.__kernel_poly) refers to dadd.o(.text) for __aeabi_dadd
    qnan.o(.constdata) refers (Special) to iusefp.o(.text) for __I$use$fp
    rred.o(i.__ieee754_rem_pio2) refers (Special) to iusefp.o(.text) for __I$use$fp
    rred.o(i.__ieee754_rem_pio2) refers to dadd.o(.text) for __aeabi_dsub
    rred.o(i.__ieee754_rem_pio2) refers to fabs.o(i.fabs) for fabs
    rred.o(i.__ieee754_rem_pio2) refers to dmul.o(.text) for __aeabi_dmul
    rred.o(i.__ieee754_rem_pio2) refers to dfixi.o(.text) for __aeabi_d2iz
    rred.o(i.__ieee754_rem_pio2) refers to dflti.o(.text) for __aeabi_i2d
    rred.o(i.__ieee754_rem_pio2) refers to dfltui.o(.text) for __aeabi_ui2d
    rred.o(i.__ieee754_rem_pio2) refers to rred.o(.constdata) for .constdata
    rred.o(i.__use_accurate_range_reduction) refers (Special) to iusefp.o(.text) for __I$use$fp
    rred.o(.constdata) refers (Special) to iusefp.o(.text) for __I$use$fp
    sin_i.o(i.__kernel_sin) refers (Special) to iusefp.o(.text) for __I$use$fp
    sin_i.o(i.__kernel_sin) refers to fpclassify.o(i.__ARM_fpclassify) for __ARM_fpclassify
    sin_i.o(i.__kernel_sin) refers to dunder.o(i.__mathlib_dbl_underflow) for __mathlib_dbl_underflow
    sin_i.o(i.__kernel_sin) refers to dmul.o(.text) for __aeabi_dmul
    sin_i.o(i.__kernel_sin) refers to poly.o(i.__kernel_poly) for __kernel_poly
    sin_i.o(i.__kernel_sin) refers to dadd.o(.text) for __aeabi_dsub
    sin_i.o(i.__kernel_sin) refers to sin_i.o(.constdata) for .constdata
    sin_i.o(.constdata) refers (Special) to iusefp.o(.text) for __I$use$fp
    sin_i_x.o(i.____kernel_sin$lsc) refers (Special) to iusefp.o(.text) for __I$use$fp
    sin_i_x.o(i.____kernel_sin$lsc) refers to dmul.o(.text) for __aeabi_dmul
    sin_i_x.o(i.____kernel_sin$lsc) refers to poly.o(i.__kernel_poly) for __kernel_poly
    sin_i_x.o(i.____kernel_sin$lsc) refers to dadd.o(.text) for __aeabi_dsub
    sin_i_x.o(i.____kernel_sin$lsc) refers to sin_i_x.o(.constdata) for .constdata
    sin_i_x.o(.constdata) refers (Special) to iusefp.o(.text) for __I$use$fp
    sqrtf.o(i.__hardfp_sqrtf) refers (Special) to iusefp.o(.text) for __I$use$fp
    sqrtf.o(i.__hardfp_sqrtf) refers to errno.o(i.__set_errno) for __set_errno
    sqrtf.o(i.__softfp_sqrtf) refers (Special) to iusefp.o(.text) for __I$use$fp
    sqrtf.o(i.__softfp_sqrtf) refers to errno.o(i.__set_errno) for __set_errno
    sqrtf.o(i.sqrtf) refers (Special) to iusefp.o(.text) for __I$use$fp
    sqrtf.o(i.sqrtf) refers to errno.o(i.__set_errno) for __set_errno
    sqrtf_x.o(i.____hardfp_sqrtf$lsc) refers (Special) to iusefp.o(.text) for __I$use$fp
    sqrtf_x.o(i.____hardfp_sqrtf$lsc) refers to errno.o(i.__set_errno) for __set_errno
    sqrtf_x.o(i.____softfp_sqrtf$lsc) refers (Special) to iusefp.o(.text) for __I$use$fp
    sqrtf_x.o(i.____softfp_sqrtf$lsc) refers to errno.o(i.__set_errno) for __set_errno
    sqrtf_x.o(i.__sqrtf$lsc) refers (Special) to iusefp.o(.text) for __I$use$fp
    sqrtf_x.o(i.__sqrtf$lsc) refers to errno.o(i.__set_errno) for __set_errno
    entry2.o(.ARM.Collect$$$$00000001) refers to entry2.o(.ARM.Collect$$$$00002712) for __lit__00000000
    entry2.o(.ARM.Collect$$$$00002712) refers to startup_stm32f407xx.o(STACK) for __initial_sp
    entry2.o(__vectab_stack_and_reset_area) refers to startup_stm32f407xx.o(STACK) for __initial_sp
    entry2.o(__vectab_stack_and_reset_area) refers to entry.o(.ARM.Collect$$$$00000000) for __main
    entry5.o(.ARM.Collect$$$$00000004) refers to init.o(.text) for __scatterload
    entry9a.o(.ARM.Collect$$$$0000000B) refers to main.o(.text) for main
    entry9b.o(.ARM.Collect$$$$0000000C) refers to main.o(.text) for main
    localtime_w.o(.text) refers to localtime_i.o(.text) for _localtime
    localtime_w.o(.text) refers to localtime_w.o(.bss) for .bss
    localtime_i.o(.text) refers to localtime_i.o(.constdata) for .constdata
    errno.o(i.__aeabi_errno_addr) refers to errno.o(.data) for .data
    errno.o(i.__read_errno) refers to errno.o(.data) for .data
    errno.o(i.__set_errno) refers to errno.o(.data) for .data
    strtol.o(.text) refers to ctype_o.o(.text) for __rt_ctype_table
    strtol.o(.text) refers to _strtoul.o(.text) for _strtoul
    strtol.o(.text) refers to errno.o(i.__aeabi_errno_addr) for __aeabi_errno_addr
    depilogue.o(.text) refers to llshl.o(.text) for __aeabi_llsl
    depilogue.o(.text) refers to llushr.o(.text) for __aeabi_llsr
    dsqrt.o(.text) refers to llushr.o(.text) for __aeabi_llsr
    dsqrt.o(.text) refers to depilogue.o(.text) for _double_round
    dfixul.o(.text) refers to llushr.o(.text) for __aeabi_llsr
    dfixul.o(.text) refers to llshl.o(.text) for __aeabi_llsl
    init.o(.text) refers to entry5.o(.ARM.Collect$$$$00000004) for __main_after_scatterload
    ctype_o.o(.text) refers to ctype_o.o(.constdata) for .constdata
    ctype_o.o(.constdata) refers to ctype_o.o(.constdata) for __ctype_table
    isalnum_o.o(.text) refers to ctype_o.o(.text) for __rt_ctype_table
    isalpha_o.o(.text) refers to ctype_o.o(.text) for __rt_ctype_table
    isblank_o.o(.text) refers to ctype_o.o(.constdata) for __ctype_table
    iscntrl_o.o(.text) refers to ctype_o.o(.text) for __rt_ctype_table
    isdigit_o.o(.text) refers to ctype_o.o(.text) for __rt_ctype_table
    isgraph_o.o(.text) refers to ctype_o.o(.text) for __rt_ctype_table
    islower_o.o(.text) refers to ctype_o.o(.text) for __rt_ctype_table
    isprint_o.o(.text) refers to ctype_o.o(.text) for __rt_ctype_table
    ispunct_o.o(.text) refers to ctype_o.o(.text) for __rt_ctype_table
    isspace_o.o(.text) refers to ctype_o.o(.text) for __rt_ctype_table
    isupper_o.o(.text) refers to ctype_o.o(.text) for __rt_ctype_table
    isxdigit_o.o(.text) refers to ctype_o.o(.text) for __rt_ctype_table
    _strtoul.o(.text) refers to _chval.o(.text) for _chval
    _strtoul.o(.text) refers to errno.o(i.__aeabi_errno_addr) for __aeabi_errno_addr
    dfltui.o(.text) refers to depilogue.o(.text) for _double_epilogue


==============================================================================

Removing Unused input sections from the image.

    Removing application.o(.rev16_text), (4 bytes).
    Removing application.o(.revsh_text), (4 bytes).
    Removing application.o(.rrx_text), (6 bytes).
    Removing hal_uart.o(.rev16_text), (4 bytes).
    Removing hal_uart.o(.revsh_text), (4 bytes).
    Removing hal_uart.o(.rrx_text), (6 bytes).
    Removing main.o(.rev16_text), (4 bytes).
    Removing main.o(.revsh_text), (4 bytes).
    Removing main.o(.rrx_text), (6 bytes).
    Removing flash_if.o(.rev16_text), (4 bytes).
    Removing flash_if.o(.revsh_text), (4 bytes).
    Removing flash_if.o(.rrx_text), (6 bytes).
    Removing freertos.o(.text), (24 bytes).
    Removing freertos.o(.bss), (596 bytes).
    Removing led.o(.rev16_text), (4 bytes).
    Removing led.o(.revsh_text), (4 bytes).
    Removing led.o(.rrx_text), (6 bytes).
    Removing pps.o(.rev16_text), (4 bytes).
    Removing pps.o(.revsh_text), (4 bytes).
    Removing pps.o(.rrx_text), (6 bytes).
    Removing stm32f4xx_hal_msp.o(.rev16_text), (4 bytes).
    Removing stm32f4xx_hal_msp.o(.revsh_text), (4 bytes).
    Removing stm32f4xx_hal_msp.o(.rrx_text), (6 bytes).
    Removing stm32f4xx_hal_timebase_tim.o(.rev16_text), (4 bytes).
    Removing stm32f4xx_hal_timebase_tim.o(.revsh_text), (4 bytes).
    Removing stm32f4xx_hal_timebase_tim.o(.rrx_text), (6 bytes).
    Removing stm32f4xx_it.o(.rev16_text), (4 bytes).
    Removing stm32f4xx_it.o(.revsh_text), (4 bytes).
    Removing stm32f4xx_it.o(.rrx_text), (6 bytes).
    Removing system_stm32f4xx.o(.rev16_text), (4 bytes).
    Removing system_stm32f4xx.o(.revsh_text), (4 bytes).
    Removing system_stm32f4xx.o(.rrx_text), (6 bytes).
    Removing uart.o(.rev16_text), (4 bytes).
    Removing uart.o(.revsh_text), (4 bytes).
    Removing uart.o(.rrx_text), (6 bytes).
    Removing usbh_cdc.o(.rev16_text), (4 bytes).
    Removing usbh_cdc.o(.revsh_text), (4 bytes).
    Removing usbh_cdc.o(.rrx_text), (6 bytes).
    Removing usbh_core.o(.rev16_text), (4 bytes).
    Removing usbh_core.o(.revsh_text), (4 bytes).
    Removing usbh_core.o(.rrx_text), (6 bytes).
    Removing usbh_ctlreq.o(.rev16_text), (4 bytes).
    Removing usbh_ctlreq.o(.revsh_text), (4 bytes).
    Removing usbh_ctlreq.o(.rrx_text), (6 bytes).
    Removing usbh_ioreq.o(.rev16_text), (4 bytes).
    Removing usbh_ioreq.o(.revsh_text), (4 bytes).
    Removing usbh_ioreq.o(.rrx_text), (6 bytes).
    Removing usbh_pipes.o(.rev16_text), (4 bytes).
    Removing usbh_pipes.o(.revsh_text), (4 bytes).
    Removing usbh_pipes.o(.rrx_text), (6 bytes).
    Removing apply_high_power.o(.rev16_text), (4 bytes).
    Removing apply_high_power.o(.revsh_text), (4 bytes).
    Removing apply_high_power.o(.rrx_text), (6 bytes).
    Removing upgrade_platform_opt_stm32.o(.rev16_text), (4 bytes).
    Removing upgrade_platform_opt_stm32.o(.revsh_text), (4 bytes).
    Removing upgrade_platform_opt_stm32.o(.rrx_text), (6 bytes).
    Removing stm32f4xx_hal.o(.rev16_text), (4 bytes).
    Removing stm32f4xx_hal.o(.revsh_text), (4 bytes).
    Removing stm32f4xx_hal.o(.rrx_text), (6 bytes).
    Removing stm32f4xx_hal_cortex.o(.rev16_text), (4 bytes).
    Removing stm32f4xx_hal_cortex.o(.revsh_text), (4 bytes).
    Removing stm32f4xx_hal_cortex.o(.rrx_text), (6 bytes).
    Removing stm32f4xx_hal_dma.o(.rev16_text), (4 bytes).
    Removing stm32f4xx_hal_dma.o(.revsh_text), (4 bytes).
    Removing stm32f4xx_hal_dma.o(.rrx_text), (6 bytes).
    Removing stm32f4xx_hal_dma_ex.o(.rev16_text), (4 bytes).
    Removing stm32f4xx_hal_dma_ex.o(.revsh_text), (4 bytes).
    Removing stm32f4xx_hal_dma_ex.o(.rrx_text), (6 bytes).
    Removing stm32f4xx_hal_dma_ex.o(.text), (4232 bytes).
    Removing stm32f4xx_hal_exti.o(.rev16_text), (4 bytes).
    Removing stm32f4xx_hal_exti.o(.revsh_text), (4 bytes).
    Removing stm32f4xx_hal_exti.o(.rrx_text), (6 bytes).
    Removing stm32f4xx_hal_exti.o(.text), (676 bytes).
    Removing stm32f4xx_hal_flash.o(.rev16_text), (4 bytes).
    Removing stm32f4xx_hal_flash.o(.revsh_text), (4 bytes).
    Removing stm32f4xx_hal_flash.o(.rrx_text), (6 bytes).
    Removing stm32f4xx_hal_flash_ex.o(.rev16_text), (4 bytes).
    Removing stm32f4xx_hal_flash_ex.o(.revsh_text), (4 bytes).
    Removing stm32f4xx_hal_flash_ex.o(.rrx_text), (6 bytes).
    Removing stm32f4xx_hal_flash_ramfunc.o(.rev16_text), (4 bytes).
    Removing stm32f4xx_hal_flash_ramfunc.o(.revsh_text), (4 bytes).
    Removing stm32f4xx_hal_flash_ramfunc.o(.rrx_text), (6 bytes).
    Removing stm32f4xx_hal_gpio.o(.rev16_text), (4 bytes).
    Removing stm32f4xx_hal_gpio.o(.revsh_text), (4 bytes).
    Removing stm32f4xx_hal_gpio.o(.rrx_text), (6 bytes).
    Removing stm32f4xx_hal_hcd.o(.rev16_text), (4 bytes).
    Removing stm32f4xx_hal_hcd.o(.revsh_text), (4 bytes).
    Removing stm32f4xx_hal_hcd.o(.rrx_text), (6 bytes).
    Removing stm32f4xx_hal_pwr.o(.rev16_text), (4 bytes).
    Removing stm32f4xx_hal_pwr.o(.revsh_text), (4 bytes).
    Removing stm32f4xx_hal_pwr.o(.rrx_text), (6 bytes).
    Removing stm32f4xx_hal_pwr.o(.text), (496 bytes).
    Removing stm32f4xx_hal_pwr_ex.o(.rev16_text), (4 bytes).
    Removing stm32f4xx_hal_pwr_ex.o(.revsh_text), (4 bytes).
    Removing stm32f4xx_hal_pwr_ex.o(.rrx_text), (6 bytes).
    Removing stm32f4xx_hal_pwr_ex.o(.text), (256 bytes).
    Removing stm32f4xx_hal_rcc.o(.rev16_text), (4 bytes).
    Removing stm32f4xx_hal_rcc.o(.revsh_text), (4 bytes).
    Removing stm32f4xx_hal_rcc.o(.rrx_text), (6 bytes).
    Removing stm32f4xx_hal_rcc_ex.o(.rev16_text), (4 bytes).
    Removing stm32f4xx_hal_rcc_ex.o(.revsh_text), (4 bytes).
    Removing stm32f4xx_hal_rcc_ex.o(.rrx_text), (6 bytes).
    Removing stm32f4xx_hal_rcc_ex.o(.text), (1144 bytes).
    Removing stm32f4xx_hal_tim.o(.rev16_text), (4 bytes).
    Removing stm32f4xx_hal_tim.o(.revsh_text), (4 bytes).
    Removing stm32f4xx_hal_tim.o(.rrx_text), (6 bytes).
    Removing stm32f4xx_hal_tim_ex.o(.rev16_text), (4 bytes).
    Removing stm32f4xx_hal_tim_ex.o(.revsh_text), (4 bytes).
    Removing stm32f4xx_hal_tim_ex.o(.rrx_text), (6 bytes).
    Removing stm32f4xx_hal_uart.o(.rev16_text), (4 bytes).
    Removing stm32f4xx_hal_uart.o(.revsh_text), (4 bytes).
    Removing stm32f4xx_hal_uart.o(.rrx_text), (6 bytes).
    Removing stm32f4xx_ll_usb.o(.rev16_text), (4 bytes).
    Removing stm32f4xx_ll_usb.o(.revsh_text), (4 bytes).
    Removing stm32f4xx_ll_usb.o(.rrx_text), (6 bytes).
    Removing cmsis_os.o(.rev16_text), (4 bytes).
    Removing cmsis_os.o(.revsh_text), (4 bytes).
    Removing cmsis_os.o(.rrx_text), (6 bytes).
    Removing event_groups.o(.text), (1124 bytes).
    Removing usb_host.o(.rev16_text), (4 bytes).
    Removing usb_host.o(.revsh_text), (4 bytes).
    Removing usb_host.o(.rrx_text), (6 bytes).
    Removing usb_host.o(.text), (116 bytes).
    Removing usb_host.o(.bss), (1536 bytes).
    Removing usb_host.o(.data), (1 bytes).
    Removing usbh_conf.o(.rev16_text), (4 bytes).
    Removing usbh_conf.o(.revsh_text), (4 bytes).
    Removing usbh_conf.o(.rrx_text), (6 bytes).
    Removing util_buffer.o(.text), (316 bytes).
    Removing test_flight_control.o(.text), (16700 bytes).
    Removing test_flight_control.o(.constdata), (1070 bytes).
    Removing test_flight_control.o(.conststring), (7190 bytes).
    Removing test_flight_control.o(.data), (4 bytes).
    Removing time_sync.o(.rev16_text), (4 bytes).
    Removing time_sync.o(.revsh_text), (4 bytes).
    Removing time_sync.o(.rrx_text), (6 bytes).
    Removing cdcmple.o(.text), (48 bytes).
    Removing d2f.o(.text), (56 bytes).
    Removing fepilogue.o(.text), (110 bytes).
    Removing dneg.o(.text), (6 bytes).
    Removing dscalb.o(.text), (46 bytes).
    Removing dsqrt.o(.text), (162 bytes).
    Removing dfltui.o(.text), (26 bytes).

143 unused section(s) (total 36495 bytes) removed from the image.

==============================================================================

Image Symbol Table

    Local Symbols

    Symbol Name                              Value     Ov Type        Size  Object(Section)

    ../clib/../cmprslib/zerorunl2.c          0x00000000   Number         0  __dczerorl2.o ABSOLUTE
    ../clib/microlib/ctype/ctype.c           0x00000000   Number         0  isdigit_o.o ABSOLUTE
    ../clib/microlib/ctype/ctype.c           0x00000000   Number         0  isgraph_o.o ABSOLUTE
    ../clib/microlib/ctype/ctype.c           0x00000000   Number         0  isblank_o.o ABSOLUTE
    ../clib/microlib/ctype/ctype.c           0x00000000   Number         0  isxdigit_o.o ABSOLUTE
    ../clib/microlib/ctype/ctype.c           0x00000000   Number         0  isalnum_o.o ABSOLUTE
    ../clib/microlib/ctype/ctype.c           0x00000000   Number         0  islower_o.o ABSOLUTE
    ../clib/microlib/ctype/ctype.c           0x00000000   Number         0  isupper_o.o ABSOLUTE
    ../clib/microlib/ctype/ctype.c           0x00000000   Number         0  isprint_o.o ABSOLUTE
    ../clib/microlib/ctype/ctype.c           0x00000000   Number         0  isalpha_o.o ABSOLUTE
    ../clib/microlib/ctype/ctype.c           0x00000000   Number         0  iscntrl_o.o ABSOLUTE
    ../clib/microlib/ctype/ctype.c           0x00000000   Number         0  ctype_o.o ABSOLUTE
    ../clib/microlib/ctype/ctype.c           0x00000000   Number         0  ispunct_o.o ABSOLUTE
    ../clib/microlib/ctype/ctype.c           0x00000000   Number         0  isspace_o.o ABSOLUTE
    ../clib/microlib/division.c              0x00000000   Number         0  uidiv.o ABSOLUTE
    ../clib/microlib/division.c              0x00000000   Number         0  uldiv.o ABSOLUTE
    ../clib/microlib/errno.c                 0x00000000   Number         0  errno.o ABSOLUTE
    ../clib/microlib/init/entry.s            0x00000000   Number         0  entry7a.o ABSOLUTE
    ../clib/microlib/init/entry.s            0x00000000   Number         0  entry10a.o ABSOLUTE
    ../clib/microlib/init/entry.s            0x00000000   Number         0  entry9b.o ABSOLUTE
    ../clib/microlib/init/entry.s            0x00000000   Number         0  entry5.o ABSOLUTE
    ../clib/microlib/init/entry.s            0x00000000   Number         0  entry2.o ABSOLUTE
    ../clib/microlib/init/entry.s            0x00000000   Number         0  entry.o ABSOLUTE
    ../clib/microlib/init/entry.s            0x00000000   Number         0  entry9a.o ABSOLUTE
    ../clib/microlib/init/entry.s            0x00000000   Number         0  entry8a.o ABSOLUTE
    ../clib/microlib/init/entry.s            0x00000000   Number         0  entry11b.o ABSOLUTE
    ../clib/microlib/init/entry.s            0x00000000   Number         0  entry10b.o ABSOLUTE
    ../clib/microlib/init/entry.s            0x00000000   Number         0  entry7b.o ABSOLUTE
    ../clib/microlib/init/entry.s            0x00000000   Number         0  entry11a.o ABSOLUTE
    ../clib/microlib/init/entry.s            0x00000000   Number         0  entry8b.o ABSOLUTE
    ../clib/microlib/longlong.c              0x00000000   Number         0  llsshr.o ABSOLUTE
    ../clib/microlib/longlong.c              0x00000000   Number         0  llushr.o ABSOLUTE
    ../clib/microlib/longlong.c              0x00000000   Number         0  llshl.o ABSOLUTE
    ../clib/microlib/malloc/malloc.c         0x00000000   Number         0  mallocr.o ABSOLUTE
    ../clib/microlib/malloc/malloc.c         0x00000000   Number         0  malloca.o ABSOLUTE
    ../clib/microlib/malloc/malloc.c         0x00000000   Number         0  malloc.o ABSOLUTE
    ../clib/microlib/malloc/malloc.c         0x00000000   Number         0  mallocra.o ABSOLUTE
    ../clib/microlib/malloc/mvars.c          0x00000000   Number         0  mvars.o ABSOLUTE
    ../clib/microlib/printf/printf.c         0x00000000   Number         0  printfa.o ABSOLUTE
    ../clib/microlib/printf/printf.c         0x00000000   Number         0  printf3.o ABSOLUTE
    ../clib/microlib/printf/printf.c         0x00000000   Number         0  printfb.o ABSOLUTE
    ../clib/microlib/printf/printf.c         0x00000000   Number         0  printf0.o ABSOLUTE
    ../clib/microlib/printf/printf.c         0x00000000   Number         0  printf1.o ABSOLUTE
    ../clib/microlib/printf/printf.c         0x00000000   Number         0  printf7.o ABSOLUTE
    ../clib/microlib/printf/printf.c         0x00000000   Number         0  printf4.o ABSOLUTE
    ../clib/microlib/printf/printf.c         0x00000000   Number         0  printf2.o ABSOLUTE
    ../clib/microlib/printf/printf.c         0x00000000   Number         0  printf6.o ABSOLUTE
    ../clib/microlib/printf/printf.c         0x00000000   Number         0  printf5.o ABSOLUTE
    ../clib/microlib/printf/printf.c         0x00000000   Number         0  printf8.o ABSOLUTE
    ../clib/microlib/printf/stubs.s          0x00000000   Number         0  stubs.o ABSOLUTE
    ../clib/microlib/stdio/streams.c         0x00000000   Number         0  stdout.o ABSOLUTE
    ../clib/microlib/string/memcmp.c         0x00000000   Number         0  memcmp.o ABSOLUTE
    ../clib/microlib/string/memcpy.c         0x00000000   Number         0  memcpyb.o ABSOLUTE
    ../clib/microlib/string/memcpy.c         0x00000000   Number         0  memcpya.o ABSOLUTE
    ../clib/microlib/string/memset.c         0x00000000   Number         0  memseta.o ABSOLUTE
    ../clib/microlib/string/strcmp.c         0x00000000   Number         0  strcmp.o ABSOLUTE
    ../clib/microlib/string/strcpy.c         0x00000000   Number         0  strcpy.o ABSOLUTE
    ../clib/microlib/string/strlen.c         0x00000000   Number         0  strlen.o ABSOLUTE
    ../clib/microlib/string/strncmp.c        0x00000000   Number         0  strncmp.o ABSOLUTE
    ../clib/microlib/string/strncpy.c        0x00000000   Number         0  strncpy.o ABSOLUTE
    ../clib/microlib/string/strstr.c         0x00000000   Number         0  strstr.o ABSOLUTE
    ../clib/microlib/stubs.s                 0x00000000   Number         0  iusefp.o ABSOLUTE
    ../clib/microlib/time/localtime.c        0x00000000   Number         0  localtime_w.o ABSOLUTE
    ../clib/microlib/time/localtime.c        0x00000000   Number         0  localtime_i.o ABSOLUTE
    ../clib/microlib/time/localtime.c        0x00000000   Number         0  localtime.o ABSOLUTE
    ../clib/microlib/time/mktime.c           0x00000000   Number         0  mktime.o ABSOLUTE
    ../clib/scanf.c                          0x00000000   Number         0  strtol.o ABSOLUTE
    ../clib/scanf.c                          0x00000000   Number         0  atoi.o ABSOLUTE
    ../clib/scanf.c                          0x00000000   Number         0  _chval.o ABSOLUTE
    ../clib/scanf.c                          0x00000000   Number         0  _strtoul.o ABSOLUTE
    ../fplib/microlib/d2f.c                  0x00000000   Number         0  d2f.o ABSOLUTE
    ../fplib/microlib/f2d.c                  0x00000000   Number         0  f2d.o ABSOLUTE
    ../fplib/microlib/fpadd.c                0x00000000   Number         0  dadd.o ABSOLUTE
    ../fplib/microlib/fpdiv.c                0x00000000   Number         0  ddiv.o ABSOLUTE
    ../fplib/microlib/fpepilogue.c           0x00000000   Number         0  fepilogue.o ABSOLUTE
    ../fplib/microlib/fpepilogue.c           0x00000000   Number         0  depilogue.o ABSOLUTE
    ../fplib/microlib/fpfix.c                0x00000000   Number         0  dfixi.o ABSOLUTE
    ../fplib/microlib/fpfix.c                0x00000000   Number         0  dfixul.o ABSOLUTE
    ../fplib/microlib/fpflt.c                0x00000000   Number         0  dflti.o ABSOLUTE
    ../fplib/microlib/fpflt.c                0x00000000   Number         0  dfltui.o ABSOLUTE
    ../fplib/microlib/fpmul.c                0x00000000   Number         0  dmul.o ABSOLUTE
    ../fplib/microlib/fpneg.c                0x00000000   Number         0  dneg.o ABSOLUTE
    ../fplib/microlib/fpscalb.c              0x00000000   Number         0  dscalb.o ABSOLUTE
    ../fplib/microlib/fpsqrt.c               0x00000000   Number         0  dsqrt.o ABSOLUTE
    ../mathlib/asin.c                        0x00000000   Number         0  asin_x.o ABSOLUTE
    ../mathlib/asin.c                        0x00000000   Number         0  asin.o ABSOLUTE
    ../mathlib/asinf.c                       0x00000000   Number         0  asinf.o ABSOLUTE
    ../mathlib/asinf.c                       0x00000000   Number         0  asinf_x.o ABSOLUTE
    ../mathlib/atan.c                        0x00000000   Number         0  atan_x.o ABSOLUTE
    ../mathlib/atan.c                        0x00000000   Number         0  atan.o ABSOLUTE
    ../mathlib/atan2.c                       0x00000000   Number         0  atan2_x.o ABSOLUTE
    ../mathlib/atan2.c                       0x00000000   Number         0  atan2.o ABSOLUTE
    ../mathlib/atan2f.c                      0x00000000   Number         0  atan2f_x.o ABSOLUTE
    ../mathlib/atan2f.c                      0x00000000   Number         0  atan2f.o ABSOLUTE
    ../mathlib/cos.c                         0x00000000   Number         0  cos.o ABSOLUTE
    ../mathlib/cos.c                         0x00000000   Number         0  cos_x.o ABSOLUTE
    ../mathlib/cos_i.c                       0x00000000   Number         0  cos_i.o ABSOLUTE
    ../mathlib/dunder.c                      0x00000000   Number         0  dunder.o ABSOLUTE
    ../mathlib/fabs.c                        0x00000000   Number         0  fabs.o ABSOLUTE
    ../mathlib/fpclassify.c                  0x00000000   Number         0  fpclassify.o ABSOLUTE
    ../mathlib/fpclassifyf.c                 0x00000000   Number         0  fpclassifyf.o ABSOLUTE
    ../mathlib/funder.c                      0x00000000   Number         0  funder.o ABSOLUTE
    ../mathlib/poly.c                        0x00000000   Number         0  poly.o ABSOLUTE
    ../mathlib/pow.c                         0x00000000   Number         0  pow.o ABSOLUTE
    ../mathlib/pow.c                         0x00000000   Number         0  pow_x.o ABSOLUTE
    ../mathlib/qnan.c                        0x00000000   Number         0  qnan.o ABSOLUTE
    ../mathlib/rred.c                        0x00000000   Number         0  rred.o ABSOLUTE
    ../mathlib/sin_i.c                       0x00000000   Number         0  sin_i_x.o ABSOLUTE
    ../mathlib/sin_i.c                       0x00000000   Number         0  sin_i.o ABSOLUTE
    ../mathlib/sqrt.c                        0x00000000   Number         0  sqrt.o ABSOLUTE
    ../mathlib/sqrt.c                        0x00000000   Number         0  sqrt_x.o ABSOLUTE
    ../mathlib/sqrtf.c                       0x00000000   Number         0  sqrtf.o ABSOLUTE
    ../mathlib/sqrtf.c                       0x00000000   Number         0  sqrtf_x.o ABSOLUTE
    ..\..\..\..\..\..\..\psdk_lib\lib\baseMsgHandle.c 0x00000000   Number         0  basemsghandle.o ABSOLUTE
    ..\..\..\..\..\..\..\psdk_lib\lib\gdu_aircraft_info.c 0x00000000   Number         0  gdu_aircraft_info.o ABSOLUTE
    ..\..\..\..\..\..\..\psdk_lib\lib\gdu_cache.c 0x00000000   Number         0  gdu_cache.o ABSOLUTE
    ..\..\..\..\..\..\..\psdk_lib\lib\gdu_core.c 0x00000000   Number         0  gdu_core.o ABSOLUTE
    ..\..\..\..\..\..\..\psdk_lib\lib\gdu_flight_controller.c 0x00000000   Number         0  gdu_flight_controller.o ABSOLUTE
    ..\..\..\..\..\..\..\psdk_lib\lib\gdu_gimbal.c 0x00000000   Number         0  gdu_gimbal.o ABSOLUTE
    ..\..\..\..\..\..\..\psdk_lib\lib\gdu_logger.c 0x00000000   Number         0  gdu_logger.o ABSOLUTE
    ..\..\..\..\..\..\..\psdk_lib\lib\gdu_payload_camera.c 0x00000000   Number         0  gdu_payload_camera.o ABSOLUTE
    ..\..\..\..\..\..\..\psdk_lib\lib\gdu_platform.c 0x00000000   Number         0  gdu_platform.o ABSOLUTE
    ..\..\..\..\..\..\..\psdk_lib\lib\gdu_positioning.c 0x00000000   Number         0  gdu_positioning.o ABSOLUTE
    ..\..\..\..\..\..\..\psdk_lib\lib\gdu_power_management.c 0x00000000   Number         0  gdu_power_management.o ABSOLUTE
    ..\..\..\..\..\..\..\psdk_lib\lib\gdu_serial.c 0x00000000   Number         0  gdu_serial.o ABSOLUTE
    ..\..\..\..\..\..\..\psdk_lib\lib\gdu_subscribeInfo.c 0x00000000   Number         0  gdu_subscribeinfo.o ABSOLUTE
    ..\..\..\..\..\..\..\psdk_lib\lib\gdu_upgrade.c 0x00000000   Number         0  gdu_upgrade.o ABSOLUTE
    ..\..\..\..\..\..\..\psdk_lib\lib\gdu_widget.c 0x00000000   Number         0  gdu_widget.o ABSOLUTE
    ..\..\..\..\..\..\..\psdk_lib\lib\general_linked_list.c 0x00000000   Number         0  general_linked_list.o ABSOLUTE
    ..\..\..\..\..\..\..\psdk_lib\lib\npc.c  0x00000000   Number         0  npc.o ABSOLUTE
    ..\..\..\..\..\..\..\psdk_lib\lib\time_sync.c 0x00000000   Number         0  time_sync.o ABSOLUTE
    ..\..\..\..\..\module_sample\camera_emu\test_payload_cam_emu_base.c 0x00000000   Number         0  test_payload_cam_emu_base.o ABSOLUTE
    ..\..\..\..\..\module_sample\fc_subscription\test_fc_subscription.c 0x00000000   Number         0  test_fc_subscription.o ABSOLUTE
    ..\..\..\..\..\module_sample\flight_control\test_flight_control.c 0x00000000   Number         0  test_flight_control.o ABSOLUTE
    ..\..\..\..\..\module_sample\gimbal_emu\test_payload_gimbal_emu.c 0x00000000   Number         0  test_payload_gimbal_emu.o ABSOLUTE
    ..\..\..\..\..\module_sample\positioning\test_positioning.c 0x00000000   Number         0  test_positioning.o ABSOLUTE
    ..\..\..\..\..\module_sample\power_management\test_power_management.c 0x00000000   Number         0  test_power_management.o ABSOLUTE
    ..\..\..\..\..\module_sample\time_sync\test_time_sync.c 0x00000000   Number         0  test_time_sync.o ABSOLUTE
    ..\..\..\..\..\module_sample\upgrade\test_upgrade.c 0x00000000   Number         0  test_upgrade.o ABSOLUTE
    ..\..\..\..\..\module_sample\upgrade\test_upgrade_common_file_transfer.c 0x00000000   Number         0  test_upgrade_common_file_transfer.o ABSOLUTE
    ..\..\..\..\..\module_sample\upgrade\test_upgrade_platform_opt.c 0x00000000   Number         0  test_upgrade_platform_opt.o ABSOLUTE
    ..\..\..\..\..\module_sample\utils\util_buffer.c 0x00000000   Number         0  util_buffer.o ABSOLUTE
    ..\..\..\..\..\module_sample\utils\util_file.c 0x00000000   Number         0  util_file.o ABSOLUTE
    ..\..\..\..\..\module_sample\utils\util_md5.c 0x00000000   Number         0  util_md5.o ABSOLUTE
    ..\..\..\..\..\module_sample\utils\util_misc.c 0x00000000   Number         0  util_misc.o ABSOLUTE
    ..\..\..\..\..\module_sample\utils\util_time.c 0x00000000   Number         0  util_time.o ABSOLUTE
    ..\..\..\..\..\module_sample\widget\file_binary_array_list_en.c 0x00000000   Number         0  file_binary_array_list_en.o ABSOLUTE
    ..\..\..\..\..\module_sample\widget\test_widget.c 0x00000000   Number         0  test_widget.o ABSOLUTE
    ..\..\..\..\..\module_sample\widget\test_widget_speaker.c 0x00000000   Number         0  test_widget_speaker.o ABSOLUTE
    ..\..\..\common\osal\osal.c              0x00000000   Number         0  osal.o ABSOLUTE
    ..\..\Drivers\STM32F4xx_HAL_Driver\Src\stm32f4xx_hal.c 0x00000000   Number         0  stm32f4xx_hal.o ABSOLUTE
    ..\..\Drivers\STM32F4xx_HAL_Driver\Src\stm32f4xx_hal_cortex.c 0x00000000   Number         0  stm32f4xx_hal_cortex.o ABSOLUTE
    ..\..\Drivers\STM32F4xx_HAL_Driver\Src\stm32f4xx_hal_dma.c 0x00000000   Number         0  stm32f4xx_hal_dma.o ABSOLUTE
    ..\..\Drivers\STM32F4xx_HAL_Driver\Src\stm32f4xx_hal_dma_ex.c 0x00000000   Number         0  stm32f4xx_hal_dma_ex.o ABSOLUTE
    ..\..\Drivers\STM32F4xx_HAL_Driver\Src\stm32f4xx_hal_exti.c 0x00000000   Number         0  stm32f4xx_hal_exti.o ABSOLUTE
    ..\..\Drivers\STM32F4xx_HAL_Driver\Src\stm32f4xx_hal_flash.c 0x00000000   Number         0  stm32f4xx_hal_flash.o ABSOLUTE
    ..\..\Drivers\STM32F4xx_HAL_Driver\Src\stm32f4xx_hal_flash_ex.c 0x00000000   Number         0  stm32f4xx_hal_flash_ex.o ABSOLUTE
    ..\..\Drivers\STM32F4xx_HAL_Driver\Src\stm32f4xx_hal_flash_ramfunc.c 0x00000000   Number         0  stm32f4xx_hal_flash_ramfunc.o ABSOLUTE
    ..\..\Drivers\STM32F4xx_HAL_Driver\Src\stm32f4xx_hal_gpio.c 0x00000000   Number         0  stm32f4xx_hal_gpio.o ABSOLUTE
    ..\..\Drivers\STM32F4xx_HAL_Driver\Src\stm32f4xx_hal_hcd.c 0x00000000   Number         0  stm32f4xx_hal_hcd.o ABSOLUTE
    ..\..\Drivers\STM32F4xx_HAL_Driver\Src\stm32f4xx_hal_pwr.c 0x00000000   Number         0  stm32f4xx_hal_pwr.o ABSOLUTE
    ..\..\Drivers\STM32F4xx_HAL_Driver\Src\stm32f4xx_hal_pwr_ex.c 0x00000000   Number         0  stm32f4xx_hal_pwr_ex.o ABSOLUTE
    ..\..\Drivers\STM32F4xx_HAL_Driver\Src\stm32f4xx_hal_rcc.c 0x00000000   Number         0  stm32f4xx_hal_rcc.o ABSOLUTE
    ..\..\Drivers\STM32F4xx_HAL_Driver\Src\stm32f4xx_hal_rcc_ex.c 0x00000000   Number         0  stm32f4xx_hal_rcc_ex.o ABSOLUTE
    ..\..\Drivers\STM32F4xx_HAL_Driver\Src\stm32f4xx_hal_tim.c 0x00000000   Number         0  stm32f4xx_hal_tim.o ABSOLUTE
    ..\..\Drivers\STM32F4xx_HAL_Driver\Src\stm32f4xx_hal_tim_ex.c 0x00000000   Number         0  stm32f4xx_hal_tim_ex.o ABSOLUTE
    ..\..\Drivers\STM32F4xx_HAL_Driver\Src\stm32f4xx_hal_uart.c 0x00000000   Number         0  stm32f4xx_hal_uart.o ABSOLUTE
    ..\..\Drivers\STM32F4xx_HAL_Driver\Src\stm32f4xx_ll_usb.c 0x00000000   Number         0  stm32f4xx_ll_usb.o ABSOLUTE
    ..\..\application\application.c          0x00000000   Number         0  application.o ABSOLUTE
    ..\..\application\main.c                 0x00000000   Number         0  main.o ABSOLUTE
    ..\..\drivers\BSP\apply_high_power.c     0x00000000   Number         0  apply_high_power.o ABSOLUTE
    ..\..\drivers\BSP\flash_if.c             0x00000000   Number         0  flash_if.o ABSOLUTE
    ..\..\drivers\BSP\freertos.c             0x00000000   Number         0  freertos.o ABSOLUTE
    ..\..\drivers\BSP\gdu_ringbuffer.c       0x00000000   Number         0  gdu_ringbuffer.o ABSOLUTE
    ..\..\drivers\BSP\led.c                  0x00000000   Number         0  led.o ABSOLUTE
    ..\..\drivers\BSP\pps.c                  0x00000000   Number         0  pps.o ABSOLUTE
    ..\..\drivers\BSP\stm32f4xx_hal_msp.c    0x00000000   Number         0  stm32f4xx_hal_msp.o ABSOLUTE
    ..\..\drivers\BSP\stm32f4xx_hal_timebase_tim.c 0x00000000   Number         0  stm32f4xx_hal_timebase_tim.o ABSOLUTE
    ..\..\drivers\BSP\stm32f4xx_it.c         0x00000000   Number         0  stm32f4xx_it.o ABSOLUTE
    ..\..\drivers\BSP\system_stm32f4xx.c     0x00000000   Number         0  system_stm32f4xx.o ABSOLUTE
    ..\..\drivers\BSP\uart.c                 0x00000000   Number         0  uart.o ABSOLUTE
    ..\..\drivers\BSP\upgrade_platform_opt_stm32.c 0x00000000   Number         0  upgrade_platform_opt_stm32.o ABSOLUTE
    ..\..\drivers\USB_HOST\App\usb_host.c    0x00000000   Number         0  usb_host.o ABSOLUTE
    ..\..\drivers\USB_HOST\Target\usbh_conf.c 0x00000000   Number         0  usbh_conf.o ABSOLUTE
    ..\..\hal\hal_uart.c                     0x00000000   Number         0  hal_uart.o ABSOLUTE
    ..\..\middlewares\ST\STM32_USB_Host_Library\Class\CDC\Src\usbh_cdc.c 0x00000000   Number         0  usbh_cdc.o ABSOLUTE
    ..\..\middlewares\ST\STM32_USB_Host_Library\Core\Src\usbh_core.c 0x00000000   Number         0  usbh_core.o ABSOLUTE
    ..\..\middlewares\ST\STM32_USB_Host_Library\Core\Src\usbh_ctlreq.c 0x00000000   Number         0  usbh_ctlreq.o ABSOLUTE
    ..\..\middlewares\ST\STM32_USB_Host_Library\Core\Src\usbh_ioreq.c 0x00000000   Number         0  usbh_ioreq.o ABSOLUTE
    ..\..\middlewares\ST\STM32_USB_Host_Library\Core\Src\usbh_pipes.c 0x00000000   Number         0  usbh_pipes.o ABSOLUTE
    ..\..\middlewares\Third_Party\FreeRTOS\Source\CMSIS_RTOS\cmsis_os.c 0x00000000   Number         0  cmsis_os.o ABSOLUTE
    ..\..\middlewares\Third_Party\FreeRTOS\Source\croutine.c 0x00000000   Number         0  croutine.o ABSOLUTE
    ..\..\middlewares\Third_Party\FreeRTOS\Source\event_groups.c 0x00000000   Number         0  event_groups.o ABSOLUTE
    ..\..\middlewares\Third_Party\FreeRTOS\Source\list.c 0x00000000   Number         0  list.o ABSOLUTE
    ..\..\middlewares\Third_Party\FreeRTOS\Source\portable\MemMang\heap_4.c 0x00000000   Number         0  heap_4.o ABSOLUTE
    ..\..\middlewares\Third_Party\FreeRTOS\Source\portable\RVDS\ARM_CM4F\port.c 0x00000000   Number         0  port.o ABSOLUTE
    ..\..\middlewares\Third_Party\FreeRTOS\Source\queue.c 0x00000000   Number         0  queue.o ABSOLUTE
    ..\..\middlewares\Third_Party\FreeRTOS\Source\tasks.c 0x00000000   Number         0  tasks.o ABSOLUTE
    ..\..\middlewares\Third_Party\FreeRTOS\Source\timers.c 0x00000000   Number         0  timers.o ABSOLUTE
    ..\\..\\..\\..\\..\\..\\..\\psdk_lib\\lib\\time_sync.c 0x00000000   Number         0  time_sync.o ABSOLUTE
    ..\\..\\Drivers\\STM32F4xx_HAL_Driver\\Src\\stm32f4xx_hal.c 0x00000000   Number         0  stm32f4xx_hal.o ABSOLUTE
    ..\\..\\Drivers\\STM32F4xx_HAL_Driver\\Src\\stm32f4xx_hal_cortex.c 0x00000000   Number         0  stm32f4xx_hal_cortex.o ABSOLUTE
    ..\\..\\Drivers\\STM32F4xx_HAL_Driver\\Src\\stm32f4xx_hal_dma.c 0x00000000   Number         0  stm32f4xx_hal_dma.o ABSOLUTE
    ..\\..\\Drivers\\STM32F4xx_HAL_Driver\\Src\\stm32f4xx_hal_dma_ex.c 0x00000000   Number         0  stm32f4xx_hal_dma_ex.o ABSOLUTE
    ..\\..\\Drivers\\STM32F4xx_HAL_Driver\\Src\\stm32f4xx_hal_exti.c 0x00000000   Number         0  stm32f4xx_hal_exti.o ABSOLUTE
    ..\\..\\Drivers\\STM32F4xx_HAL_Driver\\Src\\stm32f4xx_hal_flash.c 0x00000000   Number         0  stm32f4xx_hal_flash.o ABSOLUTE
    ..\\..\\Drivers\\STM32F4xx_HAL_Driver\\Src\\stm32f4xx_hal_flash_ex.c 0x00000000   Number         0  stm32f4xx_hal_flash_ex.o ABSOLUTE
    ..\\..\\Drivers\\STM32F4xx_HAL_Driver\\Src\\stm32f4xx_hal_flash_ramfunc.c 0x00000000   Number         0  stm32f4xx_hal_flash_ramfunc.o ABSOLUTE
    ..\\..\\Drivers\\STM32F4xx_HAL_Driver\\Src\\stm32f4xx_hal_gpio.c 0x00000000   Number         0  stm32f4xx_hal_gpio.o ABSOLUTE
    ..\\..\\Drivers\\STM32F4xx_HAL_Driver\\Src\\stm32f4xx_hal_hcd.c 0x00000000   Number         0  stm32f4xx_hal_hcd.o ABSOLUTE
    ..\\..\\Drivers\\STM32F4xx_HAL_Driver\\Src\\stm32f4xx_hal_pwr.c 0x00000000   Number         0  stm32f4xx_hal_pwr.o ABSOLUTE
    ..\\..\\Drivers\\STM32F4xx_HAL_Driver\\Src\\stm32f4xx_hal_pwr_ex.c 0x00000000   Number         0  stm32f4xx_hal_pwr_ex.o ABSOLUTE
    ..\\..\\Drivers\\STM32F4xx_HAL_Driver\\Src\\stm32f4xx_hal_rcc.c 0x00000000   Number         0  stm32f4xx_hal_rcc.o ABSOLUTE
    ..\\..\\Drivers\\STM32F4xx_HAL_Driver\\Src\\stm32f4xx_hal_rcc_ex.c 0x00000000   Number         0  stm32f4xx_hal_rcc_ex.o ABSOLUTE
    ..\\..\\Drivers\\STM32F4xx_HAL_Driver\\Src\\stm32f4xx_hal_tim.c 0x00000000   Number         0  stm32f4xx_hal_tim.o ABSOLUTE
    ..\\..\\Drivers\\STM32F4xx_HAL_Driver\\Src\\stm32f4xx_hal_tim_ex.c 0x00000000   Number         0  stm32f4xx_hal_tim_ex.o ABSOLUTE
    ..\\..\\Drivers\\STM32F4xx_HAL_Driver\\Src\\stm32f4xx_hal_uart.c 0x00000000   Number         0  stm32f4xx_hal_uart.o ABSOLUTE
    ..\\..\\Drivers\\STM32F4xx_HAL_Driver\\Src\\stm32f4xx_ll_usb.c 0x00000000   Number         0  stm32f4xx_ll_usb.o ABSOLUTE
    ..\\..\\application\\application.c       0x00000000   Number         0  application.o ABSOLUTE
    ..\\..\\application\\main.c              0x00000000   Number         0  main.o ABSOLUTE
    ..\\..\\drivers\\BSP\\apply_high_power.c 0x00000000   Number         0  apply_high_power.o ABSOLUTE
    ..\\..\\drivers\\BSP\\flash_if.c         0x00000000   Number         0  flash_if.o ABSOLUTE
    ..\\..\\drivers\\BSP\\led.c              0x00000000   Number         0  led.o ABSOLUTE
    ..\\..\\drivers\\BSP\\pps.c              0x00000000   Number         0  pps.o ABSOLUTE
    ..\\..\\drivers\\BSP\\stm32f4xx_hal_msp.c 0x00000000   Number         0  stm32f4xx_hal_msp.o ABSOLUTE
    ..\\..\\drivers\\BSP\\stm32f4xx_hal_timebase_tim.c 0x00000000   Number         0  stm32f4xx_hal_timebase_tim.o ABSOLUTE
    ..\\..\\drivers\\BSP\\stm32f4xx_it.c     0x00000000   Number         0  stm32f4xx_it.o ABSOLUTE
    ..\\..\\drivers\\BSP\\system_stm32f4xx.c 0x00000000   Number         0  system_stm32f4xx.o ABSOLUTE
    ..\\..\\drivers\\BSP\\uart.c             0x00000000   Number         0  uart.o ABSOLUTE
    ..\\..\\drivers\\BSP\\upgrade_platform_opt_stm32.c 0x00000000   Number         0  upgrade_platform_opt_stm32.o ABSOLUTE
    ..\\..\\drivers\\CMSIS\\Device\\ST\\STM32F4xx\\Source\\Templates\\arm\\startup_stm32f407xx.s 0x00000000   Number         0  startup_stm32f407xx.o ABSOLUTE
    ..\\..\\drivers\\USB_HOST\\App\\usb_host.c 0x00000000   Number         0  usb_host.o ABSOLUTE
    ..\\..\\drivers\\USB_HOST\\Target\\usbh_conf.c 0x00000000   Number         0  usbh_conf.o ABSOLUTE
    ..\\..\\hal\\hal_uart.c                  0x00000000   Number         0  hal_uart.o ABSOLUTE
    ..\\..\\middlewares\\ST\\STM32_USB_Host_Library\\Class\\CDC\\Src\\usbh_cdc.c 0x00000000   Number         0  usbh_cdc.o ABSOLUTE
    ..\\..\\middlewares\\ST\\STM32_USB_Host_Library\\Core\\Src\\usbh_core.c 0x00000000   Number         0  usbh_core.o ABSOLUTE
    ..\\..\\middlewares\\ST\\STM32_USB_Host_Library\\Core\\Src\\usbh_ctlreq.c 0x00000000   Number         0  usbh_ctlreq.o ABSOLUTE
    ..\\..\\middlewares\\ST\\STM32_USB_Host_Library\\Core\\Src\\usbh_ioreq.c 0x00000000   Number         0  usbh_ioreq.o ABSOLUTE
    ..\\..\\middlewares\\ST\\STM32_USB_Host_Library\\Core\\Src\\usbh_pipes.c 0x00000000   Number         0  usbh_pipes.o ABSOLUTE
    ..\\..\\middlewares\\Third_Party\\FreeRTOS\\Source\\CMSIS_RTOS\\cmsis_os.c 0x00000000   Number         0  cmsis_os.o ABSOLUTE
    ..\\..\\middlewares\\Third_Party\\FreeRTOS\\Source\\portable\\RVDS\\ARM_CM4F\\port.c 0x00000000   Number         0  port.o ABSOLUTE
    cdcmple.s                                0x00000000   Number         0  cdcmple.o ABSOLUTE
    cdrcmple.s                               0x00000000   Number         0  cdrcmple.o ABSOLUTE
    dc.s                                     0x00000000   Number         0  dc.o ABSOLUTE
    handlers.s                               0x00000000   Number         0  handlers.o ABSOLUTE
    init.s                                   0x00000000   Number         0  init.o ABSOLUTE
    RESET                                    0x08010000   Section      392  startup_stm32f407xx.o(RESET)
    .ARM.Collect$$$$00000000                 0x08010188   Section        0  entry.o(.ARM.Collect$$$$00000000)
    .ARM.Collect$$$$00000001                 0x08010188   Section        4  entry2.o(.ARM.Collect$$$$00000001)
    .ARM.Collect$$$$00000004                 0x0801018c   Section        4  entry5.o(.ARM.Collect$$$$00000004)
    .ARM.Collect$$$$00000008                 0x08010190   Section        0  entry7b.o(.ARM.Collect$$$$00000008)
    .ARM.Collect$$$$0000000A                 0x08010190   Section        0  entry8b.o(.ARM.Collect$$$$0000000A)
    .ARM.Collect$$$$0000000B                 0x08010190   Section        8  entry9a.o(.ARM.Collect$$$$0000000B)
    .ARM.Collect$$$$0000000D                 0x08010198   Section        0  entry10a.o(.ARM.Collect$$$$0000000D)
    .ARM.Collect$$$$0000000F                 0x08010198   Section        0  entry11a.o(.ARM.Collect$$$$0000000F)
    .ARM.Collect$$$$00002712                 0x08010198   Section        4  entry2.o(.ARM.Collect$$$$00002712)
    __lit__00000000                          0x08010198   Data           4  entry2.o(.ARM.Collect$$$$00002712)
    .emb_text                                0x0801019c   Section      182  port.o(.emb_text)
    $v0                                      0x0801019c   Number         0  port.o(.emb_text)
    .text                                    0x08010254   Section        0  application.o(.text)
    GduUser_FillInUserInfo                   0x08010255   Thumb Code   338  application.o(.text)
    GduUser_PrintConsole                     0x08010a67   Thumb Code    22  application.o(.text)
    .text                                    0x08010b3c   Section        0  hal_uart.o(.text)
    .text                                    0x08010c18   Section        0  main.o(.text)
    SystemClock_Config                       0x08010c19   Thumb Code   158  main.o(.text)
    .text                                    0x08010d48   Section        0  osal.o(.text)
    .text                                    0x08010f28   Section        0  flash_if.o(.text)
    GetSector                                0x08010f29   Thumb Code   182  flash_if.o(.text)
    .text                                    0x0801117c   Section        0  led.o(.text)
    .text                                    0x08011270   Section        0  pps.o(.text)
    .text                                    0x080113dc   Section       36  startup_stm32f407xx.o(.text)
    $v0                                      0x080113dc   Number         0  startup_stm32f407xx.o(.text)
    .text                                    0x08011400   Section        0  stm32f4xx_hal_msp.o(.text)
    .text                                    0x08011748   Section        0  stm32f4xx_hal_timebase_tim.o(.text)
    .text                                    0x080117f8   Section        0  stm32f4xx_it.o(.text)
    .text                                    0x08011838   Section        0  system_stm32f4xx.o(.text)
    .text                                    0x08011914   Section        0  uart.o(.text)
    .text                                    0x08012088   Section        0  usbh_cdc.o(.text)
    USBH_CDC_InterfaceInit                   0x08012109   Thumb Code   634  usbh_cdc.o(.text)
    USBH_CDC_InterfaceDeInit                 0x08012383   Thumb Code   112  usbh_cdc.o(.text)
    CDC_SetInitialValue                      0x080123f3   Thumb Code    44  usbh_cdc.o(.text)
    USBH_CDC_ClassRequest                    0x0801241f   Thumb Code    24  usbh_cdc.o(.text)
    CDC_ProcessReception                     0x0801252d   Thumb Code   146  usbh_cdc.o(.text)
    CDC_ProcessTransmission                  0x080125c1   Thumb Code   206  usbh_cdc.o(.text)
    USBH_CDC_Process                         0x0801272d   Thumb Code   150  usbh_cdc.o(.text)
    USBH_CDC_SOFProcess                      0x080127c3   Thumb Code     6  usbh_cdc.o(.text)
    GetLineCoding                            0x080127fb   Thumb Code    36  usbh_cdc.o(.text)
    SetLineCoding                            0x0801281f   Thumb Code    36  usbh_cdc.o(.text)
    .text                                    0x080128a4   Section        0  usbh_core.o(.text)
    DeInitStateMachine                       0x080128a5   Thumb Code    94  usbh_core.o(.text)
    USBH_HandleEnum                          0x08012bd3   Thumb Code  1530  usbh_core.o(.text)
    USBH_HandleSof                           0x08013731   Thumb Code   344  usbh_core.o(.text)
    USBH_Process_OS                          0x08013935   Thumb Code    42  usbh_core.o(.text)
    .text                                    0x0801397c   Section        0  usbh_ctlreq.o(.text)
    USBH_ParseDevDesc                        0x0801397d   Thumb Code    88  usbh_ctlreq.o(.text)
    USBH_HandleControl                       0x080139d5   Thumb Code   792  usbh_ctlreq.o(.text)
    USBH_ParseEPDesc                         0x08013de1   Thumb Code    32  usbh_ctlreq.o(.text)
    USBH_ParseInterfaceDesc                  0x08013e13   Thumb Code    38  usbh_ctlreq.o(.text)
    USBH_ParseCfgDesc                        0x08013e39   Thumb Code   218  usbh_ctlreq.o(.text)
    USBH_ParseStringDesc                     0x08013f41   Thumb Code    54  usbh_ctlreq.o(.text)
    .text                                    0x080140ac   Section        0  usbh_ioreq.o(.text)
    .text                                    0x0801423c   Section        0  usbh_pipes.o(.text)
    USBH_GetFreePipe                         0x08014279   Thumb Code    40  usbh_pipes.o(.text)
    .text                                    0x080142e8   Section        0  gdu_ringbuffer.o(.text)
    RingBuf_CutBufSizeToPowOfTwo             0x080142e9   Thumb Code    34  gdu_ringbuffer.o(.text)
    .text                                    0x08014424   Section        0  apply_high_power.o(.text)
    .text                                    0x080144d4   Section        0  upgrade_platform_opt_stm32.o(.text)
    .text                                    0x08014688   Section        0  stm32f4xx_hal.o(.text)
    .text                                    0x0801488c   Section        0  stm32f4xx_hal_cortex.o(.text)
    __NVIC_SetPriority                       0x0801488d   Thumb Code    32  stm32f4xx_hal_cortex.o(.text)
    __NVIC_GetPriorityGrouping               0x08014c3d   Thumb Code    12  stm32f4xx_hal_cortex.o(.text)
    .text                                    0x08014c5c   Section        0  stm32f4xx_hal_dma.o(.text)
    DMA_CalcBaseAndBitshift                  0x08014c5d   Thumb Code    46  stm32f4xx_hal_dma.o(.text)
    DMA_CheckFifoParam                       0x08014c8b   Thumb Code   170  stm32f4xx_hal_dma.o(.text)
    DMA_SetConfig                            0x08014e8d   Thumb Code    44  stm32f4xx_hal_dma.o(.text)
    .text                                    0x0801550c   Section        0  stm32f4xx_hal_flash.o(.text)
    FLASH_SetErrorCode                       0x0801550d   Thumb Code   142  stm32f4xx_hal_flash.o(.text)
    FLASH_Program_DoubleWord                 0x080155f5   Thumb Code    60  stm32f4xx_hal_flash.o(.text)
    FLASH_Program_Word                       0x08015631   Thumb Code    40  stm32f4xx_hal_flash.o(.text)
    FLASH_Program_HalfWord                   0x08015659   Thumb Code    40  stm32f4xx_hal_flash.o(.text)
    FLASH_Program_Byte                       0x08015681   Thumb Code    36  stm32f4xx_hal_flash.o(.text)
    .text                                    0x08015974   Section        0  stm32f4xx_hal_flash_ex.o(.text)
    FLASH_MassErase                          0x08015a43   Thumb Code    48  stm32f4xx_hal_flash_ex.o(.text)
    FLASH_OB_BOR_LevelConfig                 0x08015b93   Thumb Code    30  stm32f4xx_hal_flash_ex.o(.text)
    FLASH_OB_UserConfig                      0x08015bb1   Thumb Code    58  stm32f4xx_hal_flash_ex.o(.text)
    FLASH_OB_RDP_LevelConfig                 0x08015beb   Thumb Code    28  stm32f4xx_hal_flash_ex.o(.text)
    FLASH_OB_DisableWRP                      0x08015c07   Thumb Code    40  stm32f4xx_hal_flash_ex.o(.text)
    FLASH_OB_EnableWRP                       0x08015c2f   Thumb Code    38  stm32f4xx_hal_flash_ex.o(.text)
    FLASH_OB_GetBOR                          0x08015ce5   Thumb Code    12  stm32f4xx_hal_flash_ex.o(.text)
    FLASH_OB_GetUser                         0x08015cf1   Thumb Code    12  stm32f4xx_hal_flash_ex.o(.text)
    FLASH_OB_GetRDP                          0x08015cfd   Thumb Code    34  stm32f4xx_hal_flash_ex.o(.text)
    FLASH_OB_GetWRP                          0x08015d1f   Thumb Code     8  stm32f4xx_hal_flash_ex.o(.text)
    .text                                    0x08015d50   Section        0  stm32f4xx_hal_gpio.o(.text)
    .text                                    0x0801610c   Section        0  stm32f4xx_hal_hcd.o(.text)
    HCD_HC_OUT_IRQHandler                    0x0801658b   Thumb Code  1860  stm32f4xx_hal_hcd.o(.text)
    HCD_HC_IN_IRQHandler                     0x08016ccf   Thumb Code  1890  stm32f4xx_hal_hcd.o(.text)
    HCD_RXQLVL_IRQHandler                    0x08017431   Thumb Code   388  stm32f4xx_hal_hcd.o(.text)
    HCD_Port_IRQHandler                      0x080175bd   Thumb Code   182  stm32f4xx_hal_hcd.o(.text)
    .text                                    0x080178b8   Section        0  stm32f4xx_hal_rcc.o(.text)
    .text                                    0x08018200   Section        0  stm32f4xx_hal_tim.o(.text)
    TIM_DMAPeriodElapsedHalfCplt             0x08018567   Thumb Code    14  stm32f4xx_hal_tim.o(.text)
    TIM_DMAPeriodElapsedCplt                 0x08018577   Thumb Code    26  stm32f4xx_hal_tim.o(.text)
    TIM_DMADelayPulseCplt                    0x08018bf5   Thumb Code   104  stm32f4xx_hal_tim.o(.text)
    TIM_OC4_SetConfig                        0x0801ad95   Thumb Code    74  stm32f4xx_hal_tim.o(.text)
    TIM_OC3_SetConfig                        0x0801addf   Thumb Code   112  stm32f4xx_hal_tim.o(.text)
    TIM_OC1_SetConfig                        0x0801aec1   Thumb Code   104  stm32f4xx_hal_tim.o(.text)
    TIM_TI4_SetConfig                        0x0801af91   Thumb Code    60  stm32f4xx_hal_tim.o(.text)
    TIM_TI3_SetConfig                        0x0801afcd   Thumb Code    56  stm32f4xx_hal_tim.o(.text)
    TIM_TI2_SetConfig                        0x0801b005   Thumb Code    58  stm32f4xx_hal_tim.o(.text)
    TIM_DMATriggerHalfCplt                   0x0801b3bf   Thumb Code    14  stm32f4xx_hal_tim.o(.text)
    TIM_DMATriggerCplt                       0x0801b3cd   Thumb Code    26  stm32f4xx_hal_tim.o(.text)
    TIM_ITRx_SetConfig                       0x0801ba17   Thumb Code    18  stm32f4xx_hal_tim.o(.text)
    TIM_TI1_ConfigInputStage                 0x0801ba29   Thumb Code    38  stm32f4xx_hal_tim.o(.text)
    TIM_TI2_ConfigInputStage                 0x0801ba4f   Thumb Code    40  stm32f4xx_hal_tim.o(.text)
    TIM_SlaveTimer_SetConfig                 0x0801bb95   Thumb Code   170  stm32f4xx_hal_tim.o(.text)
    .text                                    0x0801bdac   Section        0  stm32f4xx_hal_tim_ex.o(.text)
    TIM_CCxNChannelCmd                       0x0801c26b   Thumb Code    34  stm32f4xx_hal_tim_ex.o(.text)
    TIM_DMAErrorCCxN                         0x0801c60b   Thumb Code    68  stm32f4xx_hal_tim_ex.o(.text)
    TIM_DMADelayPulseNCplt                   0x0801c64f   Thumb Code   104  stm32f4xx_hal_tim_ex.o(.text)
    .text                                    0x0801d534   Section        0  stm32f4xx_hal_uart.o(.text)
    UART_SetConfig                           0x0801d535   Thumb Code   546  stm32f4xx_hal_uart.o(.text)
    UART_WaitOnFlagUntilTimeout              0x0801d9af   Thumb Code   108  stm32f4xx_hal_uart.o(.text)
    UART_EndRxTransfer                       0x0801dcab   Thumb Code    54  stm32f4xx_hal_uart.o(.text)
    UART_EndTxTransfer                       0x0801dce1   Thumb Code    20  stm32f4xx_hal_uart.o(.text)
    UART_DMAError                            0x0801dcf5   Thumb Code    80  stm32f4xx_hal_uart.o(.text)
    UART_DMATxHalfCplt                       0x0801dd47   Thumb Code    14  stm32f4xx_hal_uart.o(.text)
    UART_DMATransmitCplt                     0x0801dd57   Thumb Code    54  stm32f4xx_hal_uart.o(.text)
    UART_DMARxHalfCplt                       0x0801de1f   Thumb Code    32  stm32f4xx_hal_uart.o(.text)
    UART_DMAReceiveCplt                      0x0801de41   Thumb Code   104  stm32f4xx_hal_uart.o(.text)
    UART_DMARxAbortCallback                  0x0801e4a3   Thumb Code    56  stm32f4xx_hal_uart.o(.text)
    UART_DMATxAbortCallback                  0x0801e4db   Thumb Code    56  stm32f4xx_hal_uart.o(.text)
    UART_DMATxOnlyAbortCallback              0x0801e603   Thumb Code    24  stm32f4xx_hal_uart.o(.text)
    UART_DMARxOnlyAbortCallback              0x0801e685   Thumb Code    28  stm32f4xx_hal_uart.o(.text)
    UART_EndTransmit_IT                      0x0801e72f   Thumb Code    32  stm32f4xx_hal_uart.o(.text)
    UART_Transmit_IT                         0x0801e74f   Thumb Code    96  stm32f4xx_hal_uart.o(.text)
    UART_DMAAbortOnError                     0x0801e7af   Thumb Code    20  stm32f4xx_hal_uart.o(.text)
    UART_Receive_IT                          0x0801e7c3   Thumb Code   190  stm32f4xx_hal_uart.o(.text)
    .text                                    0x0801ec40   Section        0  stm32f4xx_ll_usb.o(.text)
    USB_CoreReset                            0x0801ec41   Thumb Code    70  stm32f4xx_ll_usb.o(.text)
    .text                                    0x08020580   Section        0  cmsis_os.o(.text)
    makeFreeRtosPriority                     0x08020581   Thumb Code    14  cmsis_os.o(.text)
    makeCmsisPriority                        0x0802058f   Thumb Code    18  cmsis_os.o(.text)
    inHandlerMode                            0x080205a1   Thumb Code    16  cmsis_os.o(.text)
    .text                                    0x08020e84   Section        0  heap_4.o(.text)
    prvInsertBlockIntoFreeList               0x08020e85   Thumb Code    96  heap_4.o(.text)
    prvHeapInit                              0x08020ee5   Thumb Code    96  heap_4.o(.text)
    .text                                    0x080211a8   Section        0  port.o(.text)
    prvTaskExitError                         0x080211a9   Thumb Code    60  port.o(.text)
    .text                                    0x080214b4   Section        0  list.o(.text)
    .text                                    0x08021548   Section        0  queue.o(.text)
    prvInitialiseNewQueue                    0x080215db   Thumb Code    38  queue.o(.text)
    prvUnlockQueue                           0x08021655   Thumb Code   126  queue.o(.text)
    prvIsQueueFull                           0x080216d3   Thumb Code    30  queue.o(.text)
    prvCopyDataToQueue                       0x080216f1   Thumb Code   126  queue.o(.text)
    prvInitialiseMutex                       0x08021913   Thumb Code    30  queue.o(.text)
    prvIsQueueEmpty                          0x08021b91   Thumb Code    26  queue.o(.text)
    prvCopyDataFromQueue                     0x08021bab   Thumb Code    42  queue.o(.text)
    prvGetDisinheritPriorityAfterTimeout     0x08021d39   Thumb Code    20  queue.o(.text)
    .text                                    0x08022364   Section        0  tasks.o(.text)
    prvInitialiseTaskLists                   0x08022365   Thumb Code    70  tasks.o(.text)
    prvAddNewTaskToReadyList                 0x080223ab   Thumb Code   150  tasks.o(.text)
    prvInitialiseNewTask                     0x08022441   Thumb Code   180  tasks.o(.text)
    prvResetNextTaskUnblockTime              0x08022555   Thumb Code    42  tasks.o(.text)
    prvDeleteTCB                             0x0802257f   Thumb Code    18  tasks.o(.text)
    prvAddCurrentTaskToDelayedList           0x080228a5   Thumb Code   124  tasks.o(.text)
    prvTaskIsTaskSuspended                   0x08022c61   Thumb Code    80  tasks.o(.text)
    prvCheckTasksWaitingTermination          0x08022dcf   Thumb Code    60  tasks.o(.text)
    prvIdleTask                              0x08022e0b   Thumb Code    32  tasks.o(.text)
    .text                                    0x08023988   Section        0  usbh_conf.o(.text)
    .text                                    0x08023d5c   Section        0  test_payload_cam_emu_base.o(.text)
    GetSystemState                           0x08023d5d   Thumb Code   134  test_payload_cam_emu_base.o(.text)
    SetMode                                  0x08023de3   Thumb Code   146  test_payload_cam_emu_base.o(.text)
    StartRecordVideo                         0x08023e75   Thumb Code   184  test_payload_cam_emu_base.o(.text)
    StopRecordVideo                          0x08023f2d   Thumb Code   196  test_payload_cam_emu_base.o(.text)
    StartShootPhoto                          0x08023ff1   Thumb Code   196  test_payload_cam_emu_base.o(.text)
    StopShootPhoto                           0x080240b5   Thumb Code   510  test_payload_cam_emu_base.o(.text)
    SetShootPhotoMode                        0x080242b3   Thumb Code   162  test_payload_cam_emu_base.o(.text)
    GetShootPhotoMode                        0x08024355   Thumb Code   142  test_payload_cam_emu_base.o(.text)
    SetPhotoBurstCount                       0x080243e3   Thumb Code   162  test_payload_cam_emu_base.o(.text)
    GetPhotoBurstCount                       0x08024485   Thumb Code   142  test_payload_cam_emu_base.o(.text)
    SetPhotoTimeIntervalSettings             0x08024513   Thumb Code   186  test_payload_cam_emu_base.o(.text)
    GetPhotoTimeIntervalSettings             0x080245cd   Thumb Code   142  test_payload_cam_emu_base.o(.text)
    GetSDCardState                           0x0802465b   Thumb Code   324  test_payload_cam_emu_base.o(.text)
    FormatSDCard                             0x0802479f   Thumb Code   178  test_payload_cam_emu_base.o(.text)
    SetMeteringMode                          0x08024851   Thumb Code    36  test_payload_cam_emu_base.o(.text)
    GetMeteringMode                          0x08024875   Thumb Code    14  test_payload_cam_emu_base.o(.text)
    SetSpotMeteringTarget                    0x08024883   Thumb Code    52  test_payload_cam_emu_base.o(.text)
    GetSpotMeteringTarget                    0x080248b7   Thumb Code    14  test_payload_cam_emu_base.o(.text)
    SetFocusMode                             0x080248c5   Thumb Code    36  test_payload_cam_emu_base.o(.text)
    GetFocusMode                             0x080248e9   Thumb Code    14  test_payload_cam_emu_base.o(.text)
    SetFocusTarget                           0x080248f7   Thumb Code    96  test_payload_cam_emu_base.o(.text)
    GetFocusTarget                           0x08024957   Thumb Code    16  test_payload_cam_emu_base.o(.text)
    SetFocusAssistantSettings                0x08024967   Thumb Code    52  test_payload_cam_emu_base.o(.text)
    GetFocusAssistantSettings                0x0802499b   Thumb Code    14  test_payload_cam_emu_base.o(.text)
    SetFocusRingValue                        0x080249a9   Thumb Code    36  test_payload_cam_emu_base.o(.text)
    GetFocusRingValue                        0x080249cd   Thumb Code    14  test_payload_cam_emu_base.o(.text)
    GetFocusRingValueUpperBound              0x080249db   Thumb Code    14  test_payload_cam_emu_base.o(.text)
    SetDigitalZoomFactor                     0x080249e9   Thumb Code   186  test_payload_cam_emu_base.o(.text)
    SetOpticalZoomFocalLength                0x08024aa3   Thumb Code   610  test_payload_cam_emu_base.o(.text)
    GetOpticalZoomFocalLength                0x08024d05   Thumb Code   142  test_payload_cam_emu_base.o(.text)
    GetOpticalZoomSpec                       0x08024d93   Thumb Code    20  test_payload_cam_emu_base.o(.text)
    StartContinuousOpticalZoom               0x08024da7   Thumb Code   184  test_payload_cam_emu_base.o(.text)
    StopContinuousOpticalZoom                0x08024e5f   Thumb Code   166  test_payload_cam_emu_base.o(.text)
    GetTapZoomState                          0x08024f05   Thumb Code   142  test_payload_cam_emu_base.o(.text)
    SetTapZoomEnabled                        0x08024f93   Thumb Code    36  test_payload_cam_emu_base.o(.text)
    GetTapZoomEnabled                        0x08024fb7   Thumb Code    14  test_payload_cam_emu_base.o(.text)
    SetTapZoomMultiplier                     0x08024fc5   Thumb Code    36  test_payload_cam_emu_base.o(.text)
    GetTapZoomMultiplier                     0x08024fe9   Thumb Code    14  test_payload_cam_emu_base.o(.text)
    TapZoomAtTarget                          0x08024ff7   Thumb Code   952  test_payload_cam_emu_base.o(.text)
    GduTest_CameraHybridZoom                 0x080253af   Thumb Code   122  test_payload_cam_emu_base.o(.text)
    UserCamera_Task                          0x08025429   Thumb Code   904  test_payload_cam_emu_base.o(.text)
    .text                                    0x08025eb0   Section        0  test_fc_subscription.o(.text)
    UserFcSubscription_Task                  0x08025ec1   Thumb Code   488  test_fc_subscription.o(.text)
    GduTest_FcSubscriptionReceiveQuaternionCallback 0x0802615b   Thumb Code  1164  test_fc_subscription.o(.text)
    .text                                    0x08026c90   Section        0  test_payload_gimbal_emu.o(.text)
    GduTest_GimbalAngleLegalization          0x08026c91   Thumb Code   844  test_payload_gimbal_emu.o(.text)
    UserGimbal_Task                          0x08026fdd   Thumb Code  1914  test_payload_gimbal_emu.o(.text)
    FineTuneAngle                            0x08027757   Thumb Code   954  test_payload_gimbal_emu.o(.text)
    Reset                                    0x08027b11   Thumb Code   748  test_payload_gimbal_emu.o(.text)
    SetMode                                  0x08027dfd   Thumb Code   276  test_payload_gimbal_emu.o(.text)
    RestoreFactorySettings                   0x08027f11   Thumb Code   162  test_payload_gimbal_emu.o(.text)
    SetControllerMaxSpeedPercentage          0x08027fb3   Thumb Code   172  test_payload_gimbal_emu.o(.text)
    SetPitchRangeExtensionEnabled            0x0802805f   Thumb Code   132  test_payload_gimbal_emu.o(.text)
    SetControllerSmoothFactor                0x080280e3   Thumb Code   164  test_payload_gimbal_emu.o(.text)
    StartCalibrate                           0x08028187   Thumb Code   180  test_payload_gimbal_emu.o(.text)
    GduTest_GimbalSpeedLegalization          0x0802823b   Thumb Code   464  test_payload_gimbal_emu.o(.text)
    GduTest_GimbalCalculateSpeed             0x0802840b   Thumb Code   330  test_payload_gimbal_emu.o(.text)
    GetJointAngle                            0x08028b21   Thumb Code   138  test_payload_gimbal_emu.o(.text)
    GetRotationSpeed                         0x08028bab   Thumb Code   116  test_payload_gimbal_emu.o(.text)
    GetCalibrationState                      0x08028c1f   Thumb Code   108  test_payload_gimbal_emu.o(.text)
    GetAttitudeInformation                   0x08028c8b   Thumb Code   342  test_payload_gimbal_emu.o(.text)
    GetSystemState                           0x08028de1   Thumb Code   114  test_payload_gimbal_emu.o(.text)
    .text                                    0x0802925c   Section        0  test_positioning.o(.text)
    GduTest_PositioningTask                  0x0802925d   Thumb Code   620  test_positioning.o(.text)
    .text                                    0x080297a0   Section        0  test_time_sync.o(.text)
    GduTest_TimeSyncTask                     0x080297e7   Thumb Code   258  test_time_sync.o(.text)
    .text                                    0x08029c24   Section        0  util_md5.o(.text)
    .text                                    0x0802a7f8   Section        0  test_power_management.o(.text)
    GduTest_PowerOffNotificationCallback     0x0802a981   Thumb Code    30  test_power_management.o(.text)
    .text                                    0x0802abc4   Section        0  test_widget.o(.text)
    GduTest_WidgetTask                       0x0802abc5   Thumb Code   134  test_widget.o(.text)
    GduTestWidget_SetWidgetValue             0x0802ad73   Thumb Code    58  test_widget.o(.text)
    GduTestWidget_GetWidgetValue             0x0802adad   Thumb Code    24  test_widget.o(.text)
    .text                                    0x0802af5c   Section        0  test_upgrade.o(.text)
    GduTest_EnterUpgradeModeProcessTask      0x0802af5d   Thumb Code    86  test_upgrade.o(.text)
    GduTest_UpgradeProcessTask               0x0802afb3   Thumb Code   334  test_upgrade.o(.text)
    GduTest_EnterUpgradeMode                 0x0802b2ef   Thumb Code    18  test_upgrade.o(.text)
    GduTest_CheckFirmware                    0x0802b301   Thumb Code     6  test_upgrade.o(.text)
    GduTest_StartUpgrade                     0x0802b307   Thumb Code    40  test_upgrade.o(.text)
    GduTest_FinishUpgrade                    0x0802b32f   Thumb Code   682  test_upgrade.o(.text)
    .text                                    0x0802b5d8   Section        0  test_upgrade_common_file_transfer.o(.text)
    GduTestFile_GetUpgradeFileMd5            0x0802b6b7   Thumb Code   232  test_upgrade_common_file_transfer.o(.text)
    .text                                    0x0802b970   Section        0  test_upgrade_platform_opt.o(.text)
    .text                                    0x0802bd58   Section        0  gdu_aircraft_info.o(.text)
    .text                                    0x0802bd78   Section        0  gdu_core.o(.text)
    Glink_sendToBuffer                       0x0802bd79   Thumb Code   254  gdu_core.o(.text)
    glink_m_psdk_psdk_payloadid_report_encode 0x0802be77   Thumb Code   166  gdu_core.o(.text)
    GduCore_RunTask                          0x0802bfdb   Thumb Code    32  gdu_core.o(.text)
    GduCore_Init_FunList                     0x0802bffb   Thumb Code    88  gdu_core.o(.text)
    GduCore_Select_FunList                   0x0802c053   Thumb Code    72  gdu_core.o(.text)
    .text                                    0x0802c4d8   Section        0  gdu_gimbal.o(.text)
    speedRotationCtrlMode                    0x0802c5d5   Thumb Code   146  gdu_gimbal.o(.text)
    GduGimbal_PTZ_CtrlCmd                    0x0802c667   Thumb Code   296  gdu_gimbal.o(.text)
    GduGimbal_PTZ_AngleCtrl                  0x0802c78f   Thumb Code   130  gdu_gimbal.o(.text)
    GduGimbal_PTZ_Calibration                0x0802c811   Thumb Code    92  gdu_gimbal.o(.text)
    GduPayloadGimbal_MsgReceiveProcess       0x0802c86d   Thumb Code   190  gdu_gimbal.o(.text)
    .text                                    0x0802c970   Section        0  gdu_logger.o(.text)
    Gdu_LoggerBasePublicPort                 0x0802c9fd   Thumb Code   180  gdu_logger.o(.text)
    .text                                    0x0802cba4   Section        0  gdu_payload_camera.o(.text)
    Glink_sendToBuffer                       0x0802cba5   Thumb Code   254  gdu_payload_camera.o(.text)
    Glink_finalizeMsg                        0x0802cca3   Thumb Code    28  gdu_payload_camera.o(.text)
    Glink_swapSysAndCmp                      0x0802ccbf   Thumb Code    42  gdu_payload_camera.o(.text)
    GduCam_SendData                          0x0802cce9   Thumb Code    30  gdu_payload_camera.o(.text)
    GduPayloadCameraSDStatus                 0x0802cd07   Thumb Code   164  gdu_payload_camera.o(.text)
    GduPayloadCameraStatus                   0x0802cdab   Thumb Code   214  gdu_payload_camera.o(.text)
    GduPayloadCameraStateUp                  0x0802ce81   Thumb Code   130  gdu_payload_camera.o(.text)
    GduPayloadCamera_Task                    0x0802cf77   Thumb Code    90  gdu_payload_camera.o(.text)
    GduPayloadCamera_MsgReceiveProcess       0x0802cfd1   Thumb Code   162  gdu_payload_camera.o(.text)
    GduCam_photoVideoStatus                  0x0802d89d   Thumb Code    84  gdu_payload_camera.o(.text)
    glink_m_pods_generality_vis_status_encode 0x0802e62b   Thumb Code   112  gdu_payload_camera.o(.text)
    glink_m_pods_generality_vis_get_param_ack_encode 0x0802e69b   Thumb Code   114  gdu_payload_camera.o(.text)
    glink_m_pods_generality_vis_take_pictures_param_ack_encode 0x0802e70d   Thumb Code   114  gdu_payload_camera.o(.text)
    glink_m_pods_generality_vis_specify_zoom_ack_encode 0x0802e77f   Thumb Code   114  gdu_payload_camera.o(.text)
    glink_m_pods_generality_vis_meteringmode_ack_encode 0x0802e7f1   Thumb Code   114  gdu_payload_camera.o(.text)
    glink_m_pods_generality_conzoom_ack_encode 0x0802e863   Thumb Code   128  gdu_payload_camera.o(.text)
    glink_m_pods_generality_take_photo_ack_encode 0x0802e8e3   Thumb Code   114  gdu_payload_camera.o(.text)
    glink_m_pods_generality_take_video_ack_encode 0x0802e955   Thumb Code   114  gdu_payload_camera.o(.text)
    glink_m_pods_generality_take_video_status_encode 0x0802e9c7   Thumb Code   128  gdu_payload_camera.o(.text)
    glink_m_pods_generality_tfcard_format_ack_encode 0x0802ea47   Thumb Code   114  gdu_payload_camera.o(.text)
    glink_m_pods_generality_camera_mode_ack_encode 0x0802eab9   Thumb Code   114  gdu_payload_camera.o(.text)
    glink_m_pods_generality_zoom_ack_encode  0x0802eb2b   Thumb Code   114  gdu_payload_camera.o(.text)
    glink_m_pods_generality_focus_ack_encode 0x0802eb9d   Thumb Code   114  gdu_payload_camera.o(.text)
    glink_m_pods_five_lenses_take_photo_status_encode 0x0802ec0f   Thumb Code   128  gdu_payload_camera.o(.text)
    glink_m_pods_ortho_lenses_take_video_status_encode 0x0802ec8f   Thumb Code   128  gdu_payload_camera.o(.text)
    glink_m_psdk_psdk_camera_basic_information_encode 0x0802ed0f   Thumb Code   112  gdu_payload_camera.o(.text)
    glink_m_psdk_psdk_sd_information_encode  0x0802ed7f   Thumb Code   112  gdu_payload_camera.o(.text)
    glink_m_psdk_psdk_photo_video_instruction_ack_encode 0x0802edef   Thumb Code   112  gdu_payload_camera.o(.text)
    glink_m_psdk_psdk_photo_video_instruction_status_encode 0x0802ee5f   Thumb Code   112  gdu_payload_camera.o(.text)
    glink_m_psdk_psdk_set_photo_parameter_ack_encode 0x0802eecf   Thumb Code   112  gdu_payload_camera.o(.text)
    .text                                    0x0802ef40   Section        0  gdu_platform.o(.text)
    .text                                    0x0802efe4   Section        0  gdu_positioning.o(.text)
    Glink_sendToBuffer                       0x0802efe5   Thumb Code   254  gdu_positioning.o(.text)
    Glink_finalizeMsg                        0x0802f0e3   Thumb Code    28  gdu_positioning.o(.text)
    Glink_swapSysAndCmp                      0x0802f0ff   Thumb Code    42  gdu_positioning.o(.text)
    GduPositioning_SendData                  0x0802f14b   Thumb Code    40  gdu_positioning.o(.text)
    GduPositioning_openPositioningInfo       0x0802f173   Thumb Code    82  gdu_positioning.o(.text)
    GduPayloadPositioning_posMsgHandle       0x0802f1c5   Thumb Code   304  gdu_positioning.o(.text)
    GduPayloadPositioning_MsgReceiveProcess  0x0802f2f5   Thumb Code    58  gdu_positioning.o(.text)
    sort                                     0x0802f32f   Thumb Code    66  gdu_positioning.o(.text)
    gduPositioning_savePositionAndPose       0x0802f371   Thumb Code  1330  gdu_positioning.o(.text)
    GduPositioning_reportPositionFlag        0x0802f8a9   Thumb Code   116  gdu_positioning.o(.text)
    GduPayloadPositioning_Task               0x0802f91d   Thumb Code   156  gdu_positioning.o(.text)
    dichotomy                                0x0802fa73   Thumb Code   240  gdu_positioning.o(.text)
    glink_m_aircraft_fc_realtime_location_report_encode 0x08030379   Thumb Code   108  gdu_positioning.o(.text)
    glink_m_psdk_psdk_payload2_report_encode 0x080303e5   Thumb Code   110  gdu_positioning.o(.text)
    .text                                    0x08030490   Section        0  gdu_power_management.o(.text)
    .text                                    0x080304c4   Section        0  gdu_subscribeinfo.o(.text)
    subscribeMsg                             0x080304cb   Thumb Code   168  gdu_subscribeinfo.o(.text)
    savePostioningInfo                       0x08030573   Thumb Code   614  gdu_subscribeinfo.o(.text)
    subscribeMsgSend                         0x080307d9   Thumb Code  1180  gdu_subscribeinfo.o(.text)
    GduPayloadSubscribe_Task                 0x08030c75   Thumb Code   146  gdu_subscribeinfo.o(.text)
    GduPayloadSubscribe_MsgReceiveProcess    0x08030d07   Thumb Code   160  gdu_subscribeinfo.o(.text)
    aircraft_fc_basic_state_1_Handle         0x08030ec5   Thumb Code   216  gdu_subscribeinfo.o(.text)
    aircraft_fc_basic_state_2_Handle         0x08030f9d   Thumb Code   110  gdu_subscribeinfo.o(.text)
    aircraft_fc_attitudeinfo_Handle          0x0803100b   Thumb Code   110  gdu_subscribeinfo.o(.text)
    aircraft_fc_speedinfo_Handle             0x08031079   Thumb Code   110  gdu_subscribeinfo.o(.text)
    aircraft_fc_gnssinfo_Handle              0x080310e7   Thumb Code   112  gdu_subscribeinfo.o(.text)
    aircraft_fc_timeSync_Handle              0x08031157   Thumb Code   332  gdu_subscribeinfo.o(.text)
    aircraft_fc_batteryinfo_Handle           0x080312a3   Thumb Code   110  gdu_subscribeinfo.o(.text)
    .text                                    0x08031328   Section        0  gdu_upgrade.o(.text)
    Glink_sendToBuffer                       0x08031329   Thumb Code   254  gdu_upgrade.o(.text)
    Glink_finalizeMsg                        0x08031427   Thumb Code    28  gdu_upgrade.o(.text)
    Glink_swapSysAndCmp                      0x08031443   Thumb Code    42  gdu_upgrade.o(.text)
    glink_ftp_connect_ack_decode             0x0803146d   Thumb Code    74  gdu_upgrade.o(.text)
    glink_ftp_req_download_encode            0x080314b7   Thumb Code   178  gdu_upgrade.o(.text)
    glink_ftp_download_finish_decode         0x08031569   Thumb Code   220  gdu_upgrade.o(.text)
    glink_ftp_req_fileinfo_encode            0x08031645   Thumb Code   166  gdu_upgrade.o(.text)
    glink_ftp_download_file_ack_encode       0x080316eb   Thumb Code   168  gdu_upgrade.o(.text)
    glink_ftp_download_finish_ack_encode     0x08031793   Thumb Code   166  gdu_upgrade.o(.text)
    GduUpdate_SendData                       0x08031839   Thumb Code   224  gdu_upgrade.o(.text)
    GduUpgrade_Task                          0x0803200d   Thumb Code    24  gdu_upgrade.o(.text)
    GduUpgrade_MsgReceiveProcess             0x08032025   Thumb Code    44  gdu_upgrade.o(.text)
    glink_m_psdk_psdk_updata_report_encode   0x0803216b   Thumb Code   112  gdu_upgrade.o(.text)
    glink_m_psdk_psdk_updata_instruction_encode 0x080321db   Thumb Code   446  gdu_upgrade.o(.text)
    glink_ftp_req_fileinfo_ack_decode        0x08032399   Thumb Code   124  gdu_upgrade.o(.text)
    glink_ftp_connect_encode                 0x08032415   Thumb Code   166  gdu_upgrade.o(.text)
    .text                                    0x080324f0   Section        0  gdu_widget.o(.text)
    crc_calculate                            0x080324f1   Thumb Code    74  gdu_widget.o(.text)
    Glink_sendToBuffer                       0x0803253b   Thumb Code   182  gdu_widget.o(.text)
    Glink_finalizeMsg                        0x080325f1   Thumb Code    28  gdu_widget.o(.text)
    Glink_swapSysAndCmp                      0x0803260d   Thumb Code    42  gdu_widget.o(.text)
    GduCam_SendData                          0x08032637   Thumb Code    30  gdu_widget.o(.text)
    widgetShowDataSend                       0x08032655   Thumb Code    78  gdu_widget.o(.text)
    GduWidgetFileCRCCheck                    0x080326a3   Thumb Code    84  gdu_widget.o(.text)
    fileSinglePackUpload                     0x080326f7   Thumb Code   130  gdu_widget.o(.text)
    fileSpecifyPackUpload                    0x08032779   Thumb Code   298  gdu_widget.o(.text)
    filePackUpload                           0x080328a3   Thumb Code   198  gdu_widget.o(.text)
    GduWidgetFileUploadProcess               0x08032969   Thumb Code   402  gdu_widget.o(.text)
    GduWidget_Task                           0x08032afb   Thumb Code    38  gdu_widget.o(.text)
    GduWidget_MsgReceiveProcess              0x08032b21   Thumb Code   160  gdu_widget.o(.text)
    GduWidget_ReceiveCmd                     0x08032d7d   Thumb Code   332  gdu_widget.o(.text)
    GduWidget_StatusRequestProcessCmd        0x08032ec9   Thumb Code   384  gdu_widget.o(.text)
    fileName                                 0x08033049   Thumb Code    50  gdu_widget.o(.text)
    GduWidget_RequestDownloadFile            0x0803307b   Thumb Code   518  gdu_widget.o(.text)
    glink_m_psdk_psdk_custom_window_report_encode 0x08033281   Thumb Code   176  gdu_widget.o(.text)
    glink_m_psdk_psdk_update_custom_list_ack_encode 0x08033331   Thumb Code   112  gdu_widget.o(.text)
    glink_m_psdk_psdk_update_custom_list_report_encode 0x080333a1   Thumb Code   112  gdu_widget.o(.text)
    glink_m_psdk_psdk_custom_control_ack_encode 0x08033411   Thumb Code   112  gdu_widget.o(.text)
    glink_m_psdk_psdk_get_control_status_ack_encode 0x08033481   Thumb Code   132  gdu_widget.o(.text)
    .text                                    0x08033504   Section        0  time_sync.o(.text)
    GduTimeSync_rtkData_handle               0x08033571   Thumb Code   554  time_sync.o(.text)
    GduPayloadTimeSync_MsgReceiveProcess     0x0803379b   Thumb Code    54  time_sync.o(.text)
    GduPayloadTimeSync_Task                  0x080337d1   Thumb Code   154  time_sync.o(.text)
    .text                                    0x08033b08   Section        0  gdu_flight_controller.o(.text)
    Glink_sendToBuffer                       0x08033b09   Thumb Code   254  gdu_flight_controller.o(.text)
    Glink_finalizeMsg                        0x08033c07   Thumb Code    28  gdu_flight_controller.o(.text)
    Glink_swapSysAndCmp                      0x08033c23   Thumb Code    42  gdu_flight_controller.o(.text)
    glink_m_aircraft_fc_set_return_encode2   0x08033c4d   Thumb Code    44  gdu_flight_controller.o(.text)
    glink_m_aircraft_fc_exit_autoflight_encode2 0x08033c79   Thumb Code    44  gdu_flight_controller.o(.text)
    glink_m_aircraft_visual_avoidance_encode2 0x08033ca5   Thumb Code    44  gdu_flight_controller.o(.text)
    GduFlightController_SendData             0x08033cd1   Thumb Code    40  gdu_flight_controller.o(.text)
    aircraft_visualAvoidance_Horizontal_switch_set 0x08033cf9   Thumb Code   190  gdu_flight_controller.o(.text)
    aircraft_visual_avoidingobstaclesenable  0x08033db7   Thumb Code   140  gdu_flight_controller.o(.text)
    aircraft_visual_avoidingAllDirect        0x08033e43   Thumb Code   140  gdu_flight_controller.o(.text)
    GduFlightController_ApiTest              0x08034305   Thumb Code   104  gdu_flight_controller.o(.text)
    GduFlightController_subscribeTOFAvoidanceStateInfo 0x0803436d   Thumb Code    20  gdu_flight_controller.o(.text)
    GduFlightController_Task                 0x08034381   Thumb Code    54  gdu_flight_controller.o(.text)
    GduFlightController_getObstacleAvoidanceSubDirectStateCallBack 0x080343b7   Thumb Code   158  gdu_flight_controller.o(.text)
    GduFlightController_getLostActionCallBack 0x08034455   Thumb Code   150  gdu_flight_controller.o(.text)
    GduFlightController_radarAvoidanceStateReport 0x080344eb   Thumb Code   158  gdu_flight_controller.o(.text)
    GduFlightController_getReturnInfo        0x08034589   Thumb Code   162  gdu_flight_controller.o(.text)
    GduFlightController_takeOffCallBack      0x0803462b   Thumb Code   482  gdu_flight_controller.o(.text)
    GduFlightController_landingCallBack      0x0803480d   Thumb Code   146  gdu_flight_controller.o(.text)
    GduFlightController_MsgReceiveProcess    0x0803489f   Thumb Code   100  gdu_flight_controller.o(.text)
    GduFlightController_getSubDirAvoidanceState 0x08034903   Thumb Code    88  gdu_flight_controller.o(.text)
    GduFlightController_getLostAction        0x0803495b   Thumb Code    86  gdu_flight_controller.o(.text)
    GduFlightController_getReturnMsg         0x080349b1   Thumb Code    86  gdu_flight_controller.o(.text)
    aircraft_visualAvoidance_upward_switch_set 0x08034abb   Thumb Code   194  gdu_flight_controller.o(.text)
    aircraft_visualAvoidance_downward_switch_set 0x08034b7d   Thumb Code   194  gdu_flight_controller.o(.text)
    glink_m_aircraft_fc_takeoff_auto_encode  0x080353cd   Thumb Code   110  gdu_flight_controller.o(.text)
    glink_m_aircraft_fc_landing_auto_encode  0x0803543b   Thumb Code   116  gdu_flight_controller.o(.text)
    glink_m_aircraft_fc_return_auto_encode   0x080354af   Thumb Code   100  gdu_flight_controller.o(.text)
    glink_m_aircraft_fc_set_return_encode    0x08035513   Thumb Code   124  gdu_flight_controller.o(.text)
    glink_m_aircraft_fc_get_return_encode    0x0803558f   Thumb Code   100  gdu_flight_controller.o(.text)
    glink_m_aircraft_fc_set_returnhei_encode 0x080355f3   Thumb Code   110  gdu_flight_controller.o(.text)
    glink_m_aircraft_fc_exit_autoflight_encode 0x08035661   Thumb Code   100  gdu_flight_controller.o(.text)
    glink_m_aircraft_fc_locr_time_encode     0x080356c5   Thumb Code   206  gdu_flight_controller.o(.text)
    glink_m_aircraft_fc_get_function_encode  0x08035793   Thumb Code   100  gdu_flight_controller.o(.text)
    glink_m_aircraft_fc_emergency_hover_encode 0x080357f7   Thumb Code   108  gdu_flight_controller.o(.text)
    glink_m_aircraft_visual_ooa_encode       0x08035863   Thumb Code   110  gdu_flight_controller.o(.text)
    glink_m_aircraft_visual_avoidingobstaclesenable_encode 0x080358d1   Thumb Code   110  gdu_flight_controller.o(.text)
    glink_m_aircraft_visual_avoidance_encode 0x0803593f   Thumb Code   112  gdu_flight_controller.o(.text)
    glink_m_aircraft_visual_get_avoidance_encode 0x080359af   Thumb Code   102  gdu_flight_controller.o(.text)
    .text                                    0x08035a14   Section        0  basemsghandle.o(.text)
    Glink_sendToBuffer                       0x08035a15   Thumb Code   254  basemsghandle.o(.text)
    Glink_finalizeMsg                        0x08035b13   Thumb Code    28  basemsghandle.o(.text)
    Glink_swapSysAndCmp                      0x08035b2f   Thumb Code    42  basemsghandle.o(.text)
    baseMsg_SendData                         0x08035b7d   Thumb Code    40  basemsghandle.o(.text)
    GduPayloadBaseMsg_MsgReceiveProcess      0x08035d3b   Thumb Code    90  basemsghandle.o(.text)
    glink_m_aircraft_psdk_component_assign_component_id_encode 0x08035db3   Thumb Code   112  basemsghandle.o(.text)
    glink_m_mobileterminal_app_get_app_infor_encode 0x08035e23   Thumb Code   102  basemsghandle.o(.text)
    .text                                    0x08035f08   Section        0  gdu_serial.o(.text)
    .text                                    0x080360ac   Section        0  npc.o(.text)
    crc_accumulate                           0x080360ad   Thumb Code    34  npc.o(.text)
    Glink_updateChecksum                     0x080360cf   Thumb Code    28  npc.o(.text)
    Glink_parseChar                          0x080360eb   Thumb Code   520  npc.o(.text)
    Glink_sendToBuffer                       0x080362f3   Thumb Code   224  npc.o(.text)
    Glink_finalizeMsg                        0x080363d3   Thumb Code    28  npc.o(.text)
    Glink_swapSysAndCmp                      0x080363ef   Thumb Code    42  npc.o(.text)
    NpcLinkHandleConnectAck                  0x0803672b   Thumb Code    96  npc.o(.text)
    NpcLinkHandleHeartbeatAck                0x0803678b   Thumb Code    30  npc.o(.text)
    glink_np_connect_encode                  0x08036cdb   Thumb Code   120  npc.o(.text)
    glink_np_disconnect_encode               0x08036d53   Thumb Code   430  npc.o(.text)
    glink_np_subscribe_encode                0x08036f01   Thumb Code   122  npc.o(.text)
    glink_np_heartbeat_encode                0x08036f7b   Thumb Code   114  npc.o(.text)
    .text                                    0x08036fec   Section        0  gdu_cache.o(.text)
    .text                                    0x080370cc   Section        0  general_linked_list.o(.text)
    .text                                    0x08037222   Section        0  uldiv.o(.text)
    .text                                    0x08037284   Section        0  mktime.o(.text)
    .text                                    0x0803732c   Section        0  memcpya.o(.text)
    .text                                    0x08037350   Section        0  memseta.o(.text)
    .text                                    0x08037374   Section        0  strstr.o(.text)
    .text                                    0x08037398   Section        0  strncpy.o(.text)
    .text                                    0x080373b0   Section        0  strlen.o(.text)
    .text                                    0x080373be   Section        0  strcmp.o(.text)
    .text                                    0x080373da   Section        0  memcmp.o(.text)
    .text                                    0x080373f4   Section        0  strcpy.o(.text)
    .text                                    0x08037406   Section        0  strncmp.o(.text)
    .text                                    0x08037424   Section        0  atoi.o(.text)
    .text                                    0x0803743e   Section        0  dadd.o(.text)
    .text                                    0x0803758c   Section        0  dmul.o(.text)
    .text                                    0x08037670   Section        0  ddiv.o(.text)
    .text                                    0x0803774e   Section        0  dflti.o(.text)
    .text                                    0x08037770   Section        0  dfixi.o(.text)
    .text                                    0x080377ae   Section        0  f2d.o(.text)
    .text                                    0x080377d4   Section       48  cdrcmple.o(.text)
    .text                                    0x08037804   Section        0  uidiv.o(.text)
    .text                                    0x08037830   Section        0  llshl.o(.text)
    .text                                    0x0803784e   Section        0  llushr.o(.text)
    .text                                    0x0803786e   Section        0  llsshr.o(.text)
    .text                                    0x08037894   Section        0  localtime_w.o(.text)
    .text                                    0x080378a0   Section        0  localtime_i.o(.text)
    .text                                    0x0803792c   Section        0  strtol.o(.text)
    .text                                    0x0803799c   Section        0  iusefp.o(.text)
    .text                                    0x0803799c   Section        0  depilogue.o(.text)
    .text                                    0x08037a56   Section        0  dfixul.o(.text)
    .text                                    0x08037a88   Section       36  init.o(.text)
    .text                                    0x08037aac   Section        0  ctype_o.o(.text)
    .text                                    0x08037ab4   Section        0  _strtoul.o(.text)
    .text                                    0x08037b52   Section        0  _chval.o(.text)
    .text                                    0x08037b6e   Section        0  __dczerorl2.o(.text)
    i.__0printf                              0x08037bc4   Section        0  printfa.o(i.__0printf)
    i.__0snprintf                            0x08037be4   Section        0  printfa.o(i.__0snprintf)
    i.__0sprintf                             0x08037c14   Section        0  printfa.o(i.__0sprintf)
    i.__0vsprintf                            0x08037c3c   Section        0  printfa.o(i.__0vsprintf)
    i.__ARM_fpclassifyf                      0x08037c60   Section        0  fpclassifyf.o(i.__ARM_fpclassifyf)
    i.__aeabi_errno_addr                     0x08037c88   Section        0  errno.o(i.__aeabi_errno_addr)
    i.__hardfp_asinf                         0x08037c90   Section        0  asinf.o(i.__hardfp_asinf)
    i.__hardfp_atan2f                        0x08037dbc   Section        0  atan2f.o(i.__hardfp_atan2f)
    i.__mathlib_flt_infnan                   0x0803800c   Section        0  funder.o(i.__mathlib_flt_infnan)
    i.__mathlib_flt_infnan2                  0x08038012   Section        0  funder.o(i.__mathlib_flt_infnan2)
    i.__mathlib_flt_invalid                  0x08038018   Section        0  funder.o(i.__mathlib_flt_invalid)
    i.__mathlib_flt_underflow                0x08038028   Section        0  funder.o(i.__mathlib_flt_underflow)
    i.__scatterload_copy                     0x08038038   Section       14  handlers.o(i.__scatterload_copy)
    i.__scatterload_null                     0x08038046   Section        2  handlers.o(i.__scatterload_null)
    i.__scatterload_zeroinit                 0x08038048   Section       14  handlers.o(i.__scatterload_zeroinit)
    i.__set_errno                            0x08038058   Section        0  errno.o(i.__set_errno)
    i._fp_digits                             0x08038064   Section        0  printfa.o(i._fp_digits)
    _fp_digits                               0x08038065   Thumb Code   366  printfa.o(i._fp_digits)
    i._printf_core                           0x080381e8   Section        0  printfa.o(i._printf_core)
    _printf_core                             0x080381e9   Thumb Code  1744  printfa.o(i._printf_core)
    i._printf_post_padding                   0x080388c4   Section        0  printfa.o(i._printf_post_padding)
    _printf_post_padding                     0x080388c5   Thumb Code    36  printfa.o(i._printf_post_padding)
    i._printf_pre_padding                    0x080388e8   Section        0  printfa.o(i._printf_pre_padding)
    _printf_pre_padding                      0x080388e9   Thumb Code    46  printfa.o(i._printf_pre_padding)
    i._snputc                                0x08038916   Section        0  printfa.o(i._snputc)
    _snputc                                  0x08038917   Thumb Code    22  printfa.o(i._snputc)
    i._sputc                                 0x0803892c   Section        0  printfa.o(i._sputc)
    _sputc                                   0x0803892d   Thumb Code    10  printfa.o(i._sputc)
    i.free                                   0x08038938   Section        0  malloc.o(i.free)
    i.malloc                                 0x08038988   Section        0  malloc.o(i.malloc)
    i.sqrtf                                  0x080389f4   Section        0  sqrtf.o(i.sqrtf)
    .constdata                               0x08038a34   Section      221  application.o(.constdata)
    __FUNCTION__                             0x08038a34   Data          18  application.o(.constdata)
    __FUNCTION__                             0x08038ae6   Data          20  application.o(.constdata)
    __FUNCTION__                             0x08038afa   Data          23  application.o(.constdata)
    .constdata                               0x08038b12   Section        8  led.o(.constdata)
    .constdata                               0x08038b1a   Section       39  pps.o(.constdata)
    __FUNCTION__                             0x08038b1a   Data          39  pps.o(.constdata)
    .constdata                               0x08038b41   Section       24  system_stm32f4xx.o(.constdata)
    .constdata                               0x08038b5c   Section       28  usbh_core.o(.constdata)
    .constdata                               0x08038b78   Section       31  apply_high_power.o(.constdata)
    __FUNCTION__                             0x08038b78   Data          31  apply_high_power.o(.constdata)
    .constdata                               0x08038b97   Section        8  stm32f4xx_hal_dma.o(.constdata)
    flagBitshiftOffset                       0x08038b97   Data           8  stm32f4xx_hal_dma.o(.constdata)
    .constdata                               0x08038b9f   Section      721  test_payload_cam_emu_base.o(.constdata)
    __FUNCTION__                             0x08038b9f   Data          15  test_payload_cam_emu_base.o(.constdata)
    __FUNCTION__                             0x08038bae   Data           8  test_payload_cam_emu_base.o(.constdata)
    __FUNCTION__                             0x08038bb6   Data          17  test_payload_cam_emu_base.o(.constdata)
    __FUNCTION__                             0x08038bc7   Data          16  test_payload_cam_emu_base.o(.constdata)
    __FUNCTION__                             0x08038bd7   Data          16  test_payload_cam_emu_base.o(.constdata)
    __FUNCTION__                             0x08038be7   Data          15  test_payload_cam_emu_base.o(.constdata)
    __FUNCTION__                             0x08038bf6   Data          18  test_payload_cam_emu_base.o(.constdata)
    __FUNCTION__                             0x08038c08   Data          18  test_payload_cam_emu_base.o(.constdata)
    __FUNCTION__                             0x08038c1a   Data          19  test_payload_cam_emu_base.o(.constdata)
    __FUNCTION__                             0x08038c2d   Data          19  test_payload_cam_emu_base.o(.constdata)
    __FUNCTION__                             0x08038c40   Data          29  test_payload_cam_emu_base.o(.constdata)
    __FUNCTION__                             0x08038c5d   Data          29  test_payload_cam_emu_base.o(.constdata)
    __FUNCTION__                             0x08038c7a   Data          15  test_payload_cam_emu_base.o(.constdata)
    __FUNCTION__                             0x08038c89   Data          13  test_payload_cam_emu_base.o(.constdata)
    __FUNCTION__                             0x08038c96   Data          16  test_payload_cam_emu_base.o(.constdata)
    __FUNCTION__                             0x08038ca6   Data          22  test_payload_cam_emu_base.o(.constdata)
    __FUNCTION__                             0x08038cbc   Data          13  test_payload_cam_emu_base.o(.constdata)
    __FUNCTION__                             0x08038cc9   Data          15  test_payload_cam_emu_base.o(.constdata)
    __FUNCTION__                             0x08038cd8   Data          26  test_payload_cam_emu_base.o(.constdata)
    __FUNCTION__                             0x08038cf2   Data          18  test_payload_cam_emu_base.o(.constdata)
    __FUNCTION__                             0x08038d04   Data          21  test_payload_cam_emu_base.o(.constdata)
    __FUNCTION__                             0x08038d19   Data          26  test_payload_cam_emu_base.o(.constdata)
    __FUNCTION__                             0x08038d33   Data          26  test_payload_cam_emu_base.o(.constdata)
    __FUNCTION__                             0x08038d4d   Data          27  test_payload_cam_emu_base.o(.constdata)
    __FUNCTION__                             0x08038d68   Data          26  test_payload_cam_emu_base.o(.constdata)
    __FUNCTION__                             0x08038d82   Data          16  test_payload_cam_emu_base.o(.constdata)
    __FUNCTION__                             0x08038d92   Data          18  test_payload_cam_emu_base.o(.constdata)
    __FUNCTION__                             0x08038da4   Data          21  test_payload_cam_emu_base.o(.constdata)
    __FUNCTION__                             0x08038db9   Data          16  test_payload_cam_emu_base.o(.constdata)
    __FUNCTION__                             0x08038dc9   Data          25  test_payload_cam_emu_base.o(.constdata)
    __FUNCTION__                             0x08038de2   Data          16  test_payload_cam_emu_base.o(.constdata)
    __FUNCTION__                             0x08038df2   Data          34  test_payload_cam_emu_base.o(.constdata)
    __FUNCTION__                             0x08038e14   Data          35  test_payload_cam_emu_base.o(.constdata)
    __FUNCTION__                             0x08038e37   Data          35  test_payload_cam_emu_base.o(.constdata)
    __FUNCTION__                             0x08038e5a   Data          22  test_payload_cam_emu_base.o(.constdata)
    .constdata                               0x08038e70   Section      139  test_fc_subscription.o(.constdata)
    __FUNCTION__                             0x08038e70   Data          35  test_fc_subscription.o(.constdata)
    __FUNCTION__                             0x08038e93   Data          32  test_fc_subscription.o(.constdata)
    __FUNCTION__                             0x08038eb3   Data          24  test_fc_subscription.o(.constdata)
    __FUNCTION__                             0x08038ecb   Data          48  test_fc_subscription.o(.constdata)
    .constdata                               0x08038efb   Section      449  test_payload_gimbal_emu.o(.constdata)
    s_jointAngleLimitMin                     0x08038efb   Data          12  test_payload_gimbal_emu.o(.constdata)
    s_jointAngleLimitMax                     0x08038f07   Data          12  test_payload_gimbal_emu.o(.constdata)
    s_eulerAngleLimitMin                     0x08038f13   Data          12  test_payload_gimbal_emu.o(.constdata)
    s_eulerAngleLimitMax                     0x08038f1f   Data          12  test_payload_gimbal_emu.o(.constdata)
    s_speedLimit                             0x08038f2b   Data          12  test_payload_gimbal_emu.o(.constdata)
    __FUNCTION__                             0x08038f37   Data          27  test_payload_gimbal_emu.o(.constdata)
    __FUNCTION__                             0x08038f52   Data          21  test_payload_gimbal_emu.o(.constdata)
    __FUNCTION__                             0x08038f67   Data          21  test_payload_gimbal_emu.o(.constdata)
    __FUNCTION__                             0x08038f7c   Data          16  test_payload_gimbal_emu.o(.constdata)
    __FUNCTION__                             0x08038f8c   Data          15  test_payload_gimbal_emu.o(.constdata)
    __FUNCTION__                             0x08038f9b   Data          23  test_payload_gimbal_emu.o(.constdata)
    __FUNCTION__                             0x08038fb2   Data          20  test_payload_gimbal_emu.o(.constdata)
    __FUNCTION__                             0x08038fc6   Data          17  test_payload_gimbal_emu.o(.constdata)
    __FUNCTION__                             0x08038fd7   Data          14  test_payload_gimbal_emu.o(.constdata)
    __FUNCTION__                             0x08038fe5   Data          15  test_payload_gimbal_emu.o(.constdata)
    __FUNCTION__                             0x08038ff4   Data          26  test_payload_gimbal_emu.o(.constdata)
    __FUNCTION__                             0x0803900e   Data          30  test_payload_gimbal_emu.o(.constdata)
    __FUNCTION__                             0x0803902c   Data          32  test_payload_gimbal_emu.o(.constdata)
    __FUNCTION__                             0x0803904c   Data          23  test_payload_gimbal_emu.o(.constdata)
    __FUNCTION__                             0x08039063   Data           8  test_payload_gimbal_emu.o(.constdata)
    __FUNCTION__                             0x0803906b   Data           6  test_payload_gimbal_emu.o(.constdata)
    __FUNCTION__                             0x08039071   Data          14  test_payload_gimbal_emu.o(.constdata)
    __FUNCTION__                             0x0803907f   Data          32  test_payload_gimbal_emu.o(.constdata)
    __FUNCTION__                             0x0803909f   Data          29  test_payload_gimbal_emu.o(.constdata)
    .constdata                               0x080390bc   Section       56  test_positioning.o(.constdata)
    __FUNCTION__                             0x080390bc   Data          32  test_positioning.o(.constdata)
    __FUNCTION__                             0x080390dc   Data          24  test_positioning.o(.constdata)
    .constdata                               0x080390f4   Section      124  test_time_sync.o(.constdata)
    __FUNCTION__                             0x080390f4   Data          27  test_time_sync.o(.constdata)
    __FUNCTION__                             0x0803910f   Data          29  test_time_sync.o(.constdata)
    __FUNCTION__                             0x0803912c   Data          47  test_time_sync.o(.constdata)
    __FUNCTION__                             0x0803915b   Data          21  test_time_sync.o(.constdata)
    .constdata                               0x08039170   Section      106  test_power_management.o(.constdata)
    __FUNCTION__                             0x08039170   Data          33  test_power_management.o(.constdata)
    __FUNCTION__                             0x08039191   Data          36  test_power_management.o(.constdata)
    __FUNCTION__                             0x080391b5   Data          37  test_power_management.o(.constdata)
    .constdata                               0x080391da   Section    20977  file_binary_array_list_en.o(.constdata)
    icon_button1_png_fileBinaryArray         0x080391da   Data        2137  file_binary_array_list_en.o(.constdata)
    icon_button2_png_fileBinaryArray         0x08039a33   Data        2114  file_binary_array_list_en.o(.constdata)
    icon_list_item1_png_fileBinaryArray      0x0803a275   Data        2556  file_binary_array_list_en.o(.constdata)
    icon_list_item2_png_fileBinaryArray      0x0803ac71   Data        2578  file_binary_array_list_en.o(.constdata)
    icon_scale_png_fileBinaryArray           0x0803b683   Data        2440  file_binary_array_list_en.o(.constdata)
    icon_switch_select_png_fileBinaryArray   0x0803c00b   Data        2529  file_binary_array_list_en.o(.constdata)
    icon_switch_unselect_png_fileBinaryArray 0x0803c9ec   Data        2514  file_binary_array_list_en.o(.constdata)
    widget_config_json_fileBinaryArray       0x0803d3be   Data        4109  file_binary_array_list_en.o(.constdata)
    .constdata                               0x0803e3cc   Section      275  test_widget.o(.constdata)
    s_widgetHandlerList                      0x0803e3cc   Data         200  test_widget.o(.constdata)
    __FUNCTION__                             0x0803e494   Data          27  test_widget.o(.constdata)
    __FUNCTION__                             0x0803e4af   Data          19  test_widget.o(.constdata)
    __FUNCTION__                             0x0803e4c2   Data          29  test_widget.o(.constdata)
    .constdata                               0x0803e4e0   Section      127  test_upgrade.o(.constdata)
    __FUNCTION__                             0x0803e4e0   Data          28  test_upgrade.o(.constdata)
    __FUNCTION__                             0x0803e520   Data          36  test_upgrade.o(.constdata)
    __FUNCTION__                             0x0803e544   Data          27  test_upgrade.o(.constdata)
    .constdata                               0x0803e55f   Section      130  test_upgrade_common_file_transfer.o(.constdata)
    __FUNCTION__                             0x0803e55f   Data          32  test_upgrade_common_file_transfer.o(.constdata)
    __FUNCTION__                             0x0803e57f   Data          35  test_upgrade_common_file_transfer.o(.constdata)
    __FUNCTION__                             0x0803e5a2   Data          33  test_upgrade_common_file_transfer.o(.constdata)
    __FUNCTION__                             0x0803e5c3   Data          30  test_upgrade_common_file_transfer.o(.constdata)
    .constdata                               0x0803e5e1   Section       30  test_upgrade_platform_opt.o(.constdata)
    __FUNCTION__                             0x0803e5e1   Data          30  test_upgrade_platform_opt.o(.constdata)
    .constdata                               0x0803e5ff   Section       77  gdu_core.o(.constdata)
    __FUNCTION__                             0x0803e5ff   Data          13  gdu_core.o(.constdata)
    __FUNCTION__                             0x0803e60c   Data          21  gdu_core.o(.constdata)
    __FUNCTION__                             0x0803e621   Data          20  gdu_core.o(.constdata)
    __FUNCTION__                             0x0803e635   Data          23  gdu_core.o(.constdata)
    .constdata                               0x0803e64c   Section       42  gdu_gimbal.o(.constdata)
    __FUNCTION__                             0x0803e64c   Data          27  gdu_gimbal.o(.constdata)
    __FUNCTION__                             0x0803e667   Data          15  gdu_gimbal.o(.constdata)
    .constdata                               0x0803e678   Section       16  gdu_logger.o(.constdata)
    .constdata                               0x0803e688   Section      306  gdu_payload_camera.o(.constdata)
    __FUNCTION__                             0x0803e688   Data          22  gdu_payload_camera.o(.constdata)
    __FUNCTION__                             0x0803e69e   Data          34  gdu_payload_camera.o(.constdata)
    __FUNCTION__                             0x0803e6c0   Data          44  gdu_payload_camera.o(.constdata)
    __FUNCTION__                             0x0803e6ec   Data          33  gdu_payload_camera.o(.constdata)
    __FUNCTION__                             0x0803e70d   Data          39  gdu_payload_camera.o(.constdata)
    __FUNCTION__                             0x0803e734   Data          39  gdu_payload_camera.o(.constdata)
    __FUNCTION__                             0x0803e75b   Data          35  gdu_payload_camera.o(.constdata)
    __FUNCTION__                             0x0803e77e   Data          16  gdu_payload_camera.o(.constdata)
    __FUNCTION__                             0x0803e78e   Data          15  gdu_payload_camera.o(.constdata)
    __FUNCTION__                             0x0803e79d   Data          11  gdu_payload_camera.o(.constdata)
    __FUNCTION__                             0x0803e7a8   Data          18  gdu_payload_camera.o(.constdata)
    .constdata                               0x0803e7ba   Section      132  gdu_positioning.o(.constdata)
    __FUNCTION__                             0x0803e7ba   Data          35  gdu_positioning.o(.constdata)
    __FUNCTION__                             0x0803e7dd   Data          35  gdu_positioning.o(.constdata)
    __FUNCTION__                             0x0803e800   Data          20  gdu_positioning.o(.constdata)
    __FUNCTION__                             0x0803e814   Data          42  gdu_positioning.o(.constdata)
    .constdata                               0x0803e83e   Section       77  gdu_subscribeinfo.o(.constdata)
    __FUNCTION__                             0x0803e83e   Data          19  gdu_subscribeinfo.o(.constdata)
    __FUNCTION__                             0x0803e851   Data          33  gdu_subscribeinfo.o(.constdata)
    __FUNCTION__                             0x0803e872   Data          25  gdu_subscribeinfo.o(.constdata)
    .constdata                               0x0803e88b   Section      158  gdu_upgrade.o(.constdata)
    __FUNCTION__                             0x0803e88b   Data          22  gdu_upgrade.o(.constdata)
    __FUNCTION__                             0x0803e8a1   Data          23  gdu_upgrade.o(.constdata)
    __FUNCTION__                             0x0803e8b8   Data          23  gdu_upgrade.o(.constdata)
    __FUNCTION__                             0x0803e8cf   Data          22  gdu_upgrade.o(.constdata)
    __FUNCTION__                             0x0803e8e5   Data          24  gdu_upgrade.o(.constdata)
    __FUNCTION__                             0x0803e8fd   Data          16  gdu_upgrade.o(.constdata)
    __FUNCTION__                             0x0803e90d   Data          28  gdu_upgrade.o(.constdata)
    .constdata                               0x0803e929   Section       68  time_sync.o(.constdata)
    __FUNCTION__                             0x0803e929   Data          27  time_sync.o(.constdata)
    __FUNCTION__                             0x0803e944   Data          24  time_sync.o(.constdata)
    __FUNCTION__                             0x0803e95c   Data          17  time_sync.o(.constdata)
    .constdata                               0x0803e96d   Section     1128  gdu_flight_controller.o(.constdata)
    __FUNCTION__                             0x0803e96d   Data          28  gdu_flight_controller.o(.constdata)
    __FUNCTION__                             0x0803e989   Data          63  gdu_flight_controller.o(.constdata)
    __FUNCTION__                             0x0803e9c8   Data          42  gdu_flight_controller.o(.constdata)
    __FUNCTION__                             0x0803e9f2   Data          46  gdu_flight_controller.o(.constdata)
    __FUNCTION__                             0x0803ea20   Data          34  gdu_flight_controller.o(.constdata)
    __FUNCTION__                             0x0803ea42   Data          36  gdu_flight_controller.o(.constdata)
    __FUNCTION__                             0x0803ea66   Data          36  gdu_flight_controller.o(.constdata)
    __FUNCTION__                             0x0803ea8a   Data          25  gdu_flight_controller.o(.constdata)
    __FUNCTION__                             0x0803eaa3   Data          36  gdu_flight_controller.o(.constdata)
    __FUNCTION__                             0x0803eac7   Data          47  gdu_flight_controller.o(.constdata)
    __FUNCTION__                             0x0803eaf6   Data          43  gdu_flight_controller.o(.constdata)
    __FUNCTION__                             0x0803eb21   Data          45  gdu_flight_controller.o(.constdata)
    __FUNCTION__                             0x0803eb4e   Data          40  gdu_flight_controller.o(.constdata)
    __FUNCTION__                             0x0803eb76   Data          34  gdu_flight_controller.o(.constdata)
    __FUNCTION__                             0x0803eb98   Data          69  gdu_flight_controller.o(.constdata)
    __FUNCTION__                             0x0803ebdd   Data          66  gdu_flight_controller.o(.constdata)
    __FUNCTION__                             0x0803ec1f   Data          68  gdu_flight_controller.o(.constdata)
    __FUNCTION__                             0x0803ec63   Data          33  gdu_flight_controller.o(.constdata)
    __FUNCTION__                             0x0803ec84   Data          33  gdu_flight_controller.o(.constdata)
    __FUNCTION__                             0x0803eca5   Data          34  gdu_flight_controller.o(.constdata)
    __FUNCTION__                             0x0803ecc7   Data          55  gdu_flight_controller.o(.constdata)
    __FUNCTION__                             0x0803ecfe   Data          64  gdu_flight_controller.o(.constdata)
    __FUNCTION__                             0x0803ed3e   Data          38  gdu_flight_controller.o(.constdata)
    __FUNCTION__                             0x0803ed64   Data          32  gdu_flight_controller.o(.constdata)
    __FUNCTION__                             0x0803ed84   Data          33  gdu_flight_controller.o(.constdata)
    __FUNCTION__                             0x0803eda5   Data          48  gdu_flight_controller.o(.constdata)
    .constdata                               0x0803edd5   Section       47  basemsghandle.o(.constdata)
    __FUNCTION__                             0x0803edd5   Data          24  basemsghandle.o(.constdata)
    __FUNCTION__                             0x0803eded   Data          23  basemsghandle.o(.constdata)
    .constdata                               0x0803ee04   Section       46  gdu_serial.o(.constdata)
    __FUNCTION__                             0x0803ee04   Data          15  gdu_serial.o(.constdata)
    __FUNCTION__                             0x0803ee13   Data          15  gdu_serial.o(.constdata)
    __FUNCTION__                             0x0803ee22   Data          16  gdu_serial.o(.constdata)
    .constdata                               0x0803ee32   Section       62  npc.o(.constdata)
    __FUNCTION__                             0x0803ee32   Data          18  npc.o(.constdata)
    __FUNCTION__                             0x0803ee44   Data          15  npc.o(.constdata)
    __FUNCTION__                             0x0803ee53   Data          20  npc.o(.constdata)
    __FUNCTION__                             0x0803ee67   Data           9  npc.o(.constdata)
    .constdata                               0x0803ee70   Section       12  mktime.o(.constdata)
    monlen                                   0x0803ee70   Data          12  mktime.o(.constdata)
    .constdata                               0x0803ee7c   Section       12  localtime_i.o(.constdata)
    monlen                                   0x0803ee7c   Data          12  localtime_i.o(.constdata)
    .constdata                               0x0803ee88   Section      129  ctype_o.o(.constdata)
    .constdata                               0x0803ef0c   Section        4  ctype_o.o(.constdata)
    table                                    0x0803ef0c   Data           4  ctype_o.o(.constdata)
    .conststring                             0x0803ef10   Section      221  application.o(.conststring)
    .conststring                             0x0803eff0   Section       77  usbh_cdc.o(.conststring)
    .conststring                             0x0803f040   Section       78  usbh_core.o(.conststring)
    .conststring                             0x0803f090   Section      282  test_payload_cam_emu_base.o(.conststring)
    .conststring                             0x0803f1ac   Section      370  test_fc_subscription.o(.conststring)
    .conststring                             0x0803f320   Section      275  test_payload_gimbal_emu.o(.conststring)
    .conststring                             0x0803f434   Section       73  test_positioning.o(.conststring)
    .conststring                             0x0803f480   Section      299  test_time_sync.o(.conststring)
    .conststring                             0x0803f5ac   Section      167  file_binary_array_list_en.o(.conststring)
    .conststring                             0x0803f654   Section      206  test_widget.o(.conststring)
    .conststring                             0x0803f724   Section       66  test_upgrade.o(.conststring)
    .conststring                             0x0803f768   Section       65  test_upgrade_common_file_transfer.o(.conststring)
    .conststring                             0x0803f7ac   Section       30  gdu_logger.o(.conststring)
    .conststring                             0x0803f7cc   Section       66  gdu_payload_camera.o(.conststring)
    .conststring                             0x0803f810   Section       75  gdu_positioning.o(.conststring)
    .conststring                             0x0803f85c   Section      145  gdu_flight_controller.o(.conststring)
    .data                                    0x20000000   Section        4  application.o(.data)
    runIndicateTaskStep                      0x20000000   Data           4  application.o(.data)
    .data                                    0x20000004   Section        8  main.o(.data)
    startTask                                0x20000004   Data           4  main.o(.data)
    runIndicateTask                          0x20000008   Data           4  main.o(.data)
    .data                                    0x2000000c   Section       16  led.o(.data)
    .data                                    0x20000020   Section       12  pps.o(.data)
    s_ppsNewestTriggerLocalTimeMs            0x20000020   Data           8  pps.o(.data)
    counter                                  0x20000028   Data           4  pps.o(.data)
    .data                                    0x2000002c   Section        4  stm32f4xx_it.o(.data)
    .data                                    0x20000030   Section        4  system_stm32f4xx.o(.data)
    .data                                    0x20000034   Section       80  uart.o(.data)
    s_uart1ReadBufferState                   0x20000034   Data           8  uart.o(.data)
    s_uart1WriteBufferState                  0x2000003c   Data           8  uart.o(.data)
    s_uart1Mutex                             0x20000044   Data           4  uart.o(.data)
    s_uart2ReadBufferState                   0x20000048   Data           8  uart.o(.data)
    s_uart2WriteBufferState                  0x20000050   Data           8  uart.o(.data)
    s_uart2Mutex                             0x20000058   Data           4  uart.o(.data)
    s_uart3ReadBufferState                   0x2000005c   Data           8  uart.o(.data)
    s_uart3WriteBufferState                  0x20000064   Data           8  uart.o(.data)
    s_uart3Mutex                             0x2000006c   Data           4  uart.o(.data)
    s_uart6ReadBufferState                   0x20000070   Data           8  uart.o(.data)
    s_uart6WriteBufferState                  0x20000078   Data           8  uart.o(.data)
    s_uart6Mutex                             0x20000080   Data           4  uart.o(.data)
    .data                                    0x20000084   Section       40  usbh_cdc.o(.data)
    .data                                    0x200000ac   Section        9  stm32f4xx_hal.o(.data)
    .data                                    0x200000b8   Section       32  heap_4.o(.data)
    xStart                                   0x200000b8   Data           8  heap_4.o(.data)
    pxEnd                                    0x200000c0   Data           4  heap_4.o(.data)
    xFreeBytesRemaining                      0x200000c4   Data           4  heap_4.o(.data)
    xMinimumEverFreeBytesRemaining           0x200000c8   Data           4  heap_4.o(.data)
    xNumberOfSuccessfulAllocations           0x200000cc   Data           4  heap_4.o(.data)
    xNumberOfSuccessfulFrees                 0x200000d0   Data           4  heap_4.o(.data)
    xBlockAllocatedBit                       0x200000d4   Data           4  heap_4.o(.data)
    .data                                    0x200000d8   Section       12  port.o(.data)
    uxCriticalNesting                        0x200000d8   Data           4  port.o(.data)
    ucMaxSysCallPriority                     0x200000dc   Data           1  port.o(.data)
    ulMaxPRIGROUPValue                       0x200000e0   Data           4  port.o(.data)
    .data                                    0x200000e4   Section       60  tasks.o(.data)
    pxDelayedTaskList                        0x200000e8   Data           4  tasks.o(.data)
    pxOverflowDelayedTaskList                0x200000ec   Data           4  tasks.o(.data)
    uxDeletedTasksWaitingCleanUp             0x200000f0   Data           4  tasks.o(.data)
    uxCurrentNumberOfTasks                   0x200000f4   Data           4  tasks.o(.data)
    xTickCount                               0x200000f8   Data           4  tasks.o(.data)
    uxTopReadyPriority                       0x200000fc   Data           4  tasks.o(.data)
    xSchedulerRunning                        0x20000100   Data           4  tasks.o(.data)
    xPendedTicks                             0x20000104   Data           4  tasks.o(.data)
    xYieldPending                            0x20000108   Data           4  tasks.o(.data)
    xNumOfOverflows                          0x2000010c   Data           4  tasks.o(.data)
    uxTaskNumber                             0x20000110   Data           4  tasks.o(.data)
    xNextTaskUnblockTime                     0x20000114   Data           4  tasks.o(.data)
    xIdleTaskHandle                          0x20000118   Data           4  tasks.o(.data)
    uxSchedulerSuspended                     0x2000011c   Data           4  tasks.o(.data)
    .data                                    0x20000120   Section       96  test_payload_cam_emu_base.o(.data)
    s_isCamInited                            0x20000120   Data           1  test_payload_cam_emu_base.o(.data)
    s_digitalZoomHandler                     0x20000124   Data           8  test_payload_cam_emu_base.o(.data)
    s_userCameraThread                       0x2000012c   Data           4  test_payload_cam_emu_base.o(.data)
    s_cameraShootPhotoMode                   0x20000130   Data           1  test_payload_cam_emu_base.o(.data)
    s_cameraBurstCount                       0x20000131   Data           1  test_payload_cam_emu_base.o(.data)
    s_cameraPhotoTimeIntervalSettings        0x20000132   Data           4  test_payload_cam_emu_base.o(.data)
    s_commonMutex                            0x20000138   Data           4  test_payload_cam_emu_base.o(.data)
    s_cameraMeteringMode                     0x2000013c   Data           1  test_payload_cam_emu_base.o(.data)
    s_cameraSpotMeteringTarget               0x2000013d   Data           2  test_payload_cam_emu_base.o(.data)
    s_cameraFocusMode                        0x2000013f   Data           1  test_payload_cam_emu_base.o(.data)
    s_cameraFocusTarget                      0x20000140   Data           8  test_payload_cam_emu_base.o(.data)
    s_cameraFocusRingValue                   0x20000148   Data           4  test_payload_cam_emu_base.o(.data)
    s_cameraFocusAssistantSettings           0x2000014c   Data           2  test_payload_cam_emu_base.o(.data)
    s_cameraZoomDirection                    0x2000014e   Data           1  test_payload_cam_emu_base.o(.data)
    s_cameraZoomSpeed                        0x2000014f   Data           1  test_payload_cam_emu_base.o(.data)
    s_cameraOpticalZoomFocalLength           0x20000150   Data           4  test_payload_cam_emu_base.o(.data)
    s_cameraDigitalZoomFactor                0x20000154   Data           4  test_payload_cam_emu_base.o(.data)
    s_isStartContinuousOpticalZoom           0x20000158   Data           1  test_payload_cam_emu_base.o(.data)
    s_isOpticalZoomReachLimit                0x20000159   Data           1  test_payload_cam_emu_base.o(.data)
    s_zoomMutex                              0x2000015c   Data           4  test_payload_cam_emu_base.o(.data)
    s_isTapZoomEnabled                       0x20000160   Data           1  test_payload_cam_emu_base.o(.data)
    s_cameraTapZoomState                     0x20000161   Data           2  test_payload_cam_emu_base.o(.data)
    s_tapZoomMultiplier                      0x20000163   Data           1  test_payload_cam_emu_base.o(.data)
    s_tapZoomStartTime                       0x20000164   Data           4  test_payload_cam_emu_base.o(.data)
    s_isStartTapZoom                         0x20000168   Data           1  test_payload_cam_emu_base.o(.data)
    s_isTapZooming                           0x20000169   Data           1  test_payload_cam_emu_base.o(.data)
    s_tapZoomNewestTargetHybridFocalLength   0x2000016c   Data           4  test_payload_cam_emu_base.o(.data)
    s_tapZoomMutex                           0x20000170   Data           4  test_payload_cam_emu_base.o(.data)
    s_cameraVideoStreamType                  0x20000174   Data           1  test_payload_cam_emu_base.o(.data)
    photoCnt                                 0x20000178   Data           4  test_payload_cam_emu_base.o(.data)
    step                                     0x2000017c   Data           4  test_payload_cam_emu_base.o(.data)
    .data                                    0x20000180   Section        6  test_fc_subscription.o(.data)
    s_userFcSubscriptionThread               0x20000180   Data           4  test_fc_subscription.o(.data)
    s_userFcSubscriptionDataShow             0x20000184   Data           1  test_fc_subscription.o(.data)
    s_totalSatelliteNumberUsed               0x20000185   Data           1  test_fc_subscription.o(.data)
    .data                                    0x20000188   Section       36  test_payload_gimbal_emu.o(.data)
    s_userGimbalThread                       0x20000188   Data           4  test_payload_gimbal_emu.o(.data)
    s_rotatingFlag                           0x2000018c   Data           1  test_payload_gimbal_emu.o(.data)
    s_commonMutex                            0x20000190   Data           4  test_payload_gimbal_emu.o(.data)
    s_calibrationState                       0x20000194   Data           4  test_payload_gimbal_emu.o(.data)
    s_controlType                            0x20000198   Data           1  test_payload_gimbal_emu.o(.data)
    s_calibrationStartTime                   0x2000019c   Data           4  test_payload_gimbal_emu.o(.data)
    s_attitudeMutex                          0x200001a0   Data           4  test_payload_gimbal_emu.o(.data)
    s_calibrationMutex                       0x200001a4   Data           4  test_payload_gimbal_emu.o(.data)
    step                                     0x200001a8   Data           4  test_payload_gimbal_emu.o(.data)
    .data                                    0x200001ac   Section        8  test_positioning.o(.data)
    s_userPositioningThread                  0x200001ac   Data           4  test_positioning.o(.data)
    s_eventIndex                             0x200001b0   Data           4  test_positioning.o(.data)
    .data                                    0x200001b4   Section       12  test_time_sync.o(.data)
    s_timeSyncHandler                        0x200001b4   Data           8  test_time_sync.o(.data)
    s_timeSyncThread                         0x200001bc   Data           4  test_time_sync.o(.data)
    .data                                    0x200001c0   Section        8  test_power_management.o(.data)
    s_applyHighPowerHandler                  0x200001c0   Data           8  test_power_management.o(.data)
    .data                                    0x200001c8   Section      104  file_binary_array_list_en.o(.data)
    s_EnWidgetFileBinaryArrayList            0x200001c8   Data          96  file_binary_array_list_en.o(.data)
    .data                                    0x20000230   Section       32  test_widget.o(.data)
    s_widgetTestThread                       0x20000230   Data           4  test_widget.o(.data)
    s_isWidgetFileDirPathConfigured          0x20000234   Data           1  test_widget.o(.data)
    s_widgetTypeNameArray                    0x20000238   Data          24  test_widget.o(.data)
    .data                                    0x20000250   Section       18  test_upgrade.o(.data)
    s_upgradeState                           0x20000250   Data           2  test_upgrade.o(.data)
    s_upgradeStateMutex                      0x20000254   Data           4  test_upgrade.o(.data)
    s_upgradeProcessThread                   0x20000258   Data           4  test_upgrade.o(.data)
    s_enterUpgradeModeProcessThread          0x2000025c   Data           4  test_upgrade.o(.data)
    s_isNeedEnterUpgradeModeProcess          0x20000260   Data           1  test_upgrade.o(.data)
    s_isNeedReplaceProgramBeforeReboot       0x20000261   Data           1  test_upgrade.o(.data)
    .data                                    0x20000264   Section        4  test_upgrade_common_file_transfer.o(.data)
    s_alreadyTransferFileSize                0x20000264   Data           4  test_upgrade_common_file_transfer.o(.data)
    .data                                    0x20000268   Section       21  gdu_core.o(.data)
    s_GduCoreThread                          0x20000268   Data           4  gdu_core.o(.data)
    socketHandle                             0x2000026c   Data           4  gdu_core.o(.data)
    NPCUartLink                              0x20000270   Data           4  gdu_core.o(.data)
    funList                                  0x20000278   Data           4  gdu_core.o(.data)
    seq                                      0x2000027c   Data           1  gdu_core.o(.data)
    .data                                    0x20000280   Section       44  gdu_gimbal.o(.data)
    controlPermission                        0x2000029c   Data           1  gdu_gimbal.o(.data)
    lastPitch                                0x200002a0   Data           4  gdu_gimbal.o(.data)
    lastYaw                                  0x200002a4   Data           4  gdu_gimbal.o(.data)
    lastJoystickRawPitch                     0x200002a8   Data           1  gdu_gimbal.o(.data)
    lastJoystickRawYaw                       0x200002a9   Data           1  gdu_gimbal.o(.data)
    lastAppkRawPitch                         0x200002aa   Data           1  gdu_gimbal.o(.data)
    lastAppRawYaw                            0x200002ab   Data           1  gdu_gimbal.o(.data)
    .data                                    0x200002ac   Section        8  gdu_logger.o(.data)
    .data                                    0x200002b4   Section      209  gdu_payload_camera.o(.data)
    SysInfo                                  0x200002b4   Data           6  gdu_payload_camera.o(.data)
    CameraCommonHandler                      0x200002bc   Data           4  gdu_payload_camera.o(.data)
    CameraExposureMeteringHandler            0x200002c0   Data           4  gdu_payload_camera.o(.data)
    CameraFocusHandler                       0x200002c4   Data           4  gdu_payload_camera.o(.data)
    CameraDigitalZoomHandler                 0x200002c8   Data           4  gdu_payload_camera.o(.data)
    CameraOpticalZoomHandler                 0x200002cc   Data           4  gdu_payload_camera.o(.data)
    CameraTapZoomHandler                     0x200002d0   Data           4  gdu_payload_camera.o(.data)
    osalHandler                              0x200002d4   Data           4  gdu_payload_camera.o(.data)
    camera_mode                              0x200002d8   Data           2  gdu_payload_camera.o(.data)
    pictures_param                           0x200002da   Data           4  gdu_payload_camera.o(.data)
    CameraPhotoTimeIntervalSet               0x200002de   Data           4  gdu_payload_camera.o(.data)
    opticalZoomFocusPar                      0x200002e2   Data           2  gdu_payload_camera.o(.data)
    s_baseCameraThread                       0x200002e4   Data           4  gdu_payload_camera.o(.data)
    cameraFunList                            0x200002e8   Data         154  gdu_payload_camera.o(.data)
    get_param                                0x20000382   Data           2  gdu_payload_camera.o(.data)
    lastVideoStatus                          0x20000384   Data           1  gdu_payload_camera.o(.data)
    .data                                    0x20000388   Section       32  gdu_platform.o(.data)
    .data                                    0x200003a8   Section      105  gdu_positioning.o(.data)
    SysInfo                                  0x200003a8   Data           6  gdu_positioning.o(.data)
    s_basePositioningThread                  0x200003b0   Data           4  gdu_positioning.o(.data)
    g_newestIndex                            0x200003b4   Data           4  gdu_positioning.o(.data)
    g_oldestIndex                            0x200003b8   Data           4  gdu_positioning.o(.data)
    posUpdateFlag                            0x200003bc   Data           4  gdu_positioning.o(.data)
    openPosInfoSuccess                       0x200003c0   Data           4  gdu_positioning.o(.data)
    osalHandler                              0x200003c4   Data           4  gdu_positioning.o(.data)
    isGetPos                                 0x200003c8   Data           4  gdu_positioning.o(.data)
    positioningFlag                          0x200003cc   Data           4  gdu_positioning.o(.data)
    timeSyncFlag                             0x200003d0   Data           4  gdu_positioning.o(.data)
    count                                    0x200003d4   Data           4  gdu_positioning.o(.data)
    count                                    0x200003d8   Data           4  gdu_positioning.o(.data)
    lastSeq                                  0x200003dc   Data           4  gdu_positioning.o(.data)
    lostCnt                                  0x200003e0   Data           4  gdu_positioning.o(.data)
    totalCnt                                 0x200003e4   Data           4  gdu_positioning.o(.data)
    currentTimeMsA                           0x200003e8   Data           4  gdu_positioning.o(.data)
    currentTimeMsB                           0x200003ec   Data           4  gdu_positioning.o(.data)
    i                                        0x200003f0   Data           4  gdu_positioning.o(.data)
    counter                                  0x200003f8   Data           8  gdu_positioning.o(.data)
    timestamp                                0x20000400   Data           8  gdu_positioning.o(.data)
    newestIndex                              0x20000408   Data           4  gdu_positioning.o(.data)
    oldestIndex                              0x2000040c   Data           4  gdu_positioning.o(.data)
    seq                                      0x20000410   Data           1  gdu_positioning.o(.data)
    .data                                    0x20000414   Section        4  gdu_power_management.o(.data)
    GduWriteHighPowerApplyPin                0x20000414   Data           4  gdu_power_management.o(.data)
    .data                                    0x20000418   Section      136  gdu_subscribeinfo.o(.data)
    basicState1Subscribe_Result              0x20000418   Data           1  gdu_subscribeinfo.o(.data)
    basicState2Subscribe_Result              0x20000419   Data           1  gdu_subscribeinfo.o(.data)
    attitudeinfoSubscribe_Result             0x2000041a   Data           1  gdu_subscribeinfo.o(.data)
    speedinfoSubscribe_Result                0x2000041b   Data           1  gdu_subscribeinfo.o(.data)
    gnssStarNumberSubscribe_Result           0x2000041c   Data           1  gdu_subscribeinfo.o(.data)
    batterySubscribe_Result                  0x2000041d   Data           1  gdu_subscribeinfo.o(.data)
    timeSubscribe_Result                     0x2000041e   Data           1  gdu_subscribeinfo.o(.data)
    positionSolutionProperty                 0x2000041f   Data           1  gdu_subscribeinfo.o(.data)
    s_sbuscribeThread                        0x20000420   Data           4  gdu_subscribeinfo.o(.data)
    cnt1                                     0x20000424   Data           4  gdu_subscribeinfo.o(.data)
    cnt2                                     0x20000428   Data           4  gdu_subscribeinfo.o(.data)
    cnt3                                     0x2000042c   Data           4  gdu_subscribeinfo.o(.data)
    cnt4                                     0x20000430   Data           4  gdu_subscribeinfo.o(.data)
    cnt5                                     0x20000434   Data           4  gdu_subscribeinfo.o(.data)
    cnt6                                     0x20000438   Data           4  gdu_subscribeinfo.o(.data)
    cnt7                                     0x2000043c   Data           4  gdu_subscribeinfo.o(.data)
    cntErr                                   0x20000440   Data           4  gdu_subscribeinfo.o(.data)
    revState1Flag                            0x20000444   Data           4  gdu_subscribeinfo.o(.data)
    timestamp                                0x20000448   Data           8  gdu_subscribeinfo.o(.data)
    timetz_minutes_westZone                  0x20000450   Data           4  gdu_subscribeinfo.o(.data)
    tz_dsttime                               0x20000454   Data           4  gdu_subscribeinfo.o(.data)
    subscribeFunList                         0x20000458   Data          56  gdu_subscribeinfo.o(.data)
    i                                        0x20000490   Data           4  gdu_subscribeinfo.o(.data)
    j                                        0x20000494   Data           4  gdu_subscribeinfo.o(.data)
    k                                        0x20000498   Data           4  gdu_subscribeinfo.o(.data)
    index                                    0x2000049c   Data           4  gdu_subscribeinfo.o(.data)
    .data                                    0x200004a0   Section       52  gdu_upgrade.o(.data)
    s_baseUpgradeThread                      0x200004a0   Data           4  gdu_upgrade.o(.data)
    osalHandler                              0x200004a4   Data           4  gdu_upgrade.o(.data)
    SysInfo                                  0x200004a8   Data           6  gdu_upgrade.o(.data)
    sessionId                                0x200004b0   Data           4  gdu_upgrade.o(.data)
    fileSize                                 0x200004b4   Data           4  gdu_upgrade.o(.data)
    totalPackNum                             0x200004b8   Data           4  gdu_upgrade.o(.data)
    seq                                      0x200004bc   Data           1  gdu_upgrade.o(.data)
    step                                     0x200004bd   Data           1  gdu_upgrade.o(.data)
    updataFlag                               0x200004be   Data           1  gdu_upgrade.o(.data)
    fileFlag                                 0x200004bf   Data           1  gdu_upgrade.o(.data)
    upgradeProcess                           0x200004c0   Data           1  gdu_upgrade.o(.data)
    packCnt                                  0x200004c8   Data           4  gdu_upgrade.o(.data)
    cnt                                      0x200004cc   Data           4  gdu_upgrade.o(.data)
    cnt                                      0x200004d0   Data           4  gdu_upgrade.o(.data)
    .data                                    0x200004d4   Section       71  gdu_widget.o(.data)
    osalHandler                              0x200004d4   Data           4  gdu_widget.o(.data)
    GduWidgetTaskHandle                      0x200004d8   Data           4  gdu_widget.o(.data)
    wigetSemaphore                           0x200004dc   Data           4  gdu_widget.o(.data)
    SysInfo                                  0x200004e0   Data           6  gdu_widget.o(.data)
    GdufileBinaryArrayList                   0x200004e8   Data           4  gdu_widget.o(.data)
    GduWidgetHandlerListItem                 0x200004ec   Data           4  gdu_widget.o(.data)
    BinaryArrayCount                         0x200004f0   Data           2  gdu_widget.o(.data)
    ItemCount                                0x200004f4   Data           4  gdu_widget.o(.data)
    fd                                       0x200004f8   Data           1  gdu_widget.o(.data)
    widgetFunList                            0x200004f9   Data          33  gdu_widget.o(.data)
    resendType                               0x2000051a   Data           1  gdu_widget.o(.data)
    .data                                    0x20000520   Section       64  time_sync.o(.data)
    utcTime                                  0x20000520   Data           8  time_sync.o(.data)
    ppsTrigTime                              0x20000528   Data           8  time_sync.o(.data)
    osalHandler                              0x20000530   Data           4  time_sync.o(.data)
    s_timeSyncThread                         0x20000538   Data           4  time_sync.o(.data)
    ppsTrigged                               0x2000053c   Data           4  time_sync.o(.data)
    lastCurrentTimeMs                        0x20000544   Data           4  time_sync.o(.data)
    count                                    0x20000548   Data           4  time_sync.o(.data)
    lastSeq                                  0x2000054c   Data           4  time_sync.o(.data)
    lostCnt                                  0x20000550   Data           4  time_sync.o(.data)
    isFirst                                  0x20000554   Data           4  time_sync.o(.data)
    isFirst                                  0x20000558   Data           4  time_sync.o(.data)
    counter                                  0x2000055c   Data           4  time_sync.o(.data)
    .data                                    0x20000560   Section       96  gdu_flight_controller.o(.data)
    s_baseFlightCtrlThread                   0x20000560   Data           4  gdu_flight_controller.o(.data)
    osalHandler                              0x20000564   Data           4  gdu_flight_controller.o(.data)
    SysInfo                                  0x20000568   Data           6  gdu_flight_controller.o(.data)
    seq                                      0x2000056e   Data           1  gdu_flight_controller.o(.data)
    revTofStateFlag                          0x2000056f   Data           1  gdu_flight_controller.o(.data)
    getLostAction                            0x20000570   Data           6  gdu_flight_controller.o(.data)
    getInfoFun                               0x20000578   Data          12  gdu_flight_controller.o(.data)
    flightCtrlFunList                        0x20000584   Data          56  gdu_flight_controller.o(.data)
    cnt                                      0x200005bc   Data           4  gdu_flight_controller.o(.data)
    .data                                    0x200005c0   Section       31  basemsghandle.o(.data)
    osalHandler                              0x200005c0   Data           4  basemsghandle.o(.data)
    baseMsgFunList                           0x200005c7   Data          24  basemsghandle.o(.data)
    .data                                    0x200005e0   Section        4  gdu_serial.o(.data)
    UartHandle_Data                          0x200005e0   Data           4  gdu_serial.o(.data)
    .data                                    0x200005e4   Section       24  npc.o(.data)
    s_npcRecvThread                          0x200005e4   Data           4  npc.o(.data)
    s_npcRecvProThread                       0x200005e8   Data           4  npc.o(.data)
    s_npcSendThread                          0x200005ec   Data           4  npc.o(.data)
    s_npcHeartbeatThread                     0x200005f0   Data           4  npc.o(.data)
    commList                                 0x200005f4   Data           4  npc.o(.data)
    commCount                                0x200005f8   Data           2  npc.o(.data)
    .data                                    0x200005fc   Section        4  stdout.o(.data)
    .data                                    0x20000600   Section        4  mvars.o(.data)
    .data                                    0x20000604   Section        4  mvars.o(.data)
    .data                                    0x20000608   Section        4  errno.o(.data)
    _errno                                   0x20000608   Data           4  errno.o(.data)
    .bss                                     0x2000060c   Section      844  stm32f4xx_it.o(.bss)
    .bss                                     0x20000958   Section    13680  uart.o(.bss)
    s_uart1ReadRingBuffer                    0x20000958   Data          12  uart.o(.bss)
    s_uart1WriteRingBuffer                   0x20000964   Data          12  uart.o(.bss)
    s_uart1ReadBuf                           0x20000970   Data        1024  uart.o(.bss)
    s_uart1WriteBuf                          0x20000d70   Data        4096  uart.o(.bss)
    s_uart1Handle                            0x20001d70   Data          68  uart.o(.bss)
    s_uart2ReadRingBuffer                    0x20001db4   Data          12  uart.o(.bss)
    s_uart2WriteRingBuffer                   0x20001dc0   Data          12  uart.o(.bss)
    s_uart2ReadBuf                           0x20001dcc   Data        2048  uart.o(.bss)
    s_uart2WriteBuf                          0x200025cc   Data        2048  uart.o(.bss)
    s_uart2Handle                            0x20002dcc   Data          68  uart.o(.bss)
    s_uart3ReadRingBuffer                    0x20002e10   Data          12  uart.o(.bss)
    s_uart3WriteRingBuffer                   0x20002e1c   Data          12  uart.o(.bss)
    s_uart3ReadBuf                           0x20002e28   Data        1024  uart.o(.bss)
    s_uart3WriteBuf                          0x20003228   Data        1024  uart.o(.bss)
    s_uart3Handle                            0x20003628   Data          68  uart.o(.bss)
    s_uart6ReadRingBuffer                    0x2000366c   Data          12  uart.o(.bss)
    s_uart6WriteRingBuffer                   0x20003678   Data          12  uart.o(.bss)
    s_uart6ReadBuf                           0x20003684   Data        1024  uart.o(.bss)
    s_uart6WriteBuf                          0x20003a84   Data        1024  uart.o(.bss)
    s_uart6Handle                            0x20003e84   Data          68  uart.o(.bss)
    .bss                                     0x20003ec8   Section     1024  usbh_cdc.o(.bss)
    cdcBuff                                  0x20003ec8   Data        1024  usbh_cdc.o(.bss)
    .bss                                     0x200042c8   Section       68  upgrade_platform_opt_stm32.o(.bss)
    s_upgradeFileInfo                        0x200042c8   Data          68  upgrade_platform_opt_stm32.o(.bss)
    .bss                                     0x2000430c   Section       32  stm32f4xx_hal_flash.o(.bss)
    .bss                                     0x2000432c   Section    75000  heap_4.o(.bss)
    ucHeap                                   0x2000432c   Data       75000  heap_4.o(.bss)
    .bss                                     0x20016824   Section       64  queue.o(.bss)
    .bss                                     0x20016864   Section      240  tasks.o(.bss)
    pxReadyTasksLists                        0x20016864   Data         140  tasks.o(.bss)
    xDelayedTaskList1                        0x200168f0   Data          20  tasks.o(.bss)
    xDelayedTaskList2                        0x20016904   Data          20  tasks.o(.bss)
    xPendingReadyList                        0x20016918   Data          20  tasks.o(.bss)
    xTasksWaitingTermination                 0x2001692c   Data          20  tasks.o(.bss)
    xSuspendedTaskList                       0x20016940   Data          20  tasks.o(.bss)
    .bss                                     0x20016954   Section      234  test_payload_cam_emu_base.o(.bss)
    s_commonHandler                          0x20016954   Data          60  test_payload_cam_emu_base.o(.bss)
    s_exposureMeteringHandler                0x20016990   Data          16  test_payload_cam_emu_base.o(.bss)
    s_focusHandler                           0x200169a0   Data          36  test_payload_cam_emu_base.o(.bss)
    s_opticalZoomHandler                     0x200169c4   Data          24  test_payload_cam_emu_base.o(.bss)
    s_tapZoomHandler                         0x200169dc   Data          24  test_payload_cam_emu_base.o(.bss)
    s_cameraState                            0x200169f4   Data          14  test_payload_cam_emu_base.o(.bss)
    s_cameraSDCardState                      0x20016a04   Data          24  test_payload_cam_emu_base.o(.bss)
    s_tapZoomNewestGimbalRotationArgument    0x20016a1c   Data          34  test_payload_cam_emu_base.o(.bss)
    .bss                                     0x20016a40   Section      152  test_payload_gimbal_emu.o(.bss)
    s_commonHandler                          0x20016a40   Data          56  test_payload_gimbal_emu.o(.bss)
    s_systemState                            0x20016a78   Data          21  test_payload_gimbal_emu.o(.bss)
    s_attitudeInformation                    0x20016a8d   Data          15  test_payload_gimbal_emu.o(.bss)
    s_attitudeHighPrecision                  0x20016a9c   Data          12  test_payload_gimbal_emu.o(.bss)
    s_targetAttitude                         0x20016aa8   Data          12  test_payload_gimbal_emu.o(.bss)
    s_speed                                  0x20016ab4   Data          12  test_payload_gimbal_emu.o(.bss)
    s_aircraftAttitude                       0x20016ac0   Data          12  test_payload_gimbal_emu.o(.bss)
    s_lastAircraftAttitude                   0x20016acc   Data          12  test_payload_gimbal_emu.o(.bss)
    .bss                                     0x20016ad8   Section      360  test_widget.o(.bss)
    s_widgetFileDirPath                      0x20016ad8   Data         320  test_widget.o(.bss)
    s_widgetValueList                        0x20016c18   Data          40  test_widget.o(.bss)
    .bss                                     0x20016c40   Section       68  test_upgrade_common_file_transfer.o(.bss)
    s_upgradeFileInfo                        0x20016c40   Data          68  test_upgrade_common_file_transfer.o(.bss)
    .bss                                     0x20016c84   Section       40  test_upgrade_platform_opt.o(.bss)
    s_upgradePlatformOpt                     0x20016c84   Data          40  test_upgrade_platform_opt.o(.bss)
    .bss                                     0x20016cac   Section       30  gdu_core.o(.bss)
    .bss                                     0x20016cca   Section     1024  gdu_logger.o(.bss)
    .bss                                     0x200170cc   Section      740  gdu_payload_camera.o(.bss)
    GlinkCamSendStatus                       0x200170cc   Data          20  gdu_payload_camera.o(.bss)
    GlinkCamMsgSendBuf                       0x200170e0   Data         276  gdu_payload_camera.o(.bss)
    status                                   0x200171f4   Data          20  gdu_payload_camera.o(.bss)
    msg_ack                                  0x20017208   Data         276  gdu_payload_camera.o(.bss)
    CameraSystemState                        0x2001731c   Data          14  gdu_payload_camera.o(.bss)
    CameraSDCardState                        0x2001732c   Data          24  gdu_payload_camera.o(.bss)
    photo                                    0x20017344   Data          54  gdu_payload_camera.o(.bss)
    video                                    0x2001737a   Data          54  gdu_payload_camera.o(.bss)
    .bss                                     0x200173b0   Section    14912  gdu_positioning.o(.bss)
    msg_ack                                  0x200173b0   Data         276  gdu_positioning.o(.bss)
    status                                   0x200174c4   Data          20  gdu_positioning.o(.bss)
    positioningInfo                          0x200175b0   Data       14400  gdu_positioning.o(.bss)
    .bss                                     0x2001adf0   Section     3233  gdu_subscribeinfo.o(.bss)
    posAndTime                               0x2001af29   Data        2520  gdu_subscribeinfo.o(.bss)
    payload                                  0x2001ba81   Data          16  gdu_subscribeinfo.o(.bss)
    .bss                                     0x2001ba94   Section      528  gdu_upgrade.o(.bss)
    status                                   0x2001bab8   Data          20  gdu_upgrade.o(.bss)
    msg_ack                                  0x2001bacc   Data         276  gdu_upgrade.o(.bss)
    filePath                                 0x2001bbe0   Data         128  gdu_upgrade.o(.bss)
    .bss                                     0x2001bca4   Section      444  gdu_widget.o(.bss)
    status                                   0x2001bca4   Data          20  gdu_widget.o(.bss)
    msg_ack                                  0x2001bcb8   Data         276  gdu_widget.o(.bss)
    update_custom_list                       0x2001bdcc   Data         128  gdu_widget.o(.bss)
    widgetFile_CRC                           0x2001be4c   Data          20  gdu_widget.o(.bss)
    .bss                                     0x2001be60   Section      336  gdu_flight_controller.o(.bss)
    status                                   0x2001be60   Data          20  gdu_flight_controller.o(.bss)
    msg_ack                                  0x2001be74   Data         276  gdu_flight_controller.o(.bss)
    avoidanceState                           0x2001bf88   Data          15  gdu_flight_controller.o(.bss)
    tofReport                                0x2001bf97   Data          10  gdu_flight_controller.o(.bss)
    return_ack                               0x2001bfa1   Data          15  gdu_flight_controller.o(.bss)
    .bss                                     0x2001bfb0   Section       20  basemsghandle.o(.bss)
    .bss                                     0x2001bfc4   Section       44  localtime_w.o(.bss)
    _tms                                     0x2001bfc4   Data          44  localtime_w.o(.bss)
    HEAP                                     0x2001bff0   Section      512  startup_stm32f407xx.o(HEAP)
    STACK                                    0x2001c1f0   Section     1024  startup_stm32f407xx.o(STACK)

    Global Symbols

    Symbol Name                              Value     Ov Type        Size  Object(Section)

    BuildAttributes$$THM_ISAv4$E$P$D$K$B$S$7EM$VFPi3$EXTD16$VFPS$VFMA$PE$A:L22UL41UL21$X:L11$S22US41US21$IEEE1$IW$USESV6$~STKCKD$USESV7$~SHL$OTIME$ROPI$IEEEX$EBA8$MICROLIB$REQ8$PRES8$EABIv2 0x00000000   Number         0  anon$$obj.o ABSOLUTE
    __ARM_use_no_argv                        0x00000000   Number         0  main.o ABSOLUTE
    _printf_a                                0x00000000   Number         0  stubs.o ABSOLUTE
    _printf_c                                0x00000000   Number         0  stubs.o ABSOLUTE
    _printf_charcount                        0x00000000   Number         0  stubs.o ABSOLUTE
    _printf_d                                0x00000000   Number         0  stubs.o ABSOLUTE
    _printf_e                                0x00000000   Number         0  stubs.o ABSOLUTE
    _printf_f                                0x00000000   Number         0  stubs.o ABSOLUTE
    _printf_flags                            0x00000000   Number         0  stubs.o ABSOLUTE
    _printf_fp_dec                           0x00000000   Number         0  stubs.o ABSOLUTE
    _printf_fp_hex                           0x00000000   Number         0  stubs.o ABSOLUTE
    _printf_g                                0x00000000   Number         0  stubs.o ABSOLUTE
    _printf_i                                0x00000000   Number         0  stubs.o ABSOLUTE
    _printf_int_dec                          0x00000000   Number         0  stubs.o ABSOLUTE
    _printf_l                                0x00000000   Number         0  stubs.o ABSOLUTE
    _printf_lc                               0x00000000   Number         0  stubs.o ABSOLUTE
    _printf_ll                               0x00000000   Number         0  stubs.o ABSOLUTE
    _printf_lld                              0x00000000   Number         0  stubs.o ABSOLUTE
    _printf_lli                              0x00000000   Number         0  stubs.o ABSOLUTE
    _printf_llo                              0x00000000   Number         0  stubs.o ABSOLUTE
    _printf_llu                              0x00000000   Number         0  stubs.o ABSOLUTE
    _printf_llx                              0x00000000   Number         0  stubs.o ABSOLUTE
    _printf_longlong_dec                     0x00000000   Number         0  stubs.o ABSOLUTE
    _printf_longlong_hex                     0x00000000   Number         0  stubs.o ABSOLUTE
    _printf_longlong_oct                     0x00000000   Number         0  stubs.o ABSOLUTE
    _printf_ls                               0x00000000   Number         0  stubs.o ABSOLUTE
    _printf_mbtowc                           0x00000000   Number         0  stubs.o ABSOLUTE
    _printf_n                                0x00000000   Number         0  stubs.o ABSOLUTE
    _printf_o                                0x00000000   Number         0  stubs.o ABSOLUTE
    _printf_p                                0x00000000   Number         0  stubs.o ABSOLUTE
    _printf_percent                          0x00000000   Number         0  stubs.o ABSOLUTE
    _printf_pre_padding                      0x00000000   Number         0  stubs.o ABSOLUTE
    _printf_return_value                     0x00000000   Number         0  stubs.o ABSOLUTE
    _printf_s                                0x00000000   Number         0  stubs.o ABSOLUTE
    _printf_sizespec                         0x00000000   Number         0  stubs.o ABSOLUTE
    _printf_str                              0x00000000   Number         0  stubs.o ABSOLUTE
    _printf_truncate_signed                  0x00000000   Number         0  stubs.o ABSOLUTE
    _printf_truncate_unsigned                0x00000000   Number         0  stubs.o ABSOLUTE
    _printf_u                                0x00000000   Number         0  stubs.o ABSOLUTE
    _printf_wc                               0x00000000   Number         0  stubs.o ABSOLUTE
    _printf_wctomb                           0x00000000   Number         0  stubs.o ABSOLUTE
    _printf_widthprec                        0x00000000   Number         0  stubs.o ABSOLUTE
    _printf_x                                0x00000000   Number         0  stubs.o ABSOLUTE
    __cpp_initialize__aeabi_                  - Undefined Weak Reference
    __cxa_finalize                            - Undefined Weak Reference
    _clock_init                               - Undefined Weak Reference
    _microlib_exit                            - Undefined Weak Reference
    __Vectors_Size                           0x00000188   Number         0  startup_stm32f407xx.o ABSOLUTE
    __Vectors                                0x08010000   Data           4  startup_stm32f407xx.o(RESET)
    __Vectors_End                            0x08010188   Data           0  startup_stm32f407xx.o(RESET)
    __main                                   0x08010189   Thumb Code     0  entry.o(.ARM.Collect$$$$00000000)
    _main_stk                                0x08010189   Thumb Code     0  entry2.o(.ARM.Collect$$$$00000001)
    _main_scatterload                        0x0801018d   Thumb Code     0  entry5.o(.ARM.Collect$$$$00000004)
    __main_after_scatterload                 0x08010191   Thumb Code     0  entry5.o(.ARM.Collect$$$$00000004)
    _main_clock                              0x08010191   Thumb Code     0  entry7b.o(.ARM.Collect$$$$00000008)
    _main_cpp_init                           0x08010191   Thumb Code     0  entry8b.o(.ARM.Collect$$$$0000000A)
    _main_init                               0x08010191   Thumb Code     0  entry9a.o(.ARM.Collect$$$$0000000B)
    __rt_final_cpp                           0x08010199   Thumb Code     0  entry10a.o(.ARM.Collect$$$$0000000D)
    __rt_final_exit                          0x08010199   Thumb Code     0  entry11a.o(.ARM.Collect$$$$0000000F)
    SVC_Handler                              0x0801019d   Thumb Code    28  port.o(.emb_text)
    __asm___6_port_c_39a90d8d__prvStartFirstTask 0x080101bd   Thumb Code    28  port.o(.emb_text)
    __asm___6_port_c_39a90d8d__prvEnableVFP  0x080101dd   Thumb Code    16  port.o(.emb_text)
    PendSV_Handler                           0x080101f1   Thumb Code    88  port.o(.emb_text)
    vPortGetIPSR                             0x0801024d   Thumb Code     6  port.o(.emb_text)
    GduUser_StartTask                        0x080103a7   Thumb Code  1620  application.o(.text)
    GduUser_MonitorTask                      0x080109fb   Thumb Code   108  application.o(.text)
    HalUart_Init                             0x08010b3d   Thumb Code    60  hal_uart.o(.text)
    HalUart_DeInit                           0x08010b79   Thumb Code     8  hal_uart.o(.text)
    HalUart_WriteData                        0x08010b81   Thumb Code    58  hal_uart.o(.text)
    HalUart_ReadData                         0x08010bbb   Thumb Code    60  hal_uart.o(.text)
    HalUart_GetStatus                        0x08010bf7   Thumb Code    34  hal_uart.o(.text)
    main                                     0x08010cb7   Thumb Code    66  main.o(.text)
    HAL_TIM_PeriodElapsedCallback            0x08010cf9   Thumb Code    18  main.o(.text)
    Error_Handler                            0x08010d0b   Thumb Code     6  main.o(.text)
    Osal_TaskCreate                          0x08010d49   Thumb Code    94  osal.o(.text)
    Osal_TaskDestroy                         0x08010da7   Thumb Code    16  osal.o(.text)
    Osal_TaskSleepMs                         0x08010db7   Thumb Code    26  osal.o(.text)
    Osal_MutexCreate                         0x08010dd1   Thumb Code    28  osal.o(.text)
    Osal_MutexDestroy                        0x08010ded   Thumb Code    16  osal.o(.text)
    Osal_MutexLock                           0x08010dfd   Thumb Code    40  osal.o(.text)
    Osal_MutexUnlock                         0x08010e25   Thumb Code    32  osal.o(.text)
    Osal_SemaphoreCreate                     0x08010e45   Thumb Code    36  osal.o(.text)
    Osal_SemaphoreDestroy                    0x08010e69   Thumb Code    16  osal.o(.text)
    Osal_SemaphoreTimedWait                  0x08010e79   Thumb Code    56  osal.o(.text)
    Osal_SemaphoreWait                       0x08010eb1   Thumb Code    20  osal.o(.text)
    Osal_SemaphorePost                       0x08010ec5   Thumb Code    32  osal.o(.text)
    Osal_GetTimeMs                           0x08010ee5   Thumb Code    16  osal.o(.text)
    Osal_GetTimeUs                           0x08010ef5   Thumb Code    26  osal.o(.text)
    Osal_Malloc                              0x08010f0f   Thumb Code    12  osal.o(.text)
    Osal_Free                                0x08010f1b   Thumb Code    12  osal.o(.text)
    FLASH_If_Erase                           0x08010fdf   Thumb Code    90  flash_if.o(.text)
    FLASH_If_Write                           0x08011039   Thumb Code   162  flash_if.o(.text)
    FLASH_If_GetWriteProtectionStatus        0x080110db   Thumb Code    42  flash_if.o(.text)
    FLASH_If_WriteProtectionConfig           0x08011105   Thumb Code    68  flash_if.o(.text)
    Led_Init                                 0x0801117d   Thumb Code   162  led.o(.text)
    Led_On                                   0x0801121f   Thumb Code    24  led.o(.text)
    Led_Off                                  0x08011237   Thumb Code    24  led.o(.text)
    Led_Trigger                              0x0801124f   Thumb Code    22  led.o(.text)
    EXTI2_IRQHandler                         0x08011271   Thumb Code    50  pps.o(.text)
    GduTest_GetNewestPpsTriggerLocalTimeUs   0x080112a3   Thumb Code   126  pps.o(.text)
    GduTest_PpsSignalResponseInit            0x08011321   Thumb Code    80  pps.o(.text)
    Reset_Handler                            0x080113dd   Thumb Code     8  startup_stm32f407xx.o(.text)
    ADC_IRQHandler                           0x080113f7   Thumb Code     0  startup_stm32f407xx.o(.text)
    CAN1_RX0_IRQHandler                      0x080113f7   Thumb Code     0  startup_stm32f407xx.o(.text)
    CAN1_RX1_IRQHandler                      0x080113f7   Thumb Code     0  startup_stm32f407xx.o(.text)
    CAN1_SCE_IRQHandler                      0x080113f7   Thumb Code     0  startup_stm32f407xx.o(.text)
    CAN1_TX_IRQHandler                       0x080113f7   Thumb Code     0  startup_stm32f407xx.o(.text)
    CAN2_RX0_IRQHandler                      0x080113f7   Thumb Code     0  startup_stm32f407xx.o(.text)
    CAN2_RX1_IRQHandler                      0x080113f7   Thumb Code     0  startup_stm32f407xx.o(.text)
    CAN2_SCE_IRQHandler                      0x080113f7   Thumb Code     0  startup_stm32f407xx.o(.text)
    CAN2_TX_IRQHandler                       0x080113f7   Thumb Code     0  startup_stm32f407xx.o(.text)
    DCMI_IRQHandler                          0x080113f7   Thumb Code     0  startup_stm32f407xx.o(.text)
    DMA1_Stream0_IRQHandler                  0x080113f7   Thumb Code     0  startup_stm32f407xx.o(.text)
    DMA1_Stream1_IRQHandler                  0x080113f7   Thumb Code     0  startup_stm32f407xx.o(.text)
    DMA1_Stream2_IRQHandler                  0x080113f7   Thumb Code     0  startup_stm32f407xx.o(.text)
    DMA1_Stream3_IRQHandler                  0x080113f7   Thumb Code     0  startup_stm32f407xx.o(.text)
    DMA1_Stream4_IRQHandler                  0x080113f7   Thumb Code     0  startup_stm32f407xx.o(.text)
    DMA1_Stream5_IRQHandler                  0x080113f7   Thumb Code     0  startup_stm32f407xx.o(.text)
    DMA1_Stream6_IRQHandler                  0x080113f7   Thumb Code     0  startup_stm32f407xx.o(.text)
    DMA1_Stream7_IRQHandler                  0x080113f7   Thumb Code     0  startup_stm32f407xx.o(.text)
    DMA2_Stream0_IRQHandler                  0x080113f7   Thumb Code     0  startup_stm32f407xx.o(.text)
    DMA2_Stream1_IRQHandler                  0x080113f7   Thumb Code     0  startup_stm32f407xx.o(.text)
    DMA2_Stream2_IRQHandler                  0x080113f7   Thumb Code     0  startup_stm32f407xx.o(.text)
    DMA2_Stream3_IRQHandler                  0x080113f7   Thumb Code     0  startup_stm32f407xx.o(.text)
    DMA2_Stream4_IRQHandler                  0x080113f7   Thumb Code     0  startup_stm32f407xx.o(.text)
    DMA2_Stream5_IRQHandler                  0x080113f7   Thumb Code     0  startup_stm32f407xx.o(.text)
    DMA2_Stream6_IRQHandler                  0x080113f7   Thumb Code     0  startup_stm32f407xx.o(.text)
    DMA2_Stream7_IRQHandler                  0x080113f7   Thumb Code     0  startup_stm32f407xx.o(.text)
    ETH_IRQHandler                           0x080113f7   Thumb Code     0  startup_stm32f407xx.o(.text)
    ETH_WKUP_IRQHandler                      0x080113f7   Thumb Code     0  startup_stm32f407xx.o(.text)
    EXTI0_IRQHandler                         0x080113f7   Thumb Code     0  startup_stm32f407xx.o(.text)
    EXTI15_10_IRQHandler                     0x080113f7   Thumb Code     0  startup_stm32f407xx.o(.text)
    EXTI1_IRQHandler                         0x080113f7   Thumb Code     0  startup_stm32f407xx.o(.text)
    EXTI3_IRQHandler                         0x080113f7   Thumb Code     0  startup_stm32f407xx.o(.text)
    EXTI4_IRQHandler                         0x080113f7   Thumb Code     0  startup_stm32f407xx.o(.text)
    EXTI9_5_IRQHandler                       0x080113f7   Thumb Code     0  startup_stm32f407xx.o(.text)
    FLASH_IRQHandler                         0x080113f7   Thumb Code     0  startup_stm32f407xx.o(.text)
    FMC_IRQHandler                           0x080113f7   Thumb Code     0  startup_stm32f407xx.o(.text)
    FPU_IRQHandler                           0x080113f7   Thumb Code     0  startup_stm32f407xx.o(.text)
    HASH_RNG_IRQHandler                      0x080113f7   Thumb Code     0  startup_stm32f407xx.o(.text)
    I2C1_ER_IRQHandler                       0x080113f7   Thumb Code     0  startup_stm32f407xx.o(.text)
    I2C1_EV_IRQHandler                       0x080113f7   Thumb Code     0  startup_stm32f407xx.o(.text)
    I2C2_ER_IRQHandler                       0x080113f7   Thumb Code     0  startup_stm32f407xx.o(.text)
    I2C2_EV_IRQHandler                       0x080113f7   Thumb Code     0  startup_stm32f407xx.o(.text)
    I2C3_ER_IRQHandler                       0x080113f7   Thumb Code     0  startup_stm32f407xx.o(.text)
    I2C3_EV_IRQHandler                       0x080113f7   Thumb Code     0  startup_stm32f407xx.o(.text)
    OTG_FS_WKUP_IRQHandler                   0x080113f7   Thumb Code     0  startup_stm32f407xx.o(.text)
    OTG_HS_EP1_IN_IRQHandler                 0x080113f7   Thumb Code     0  startup_stm32f407xx.o(.text)
    OTG_HS_EP1_OUT_IRQHandler                0x080113f7   Thumb Code     0  startup_stm32f407xx.o(.text)
    OTG_HS_IRQHandler                        0x080113f7   Thumb Code     0  startup_stm32f407xx.o(.text)
    OTG_HS_WKUP_IRQHandler                   0x080113f7   Thumb Code     0  startup_stm32f407xx.o(.text)
    PVD_IRQHandler                           0x080113f7   Thumb Code     0  startup_stm32f407xx.o(.text)
    RCC_IRQHandler                           0x080113f7   Thumb Code     0  startup_stm32f407xx.o(.text)
    RTC_Alarm_IRQHandler                     0x080113f7   Thumb Code     0  startup_stm32f407xx.o(.text)
    RTC_WKUP_IRQHandler                      0x080113f7   Thumb Code     0  startup_stm32f407xx.o(.text)
    SDIO_IRQHandler                          0x080113f7   Thumb Code     0  startup_stm32f407xx.o(.text)
    SPI1_IRQHandler                          0x080113f7   Thumb Code     0  startup_stm32f407xx.o(.text)
    SPI2_IRQHandler                          0x080113f7   Thumb Code     0  startup_stm32f407xx.o(.text)
    SPI3_IRQHandler                          0x080113f7   Thumb Code     0  startup_stm32f407xx.o(.text)
    TAMP_STAMP_IRQHandler                    0x080113f7   Thumb Code     0  startup_stm32f407xx.o(.text)
    TIM1_BRK_TIM9_IRQHandler                 0x080113f7   Thumb Code     0  startup_stm32f407xx.o(.text)
    TIM1_CC_IRQHandler                       0x080113f7   Thumb Code     0  startup_stm32f407xx.o(.text)
    TIM1_TRG_COM_TIM11_IRQHandler            0x080113f7   Thumb Code     0  startup_stm32f407xx.o(.text)
    TIM2_IRQHandler                          0x080113f7   Thumb Code     0  startup_stm32f407xx.o(.text)
    TIM3_IRQHandler                          0x080113f7   Thumb Code     0  startup_stm32f407xx.o(.text)
    TIM4_IRQHandler                          0x080113f7   Thumb Code     0  startup_stm32f407xx.o(.text)
    TIM5_IRQHandler                          0x080113f7   Thumb Code     0  startup_stm32f407xx.o(.text)
    TIM6_DAC_IRQHandler                      0x080113f7   Thumb Code     0  startup_stm32f407xx.o(.text)
    TIM7_IRQHandler                          0x080113f7   Thumb Code     0  startup_stm32f407xx.o(.text)
    TIM8_BRK_TIM12_IRQHandler                0x080113f7   Thumb Code     0  startup_stm32f407xx.o(.text)
    TIM8_CC_IRQHandler                       0x080113f7   Thumb Code     0  startup_stm32f407xx.o(.text)
    TIM8_TRG_COM_TIM14_IRQHandler            0x080113f7   Thumb Code     0  startup_stm32f407xx.o(.text)
    TIM8_UP_TIM13_IRQHandler                 0x080113f7   Thumb Code     0  startup_stm32f407xx.o(.text)
    UART4_IRQHandler                         0x080113f7   Thumb Code     0  startup_stm32f407xx.o(.text)
    UART5_IRQHandler                         0x080113f7   Thumb Code     0  startup_stm32f407xx.o(.text)
    WWDG_IRQHandler                          0x080113f7   Thumb Code     0  startup_stm32f407xx.o(.text)
    HAL_MspInit                              0x08011401   Thumb Code    78  stm32f4xx_hal_msp.o(.text)
    HAL_UART_MspInit                         0x0801144f   Thumb Code   692  stm32f4xx_hal_msp.o(.text)
    HAL_UART_MspDeInit                       0x08011703   Thumb Code    38  stm32f4xx_hal_msp.o(.text)
    HAL_InitTick                             0x08011749   Thumb Code   122  stm32f4xx_hal_timebase_tim.o(.text)
    HAL_SuspendTick                          0x080117c3   Thumb Code    18  stm32f4xx_hal_timebase_tim.o(.text)
    HAL_ResumeTick                           0x080117d5   Thumb Code    18  stm32f4xx_hal_timebase_tim.o(.text)
    NMI_Handler                              0x080117f9   Thumb Code     4  stm32f4xx_it.o(.text)
    HardFault_Handler                        0x080117fd   Thumb Code     4  stm32f4xx_it.o(.text)
    MemManage_Handler                        0x08011801   Thumb Code     4  stm32f4xx_it.o(.text)
    BusFault_Handler                         0x08011805   Thumb Code     4  stm32f4xx_it.o(.text)
    UsageFault_Handler                       0x08011809   Thumb Code     4  stm32f4xx_it.o(.text)
    DebugMon_Handler                         0x0801180d   Thumb Code     2  stm32f4xx_it.o(.text)
    TIM1_UP_TIM10_IRQHandler                 0x0801180f   Thumb Code    10  stm32f4xx_it.o(.text)
    OTG_FS_IRQHandler                        0x08011819   Thumb Code    20  stm32f4xx_it.o(.text)
    SystemInit                               0x08011839   Thumb Code    22  system_stm32f4xx.o(.text)
    SystemCoreClockUpdate                    0x0801184f   Thumb Code   170  system_stm32f4xx.o(.text)
    UART_Init                                0x08011915   Thumb Code   352  uart.o(.text)
    UART_Read                                0x08011a75   Thumb Code   162  uart.o(.text)
    UART_Write                               0x08011b17   Thumb Code   406  uart.o(.text)
    UART_GetBufferState                      0x08011cad   Thumb Code   244  uart.o(.text)
    USART1_IRQHandler                        0x08011da1   Thumb Code   164  uart.o(.text)
    USART2_IRQHandler                        0x08011e45   Thumb Code   164  uart.o(.text)
    USART3_IRQHandler                        0x08011ee9   Thumb Code   164  uart.o(.text)
    USART6_IRQHandler                        0x08011f8d   Thumb Code   164  uart.o(.text)
    fputc                                    0x08012031   Thumb Code    22  uart.o(.text)
    USBH_CDC_DataQueueInit                   0x08012089   Thumb Code    32  usbh_cdc.o(.text)
    USBH_CDC_WriteData                       0x080120a9   Thumb Code    38  usbh_cdc.o(.text)
    USBH_CDC_ReadData                        0x080120cf   Thumb Code    58  usbh_cdc.o(.text)
    USBH_CDC_GetLastReceivedDataSize         0x08012437   Thumb Code    34  usbh_cdc.o(.text)
    USBH_CDC_ReceiveCallback                 0x08012459   Thumb Code   212  usbh_cdc.o(.text)
    USBH_CDC_TransmitCallback                0x080125bf   Thumb Code     2  usbh_cdc.o(.text)
    USBH_CDC_Transmit                        0x0801268f   Thumb Code    80  usbh_cdc.o(.text)
    USBH_CDC_Receive                         0x080126df   Thumb Code    78  usbh_cdc.o(.text)
    USBH_CDC_Stop                            0x080127c9   Thumb Code    50  usbh_cdc.o(.text)
    USBH_CDC_SetLineCoding                   0x08012843   Thumb Code    50  usbh_cdc.o(.text)
    USBH_CDC_GetLineCoding                   0x08012875   Thumb Code    38  usbh_cdc.o(.text)
    USBH_CDC_LineCodingChanged               0x0801289b   Thumb Code     2  usbh_cdc.o(.text)
    USBH_Init                                0x08012903   Thumb Code   138  usbh_core.o(.text)
    USBH_DeInit                              0x0801298d   Thumb Code    52  usbh_core.o(.text)
    USBH_RegisterClass                       0x080129c1   Thumb Code    90  usbh_core.o(.text)
    USBH_SelectInterface                     0x08012a1b   Thumb Code   168  usbh_core.o(.text)
    USBH_GetActiveClass                      0x08012ac3   Thumb Code     8  usbh_core.o(.text)
    USBH_FindInterface                       0x08012acb   Thumb Code    80  usbh_core.o(.text)
    USBH_FindInterfaceIndex                  0x08012b1b   Thumb Code    62  usbh_core.o(.text)
    USBH_Start                               0x08012b59   Thumb Code    22  usbh_core.o(.text)
    USBH_Stop                                0x08012b6f   Thumb Code    38  usbh_core.o(.text)
    USBH_IsPortEnabled                       0x08012b95   Thumb Code     8  usbh_core.o(.text)
    USBH_ReEnumerate                         0x08012b9d   Thumb Code    54  usbh_core.o(.text)
    USBH_Process                             0x080131cd   Thumb Code  1374  usbh_core.o(.text)
    USBH_LL_SetTimer                         0x0801372b   Thumb Code     6  usbh_core.o(.text)
    USBH_LL_IncTimer                         0x08013889   Thumb Code    22  usbh_core.o(.text)
    USBH_LL_PortEnabled                      0x0801389f   Thumb Code    32  usbh_core.o(.text)
    USBH_LL_PortDisabled                     0x080138bf   Thumb Code     8  usbh_core.o(.text)
    USBH_LL_Connect                          0x080138c7   Thumb Code    44  usbh_core.o(.text)
    USBH_LL_Disconnect                       0x080138f3   Thumb Code    66  usbh_core.o(.text)
    USBH_LL_NotifyURBChange                  0x0801395f   Thumb Code    28  usbh_core.o(.text)
    USBH_CtlReq                              0x08013ced   Thumb Code   124  usbh_ctlreq.o(.text)
    USBH_GetDescriptor                       0x08013d69   Thumb Code    74  usbh_ctlreq.o(.text)
    USBH_Get_DevDesc                         0x08013db3   Thumb Code    46  usbh_ctlreq.o(.text)
    USBH_GetNextDesc                         0x08013e01   Thumb Code    18  usbh_ctlreq.o(.text)
    USBH_Get_CfgDesc                         0x08013f13   Thumb Code    46  usbh_ctlreq.o(.text)
    USBH_Get_StringDesc                      0x08013f77   Thumb Code    54  usbh_ctlreq.o(.text)
    USBH_SetAddress                          0x08013fad   Thumb Code    40  usbh_ctlreq.o(.text)
    USBH_SetCfg                              0x08013fd5   Thumb Code    40  usbh_ctlreq.o(.text)
    USBH_SetInterface                        0x08013ffd   Thumb Code    42  usbh_ctlreq.o(.text)
    USBH_SetFeature                          0x08014027   Thumb Code    40  usbh_ctlreq.o(.text)
    USBH_ClrFeature                          0x0801404f   Thumb Code    94  usbh_ctlreq.o(.text)
    USBH_CtlSendSetup                        0x080140ad   Thumb Code    38  usbh_ioreq.o(.text)
    USBH_CtlSendData                         0x080140d3   Thumb Code    52  usbh_ioreq.o(.text)
    USBH_CtlReceiveData                      0x08014107   Thumb Code    42  usbh_ioreq.o(.text)
    USBH_BulkSendData                        0x08014131   Thumb Code    52  usbh_ioreq.o(.text)
    USBH_BulkReceiveData                     0x08014165   Thumb Code    42  usbh_ioreq.o(.text)
    USBH_InterruptReceiveData                0x0801418f   Thumb Code    42  usbh_ioreq.o(.text)
    USBH_InterruptSendData                   0x080141b9   Thumb Code    42  usbh_ioreq.o(.text)
    USBH_IsocReceiveData                     0x080141e3   Thumb Code    44  usbh_ioreq.o(.text)
    USBH_IsocSendData                        0x0801420f   Thumb Code    46  usbh_ioreq.o(.text)
    USBH_OpenPipe                            0x0801423d   Thumb Code    42  usbh_pipes.o(.text)
    USBH_ClosePipe                           0x08014267   Thumb Code    18  usbh_pipes.o(.text)
    USBH_AllocPipe                           0x080142a1   Thumb Code    42  usbh_pipes.o(.text)
    USBH_FreePipe                            0x080142cb   Thumb Code    30  usbh_pipes.o(.text)
    RingBuf_Init                             0x0801430b   Thumb Code    26  gdu_ringbuffer.o(.text)
    RingBuf_Put                              0x08014325   Thumb Code   124  gdu_ringbuffer.o(.text)
    RingBuf_Get                              0x080143a1   Thumb Code   116  gdu_ringbuffer.o(.text)
    RingBuf_GetUnusedSize                    0x08014415   Thumb Code    16  gdu_ringbuffer.o(.text)
    GduTest_HighPowerApplyPinInit            0x08014425   Thumb Code    62  apply_high_power.o(.text)
    GduTest_WriteHighPowerApplyPin           0x08014463   Thumb Code    62  apply_high_power.o(.text)
    GduUpgradePlatformStm32_RebootSystem     0x080144d5   Thumb Code    64  upgrade_platform_opt_stm32.o(.text)
    GduUpgradePlatformStm32_CleanUpgradeProgramFileStoreArea 0x08014515   Thumb Code    26  upgrade_platform_opt_stm32.o(.text)
    GduUpgradePlatformStm32_CreateUpgradeProgramFile 0x0801452f   Thumb Code    20  upgrade_platform_opt_stm32.o(.text)
    GduUpgradePlatformStm32_WriteUpgradeProgramFile 0x08014543   Thumb Code    40  upgrade_platform_opt_stm32.o(.text)
    GduUpgradePlatformStm32_ReadUpgradeProgramFile 0x0801456b   Thumb Code    34  upgrade_platform_opt_stm32.o(.text)
    GduUpgradePlatformStm32_CloseUpgradeProgramFile 0x0801458d   Thumb Code    18  upgrade_platform_opt_stm32.o(.text)
    GduUpgradePlatformStm32_ReplaceOldProgram 0x0801459f   Thumb Code    64  upgrade_platform_opt_stm32.o(.text)
    GduUpgradePlatformStm32_SetUpgradeRebootState 0x080145df   Thumb Code    60  upgrade_platform_opt_stm32.o(.text)
    GduUpgradePlatformStm32_GetUpgradeRebootState 0x0801461b   Thumb Code    44  upgrade_platform_opt_stm32.o(.text)
    GduUpgradePlatformStm32_CleanUpgradeRebootState 0x08014647   Thumb Code    28  upgrade_platform_opt_stm32.o(.text)
    HAL_Init                                 0x080146cb   Thumb Code    54  stm32f4xx_hal.o(.text)
    HAL_MspDeInit                            0x08014701   Thumb Code     2  stm32f4xx_hal.o(.text)
    HAL_DeInit                               0x08014703   Thumb Code    64  stm32f4xx_hal.o(.text)
    HAL_IncTick                              0x08014743   Thumb Code    16  stm32f4xx_hal.o(.text)
    HAL_GetTick                              0x08014753   Thumb Code     6  stm32f4xx_hal.o(.text)
    HAL_GetTickPrio                          0x08014759   Thumb Code     6  stm32f4xx_hal.o(.text)
    HAL_SetTickFreq                          0x0801475f   Thumb Code    40  stm32f4xx_hal.o(.text)
    HAL_GetTickFreq                          0x08014787   Thumb Code     6  stm32f4xx_hal.o(.text)
    HAL_Delay                                0x0801478d   Thumb Code    36  stm32f4xx_hal.o(.text)
    HAL_GetHalVersion                        0x080147d5   Thumb Code     4  stm32f4xx_hal.o(.text)
    HAL_GetREVID                             0x080147d9   Thumb Code     8  stm32f4xx_hal.o(.text)
    HAL_GetDEVID                             0x080147e1   Thumb Code    10  stm32f4xx_hal.o(.text)
    HAL_DBGMCU_EnableDBGSleepMode            0x080147eb   Thumb Code    14  stm32f4xx_hal.o(.text)
    HAL_DBGMCU_DisableDBGSleepMode           0x080147f9   Thumb Code    14  stm32f4xx_hal.o(.text)
    HAL_DBGMCU_EnableDBGStopMode             0x08014807   Thumb Code    14  stm32f4xx_hal.o(.text)
    HAL_DBGMCU_DisableDBGStopMode            0x08014815   Thumb Code    14  stm32f4xx_hal.o(.text)
    HAL_DBGMCU_EnableDBGStandbyMode          0x08014823   Thumb Code    14  stm32f4xx_hal.o(.text)
    HAL_DBGMCU_DisableDBGStandbyMode         0x08014831   Thumb Code    14  stm32f4xx_hal.o(.text)
    HAL_EnableCompensationCell               0x0801483f   Thumb Code     8  stm32f4xx_hal.o(.text)
    HAL_DisableCompensationCell              0x08014847   Thumb Code     8  stm32f4xx_hal.o(.text)
    HAL_GetUIDw0                             0x0801484f   Thumb Code     6  stm32f4xx_hal.o(.text)
    HAL_GetUIDw1                             0x08014855   Thumb Code     8  stm32f4xx_hal.o(.text)
    HAL_GetUIDw2                             0x0801485d   Thumb Code     8  stm32f4xx_hal.o(.text)
    HAL_NVIC_SetPriorityGrouping             0x080148ad   Thumb Code    36  stm32f4xx_hal_cortex.o(.text)
    HAL_NVIC_SetPriority                     0x080148d1   Thumb Code   124  stm32f4xx_hal_cortex.o(.text)
    HAL_NVIC_EnableIRQ                       0x0801494d   Thumb Code    32  stm32f4xx_hal_cortex.o(.text)
    HAL_NVIC_DisableIRQ                      0x0801496d   Thumb Code    62  stm32f4xx_hal_cortex.o(.text)
    HAL_NVIC_SystemReset                     0x080149ab   Thumb Code    64  stm32f4xx_hal_cortex.o(.text)
    HAL_SYSTICK_Config                       0x080149eb   Thumb Code    52  stm32f4xx_hal_cortex.o(.text)
    HAL_MPU_Disable                          0x08014a1f   Thumb Code    42  stm32f4xx_hal_cortex.o(.text)
    HAL_MPU_Enable                           0x08014a49   Thumb Code    60  stm32f4xx_hal_cortex.o(.text)
    HAL_MPU_ConfigRegion                     0x08014a85   Thumb Code    90  stm32f4xx_hal_cortex.o(.text)
    HAL_NVIC_GetPriorityGrouping             0x08014adf   Thumb Code     8  stm32f4xx_hal_cortex.o(.text)
    HAL_NVIC_GetPriority                     0x08014ae7   Thumb Code   138  stm32f4xx_hal_cortex.o(.text)
    HAL_NVIC_SetPendingIRQ                   0x08014b71   Thumb Code    32  stm32f4xx_hal_cortex.o(.text)
    HAL_NVIC_GetPendingIRQ                   0x08014b91   Thumb Code    46  stm32f4xx_hal_cortex.o(.text)
    HAL_NVIC_ClearPendingIRQ                 0x08014bbf   Thumb Code    30  stm32f4xx_hal_cortex.o(.text)
    HAL_NVIC_GetActive                       0x08014bdd   Thumb Code    46  stm32f4xx_hal_cortex.o(.text)
    HAL_SYSTICK_CLKSourceConfig              0x08014c0b   Thumb Code    40  stm32f4xx_hal_cortex.o(.text)
    HAL_SYSTICK_Callback                     0x08014c33   Thumb Code     2  stm32f4xx_hal_cortex.o(.text)
    HAL_SYSTICK_IRQHandler                   0x08014c35   Thumb Code     8  stm32f4xx_hal_cortex.o(.text)
    HAL_DMA_Init                             0x08014d35   Thumb Code   232  stm32f4xx_hal_dma.o(.text)
    HAL_DMA_DeInit                           0x08014e1d   Thumb Code   112  stm32f4xx_hal_dma.o(.text)
    HAL_DMA_Start                            0x08014eb9   Thumb Code   102  stm32f4xx_hal_dma.o(.text)
    HAL_DMA_Start_IT                         0x08014f1f   Thumb Code   146  stm32f4xx_hal_dma.o(.text)
    HAL_DMA_Abort                            0x08014fb1   Thumb Code   180  stm32f4xx_hal_dma.o(.text)
    HAL_DMA_Abort_IT                         0x08015065   Thumb Code    40  stm32f4xx_hal_dma.o(.text)
    HAL_DMA_PollForTransfer                  0x0801508d   Thumb Code   346  stm32f4xx_hal_dma.o(.text)
    HAL_DMA_IRQHandler                       0x080151e7   Thumb Code   570  stm32f4xx_hal_dma.o(.text)
    HAL_DMA_RegisterCallback                 0x08015421   Thumb Code    94  stm32f4xx_hal_dma.o(.text)
    HAL_DMA_UnRegisterCallback               0x0801547f   Thumb Code   124  stm32f4xx_hal_dma.o(.text)
    HAL_DMA_GetState                         0x080154fb   Thumb Code     8  stm32f4xx_hal_dma.o(.text)
    HAL_DMA_GetError                         0x08015503   Thumb Code     6  stm32f4xx_hal_dma.o(.text)
    FLASH_WaitForLastOperation               0x0801559b   Thumb Code    90  stm32f4xx_hal_flash.o(.text)
    HAL_FLASH_Program                        0x080156a5   Thumb Code   146  stm32f4xx_hal_flash.o(.text)
    HAL_FLASH_Program_IT                     0x08015737   Thumb Code   130  stm32f4xx_hal_flash.o(.text)
    HAL_FLASH_EndOfOperationCallback         0x080157b9   Thumb Code     2  stm32f4xx_hal_flash.o(.text)
    HAL_FLASH_OperationErrorCallback         0x080157bb   Thumb Code     2  stm32f4xx_hal_flash.o(.text)
    HAL_FLASH_IRQHandler                     0x080157bd   Thumb Code   262  stm32f4xx_hal_flash.o(.text)
    HAL_FLASH_Unlock                         0x080158c3   Thumb Code    58  stm32f4xx_hal_flash.o(.text)
    HAL_FLASH_Lock                           0x080158fd   Thumb Code    16  stm32f4xx_hal_flash.o(.text)
    HAL_FLASH_OB_Unlock                      0x0801590d   Thumb Code    34  stm32f4xx_hal_flash.o(.text)
    HAL_FLASH_OB_Lock                        0x0801592f   Thumb Code    20  stm32f4xx_hal_flash.o(.text)
    HAL_FLASH_OB_Launch                      0x08015943   Thumb Code    28  stm32f4xx_hal_flash.o(.text)
    HAL_FLASH_GetError                       0x0801595f   Thumb Code     6  stm32f4xx_hal_flash.o(.text)
    FLASH_FlushCaches                        0x08015975   Thumb Code   114  stm32f4xx_hal_flash_ex.o(.text)
    FLASH_Erase_Sector                       0x080159e7   Thumb Code    92  stm32f4xx_hal_flash_ex.o(.text)
    HAL_FLASHEx_Erase                        0x08015a73   Thumb Code   172  stm32f4xx_hal_flash_ex.o(.text)
    HAL_FLASHEx_Erase_IT                     0x08015b1f   Thumb Code   116  stm32f4xx_hal_flash_ex.o(.text)
    HAL_FLASHEx_OBProgram                    0x08015c55   Thumb Code   144  stm32f4xx_hal_flash_ex.o(.text)
    HAL_FLASHEx_OBGetConfig                  0x08015d27   Thumb Code    34  stm32f4xx_hal_flash_ex.o(.text)
    HAL_GPIO_Init                            0x08015d51   Thumb Code   470  stm32f4xx_hal_gpio.o(.text)
    HAL_GPIO_DeInit                          0x08015f27   Thumb Code   316  stm32f4xx_hal_gpio.o(.text)
    HAL_GPIO_ReadPin                         0x08016063   Thumb Code    16  stm32f4xx_hal_gpio.o(.text)
    HAL_GPIO_WritePin                        0x08016073   Thumb Code    12  stm32f4xx_hal_gpio.o(.text)
    HAL_GPIO_TogglePin                       0x0801607f   Thumb Code    20  stm32f4xx_hal_gpio.o(.text)
    HAL_GPIO_LockPin                         0x08016093   Thumb Code    46  stm32f4xx_hal_gpio.o(.text)
    HAL_GPIO_EXTI_Callback                   0x080160c1   Thumb Code     2  stm32f4xx_hal_gpio.o(.text)
    HAL_GPIO_EXTI_IRQHandler                 0x080160c3   Thumb Code    28  stm32f4xx_hal_gpio.o(.text)
    HAL_HCD_Init                             0x0801610f   Thumb Code   116  stm32f4xx_hal_hcd.o(.text)
    HAL_HCD_HC_Init                          0x08016183   Thumb Code   262  stm32f4xx_hal_hcd.o(.text)
    HAL_HCD_HC_Halt                          0x08016289   Thumb Code    52  stm32f4xx_hal_hcd.o(.text)
    HAL_HCD_DeInit                           0x080162bf   Thumb Code    38  stm32f4xx_hal_hcd.o(.text)
    HAL_HCD_HC_SubmitRequest                 0x080162e5   Thumb Code   676  stm32f4xx_hal_hcd.o(.text)
    HAL_HCD_IRQHandler                       0x08017675   Thumb Code   364  stm32f4xx_hal_hcd.o(.text)
    HAL_HCD_WKUP_IRQHandler                  0x080177e1   Thumb Code     2  stm32f4xx_hal_hcd.o(.text)
    HAL_HCD_Start                            0x080177e3   Thumb Code    54  stm32f4xx_hal_hcd.o(.text)
    HAL_HCD_Stop                             0x08017819   Thumb Code    46  stm32f4xx_hal_hcd.o(.text)
    HAL_HCD_ResetPort                        0x08017847   Thumb Code    12  stm32f4xx_hal_hcd.o(.text)
    HAL_HCD_GetState                         0x08017853   Thumb Code     8  stm32f4xx_hal_hcd.o(.text)
    HAL_HCD_HC_GetURBState                   0x0801785b   Thumb Code    24  stm32f4xx_hal_hcd.o(.text)
    HAL_HCD_HC_GetXferCount                  0x08017873   Thumb Code    22  stm32f4xx_hal_hcd.o(.text)
    HAL_HCD_HC_GetState                      0x08017889   Thumb Code    24  stm32f4xx_hal_hcd.o(.text)
    HAL_HCD_GetCurrentFrame                  0x080178a1   Thumb Code    12  stm32f4xx_hal_hcd.o(.text)
    HAL_HCD_GetCurrentSpeed                  0x080178ad   Thumb Code    12  stm32f4xx_hal_hcd.o(.text)
    HAL_RCC_OscConfig                        0x080178bd   Thumb Code  1172  stm32f4xx_hal_rcc.o(.text)
    HAL_RCC_GetSysClockFreq                  0x08017d51   Thumb Code   164  stm32f4xx_hal_rcc.o(.text)
    HAL_RCC_ClockConfig                      0x08017df5   Thumb Code   390  stm32f4xx_hal_rcc.o(.text)
    HAL_RCC_MCOConfig                        0x08017f7b   Thumb Code   186  stm32f4xx_hal_rcc.o(.text)
    HAL_RCC_EnableCSS                        0x08018035   Thumb Code     8  stm32f4xx_hal_rcc.o(.text)
    HAL_RCC_DisableCSS                       0x0801803d   Thumb Code     8  stm32f4xx_hal_rcc.o(.text)
    HAL_RCC_GetHCLKFreq                      0x08018045   Thumb Code     6  stm32f4xx_hal_rcc.o(.text)
    HAL_RCC_GetPCLK1Freq                     0x0801804b   Thumb Code    24  stm32f4xx_hal_rcc.o(.text)
    HAL_RCC_GetPCLK2Freq                     0x08018063   Thumb Code    24  stm32f4xx_hal_rcc.o(.text)
    HAL_RCC_GetOscConfig                     0x0801807b   Thumb Code   284  stm32f4xx_hal_rcc.o(.text)
    HAL_RCC_GetClockConfig                   0x08018197   Thumb Code    66  stm32f4xx_hal_rcc.o(.text)
    HAL_RCC_CSSCallback                      0x080181d9   Thumb Code     2  stm32f4xx_hal_rcc.o(.text)
    HAL_RCC_NMI_IRQHandler                   0x080181db   Thumb Code    30  stm32f4xx_hal_rcc.o(.text)
    TIM_Base_SetConfig                       0x08018201   Thumb Code   170  stm32f4xx_hal_tim.o(.text)
    HAL_TIM_Base_MspInit                     0x080182ab   Thumb Code     2  stm32f4xx_hal_tim.o(.text)
    HAL_TIM_Base_Init                        0x080182ad   Thumb Code   102  stm32f4xx_hal_tim.o(.text)
    HAL_TIM_Base_MspDeInit                   0x08018313   Thumb Code     2  stm32f4xx_hal_tim.o(.text)
    HAL_TIM_Base_DeInit                      0x08018315   Thumb Code   120  stm32f4xx_hal_tim.o(.text)
    HAL_TIM_Base_Start                       0x0801838d   Thumb Code   126  stm32f4xx_hal_tim.o(.text)
    HAL_TIM_Base_Stop                        0x0801840b   Thumb Code    50  stm32f4xx_hal_tim.o(.text)
    HAL_TIM_Base_Start_IT                    0x0801843d   Thumb Code   138  stm32f4xx_hal_tim.o(.text)
    HAL_TIM_Base_Stop_IT                     0x080184c7   Thumb Code    62  stm32f4xx_hal_tim.o(.text)
    HAL_TIM_ErrorCallback                    0x08018505   Thumb Code     2  stm32f4xx_hal_tim.o(.text)
    TIM_DMAError                             0x08018507   Thumb Code    94  stm32f4xx_hal_tim.o(.text)
    HAL_TIM_PeriodElapsedHalfCpltCallback    0x08018565   Thumb Code     2  stm32f4xx_hal_tim.o(.text)
    HAL_TIM_Base_Start_DMA                   0x08018591   Thumb Code   262  stm32f4xx_hal_tim.o(.text)
    HAL_TIM_Base_Stop_DMA                    0x08018697   Thumb Code    70  stm32f4xx_hal_tim.o(.text)
    HAL_TIM_OC_MspInit                       0x080186dd   Thumb Code     2  stm32f4xx_hal_tim.o(.text)
    HAL_TIM_OC_Init                          0x080186df   Thumb Code   102  stm32f4xx_hal_tim.o(.text)
    HAL_TIM_OC_MspDeInit                     0x08018745   Thumb Code     2  stm32f4xx_hal_tim.o(.text)
    HAL_TIM_OC_DeInit                        0x08018747   Thumb Code   120  stm32f4xx_hal_tim.o(.text)
    TIM_CCxChannelCmd                        0x080187bf   Thumb Code    34  stm32f4xx_hal_tim.o(.text)
    HAL_TIM_OC_Start                         0x080187e1   Thumb Code   238  stm32f4xx_hal_tim.o(.text)
    HAL_TIM_OC_Stop                          0x080188cf   Thumb Code   160  stm32f4xx_hal_tim.o(.text)
    HAL_TIM_OC_Start_IT                      0x0801896f   Thumb Code   342  stm32f4xx_hal_tim.o(.text)
    HAL_TIM_OC_Stop_IT                       0x08018ac5   Thumb Code   236  stm32f4xx_hal_tim.o(.text)
    HAL_TIM_PWM_PulseFinishedHalfCpltCallback 0x08018bb1   Thumb Code     2  stm32f4xx_hal_tim.o(.text)
    TIM_DMADelayPulseHalfCplt                0x08018bb3   Thumb Code    64  stm32f4xx_hal_tim.o(.text)
    HAL_TIM_PWM_PulseFinishedCallback        0x08018bf3   Thumb Code     2  stm32f4xx_hal_tim.o(.text)
    HAL_TIM_OC_Start_DMA                     0x08018c5d   Thumb Code   582  stm32f4xx_hal_tim.o(.text)
    HAL_TIM_OC_Stop_DMA                      0x08018ea3   Thumb Code   260  stm32f4xx_hal_tim.o(.text)
    HAL_TIM_PWM_MspInit                      0x08018fa7   Thumb Code     2  stm32f4xx_hal_tim.o(.text)
    HAL_TIM_PWM_Init                         0x08018fa9   Thumb Code   102  stm32f4xx_hal_tim.o(.text)
    HAL_TIM_PWM_MspDeInit                    0x0801900f   Thumb Code     2  stm32f4xx_hal_tim.o(.text)
    HAL_TIM_PWM_DeInit                       0x08019011   Thumb Code   120  stm32f4xx_hal_tim.o(.text)
    HAL_TIM_PWM_Start                        0x08019089   Thumb Code   238  stm32f4xx_hal_tim.o(.text)
    HAL_TIM_PWM_Stop                         0x08019177   Thumb Code   160  stm32f4xx_hal_tim.o(.text)
    HAL_TIM_PWM_Start_IT                     0x08019217   Thumb Code   342  stm32f4xx_hal_tim.o(.text)
    HAL_TIM_PWM_Stop_IT                      0x0801936d   Thumb Code   236  stm32f4xx_hal_tim.o(.text)
    HAL_TIM_PWM_Start_DMA                    0x08019459   Thumb Code   542  stm32f4xx_hal_tim.o(.text)
    HAL_TIM_PWM_Stop_DMA                     0x08019677   Thumb Code   296  stm32f4xx_hal_tim.o(.text)
    HAL_TIM_IC_MspInit                       0x0801979f   Thumb Code     2  stm32f4xx_hal_tim.o(.text)
    HAL_TIM_IC_Init                          0x080197a1   Thumb Code   102  stm32f4xx_hal_tim.o(.text)
    HAL_TIM_IC_MspDeInit                     0x08019807   Thumb Code     2  stm32f4xx_hal_tim.o(.text)
    HAL_TIM_IC_DeInit                        0x08019809   Thumb Code   120  stm32f4xx_hal_tim.o(.text)
    HAL_TIM_IC_Start                         0x08019881   Thumb Code   288  stm32f4xx_hal_tim.o(.text)
    HAL_TIM_IC_Stop                          0x080199a1   Thumb Code   138  stm32f4xx_hal_tim.o(.text)
    HAL_TIM_IC_Start_IT                      0x08019a2b   Thumb Code   392  stm32f4xx_hal_tim.o(.text)
    HAL_TIM_IC_Stop_IT                       0x08019bb3   Thumb Code   214  stm32f4xx_hal_tim.o(.text)
    HAL_TIM_IC_CaptureHalfCpltCallback       0x08019c89   Thumb Code     2  stm32f4xx_hal_tim.o(.text)
    TIM_DMACaptureHalfCplt                   0x08019c8b   Thumb Code    64  stm32f4xx_hal_tim.o(.text)
    HAL_TIM_IC_CaptureCallback               0x08019ccb   Thumb Code     2  stm32f4xx_hal_tim.o(.text)
    TIM_DMACaptureCplt                       0x08019ccd   Thumb Code   122  stm32f4xx_hal_tim.o(.text)
    HAL_TIM_IC_Start_DMA                     0x08019d47   Thumb Code   610  stm32f4xx_hal_tim.o(.text)
    HAL_TIM_IC_Stop_DMA                      0x08019fa9   Thumb Code   238  stm32f4xx_hal_tim.o(.text)
    HAL_TIM_OnePulse_MspInit                 0x0801a097   Thumb Code     2  stm32f4xx_hal_tim.o(.text)
    HAL_TIM_OnePulse_Init                    0x0801a099   Thumb Code   102  stm32f4xx_hal_tim.o(.text)
    HAL_TIM_OnePulse_MspDeInit               0x0801a0ff   Thumb Code     2  stm32f4xx_hal_tim.o(.text)
    HAL_TIM_OnePulse_DeInit                  0x0801a101   Thumb Code    96  stm32f4xx_hal_tim.o(.text)
    HAL_TIM_OnePulse_Start                   0x0801a161   Thumb Code   132  stm32f4xx_hal_tim.o(.text)
    HAL_TIM_OnePulse_Stop                    0x0801a1e5   Thumb Code   152  stm32f4xx_hal_tim.o(.text)
    HAL_TIM_OnePulse_Start_IT                0x0801a27d   Thumb Code   156  stm32f4xx_hal_tim.o(.text)
    HAL_TIM_OnePulse_Stop_IT                 0x0801a319   Thumb Code   194  stm32f4xx_hal_tim.o(.text)
    HAL_TIM_Encoder_MspInit                  0x0801a3db   Thumb Code     2  stm32f4xx_hal_tim.o(.text)
    HAL_TIM_Encoder_Init                     0x0801a3dd   Thumb Code   200  stm32f4xx_hal_tim.o(.text)
    HAL_TIM_Encoder_MspDeInit                0x0801a4a5   Thumb Code     2  stm32f4xx_hal_tim.o(.text)
    HAL_TIM_Encoder_DeInit                   0x0801a4a7   Thumb Code    96  stm32f4xx_hal_tim.o(.text)
    HAL_TIM_Encoder_Start                    0x0801a507   Thumb Code   204  stm32f4xx_hal_tim.o(.text)
    HAL_TIM_Encoder_Stop                     0x0801a5d3   Thumb Code   214  stm32f4xx_hal_tim.o(.text)
    HAL_TIM_Encoder_Start_IT                 0x0801a6a9   Thumb Code   252  stm32f4xx_hal_tim.o(.text)
    HAL_TIM_Encoder_Stop_IT                  0x0801a7a5   Thumb Code   256  stm32f4xx_hal_tim.o(.text)
    HAL_TIM_Encoder_Start_DMA                0x0801a8a5   Thumb Code   568  stm32f4xx_hal_tim.o(.text)
    HAL_TIM_Encoder_Stop_DMA                 0x0801aadd   Thumb Code   280  stm32f4xx_hal_tim.o(.text)
    HAL_TIM_TriggerCallback                  0x0801abf5   Thumb Code     2  stm32f4xx_hal_tim.o(.text)
    HAL_TIM_OC_DelayElapsedCallback          0x0801abf7   Thumb Code     2  stm32f4xx_hal_tim.o(.text)
    HAL_TIM_IRQHandler                       0x0801abf9   Thumb Code   412  stm32f4xx_hal_tim.o(.text)
    TIM_OC2_SetConfig                        0x0801ae4f   Thumb Code   114  stm32f4xx_hal_tim.o(.text)
    HAL_TIM_OC_ConfigChannel                 0x0801af29   Thumb Code   104  stm32f4xx_hal_tim.o(.text)
    TIM_TI1_SetConfig                        0x0801b03f   Thumb Code   114  stm32f4xx_hal_tim.o(.text)
    HAL_TIM_IC_ConfigChannel                 0x0801b0b1   Thumb Code   212  stm32f4xx_hal_tim.o(.text)
    HAL_TIM_PWM_ConfigChannel                0x0801b185   Thumb Code   282  stm32f4xx_hal_tim.o(.text)
    HAL_TIM_OnePulse_ConfigChannel           0x0801b29f   Thumb Code   286  stm32f4xx_hal_tim.o(.text)
    HAL_TIM_TriggerHalfCpltCallback          0x0801b3bd   Thumb Code     2  stm32f4xx_hal_tim.o(.text)
    HAL_TIM_DMABurst_MultiWriteStart         0x0801b3e7   Thumb Code   424  stm32f4xx_hal_tim.o(.text)
    HAL_TIM_DMABurst_WriteStart              0x0801b58f   Thumb Code    38  stm32f4xx_hal_tim.o(.text)
    HAL_TIM_DMABurst_WriteStop               0x0801b5b5   Thumb Code   134  stm32f4xx_hal_tim.o(.text)
    HAL_TIM_DMABurst_MultiReadStart          0x0801b63b   Thumb Code   424  stm32f4xx_hal_tim.o(.text)
    HAL_TIM_DMABurst_ReadStart               0x0801b7e3   Thumb Code    38  stm32f4xx_hal_tim.o(.text)
    HAL_TIM_DMABurst_ReadStop                0x0801b809   Thumb Code   180  stm32f4xx_hal_tim.o(.text)
    HAL_TIM_GenerateEvent                    0x0801b8bd   Thumb Code    54  stm32f4xx_hal_tim.o(.text)
    TIM_ETR_SetConfig                        0x0801b8f3   Thumb Code    22  stm32f4xx_hal_tim.o(.text)
    HAL_TIM_ConfigOCrefClear                 0x0801b909   Thumb Code   270  stm32f4xx_hal_tim.o(.text)
    HAL_TIM_ConfigClockSource                0x0801ba77   Thumb Code   264  stm32f4xx_hal_tim.o(.text)
    HAL_TIM_ConfigTI1Input                   0x0801bb7f   Thumb Code    22  stm32f4xx_hal_tim.o(.text)
    HAL_TIM_SlaveConfigSynchro               0x0801bc3f   Thumb Code   108  stm32f4xx_hal_tim.o(.text)
    HAL_TIM_SlaveConfigSynchro_IT            0x0801bcab   Thumb Code   108  stm32f4xx_hal_tim.o(.text)
    HAL_TIM_ReadCapturedValue                0x0801bd17   Thumb Code    50  stm32f4xx_hal_tim.o(.text)
    HAL_TIM_Base_GetState                    0x0801bd49   Thumb Code     8  stm32f4xx_hal_tim.o(.text)
    HAL_TIM_OC_GetState                      0x0801bd51   Thumb Code     8  stm32f4xx_hal_tim.o(.text)
    HAL_TIM_PWM_GetState                     0x0801bd59   Thumb Code     8  stm32f4xx_hal_tim.o(.text)
    HAL_TIM_IC_GetState                      0x0801bd61   Thumb Code     8  stm32f4xx_hal_tim.o(.text)
    HAL_TIM_OnePulse_GetState                0x0801bd69   Thumb Code     8  stm32f4xx_hal_tim.o(.text)
    HAL_TIM_Encoder_GetState                 0x0801bd71   Thumb Code     8  stm32f4xx_hal_tim.o(.text)
    HAL_TIM_GetActiveChannel                 0x0801bd79   Thumb Code     6  stm32f4xx_hal_tim.o(.text)
    HAL_TIM_GetChannelState                  0x0801bd7f   Thumb Code    38  stm32f4xx_hal_tim.o(.text)
    HAL_TIM_DMABurstState                    0x0801bda5   Thumb Code     8  stm32f4xx_hal_tim.o(.text)
    HAL_TIMEx_HallSensor_MspInit             0x0801bdad   Thumb Code     2  stm32f4xx_hal_tim_ex.o(.text)
    HAL_TIMEx_HallSensor_Init                0x0801bdaf   Thumb Code   234  stm32f4xx_hal_tim_ex.o(.text)
    HAL_TIMEx_HallSensor_MspDeInit           0x0801be99   Thumb Code     2  stm32f4xx_hal_tim_ex.o(.text)
    HAL_TIMEx_HallSensor_DeInit              0x0801be9b   Thumb Code    96  stm32f4xx_hal_tim_ex.o(.text)
    HAL_TIMEx_HallSensor_Start               0x0801befb   Thumb Code   188  stm32f4xx_hal_tim_ex.o(.text)
    HAL_TIMEx_HallSensor_Stop                0x0801bfb7   Thumb Code    78  stm32f4xx_hal_tim_ex.o(.text)
    HAL_TIMEx_HallSensor_Start_IT            0x0801c005   Thumb Code   200  stm32f4xx_hal_tim_ex.o(.text)
    HAL_TIMEx_HallSensor_Stop_IT             0x0801c0cd   Thumb Code    90  stm32f4xx_hal_tim_ex.o(.text)
    HAL_TIMEx_HallSensor_Start_DMA           0x0801c127   Thumb Code   240  stm32f4xx_hal_tim_ex.o(.text)
    HAL_TIMEx_HallSensor_Stop_DMA            0x0801c217   Thumb Code    84  stm32f4xx_hal_tim_ex.o(.text)
    HAL_TIMEx_OCN_Start                      0x0801c28d   Thumb Code   256  stm32f4xx_hal_tim_ex.o(.text)
    HAL_TIMEx_OCN_Stop                       0x0801c38d   Thumb Code   136  stm32f4xx_hal_tim_ex.o(.text)
    HAL_TIMEx_OCN_Start_IT                   0x0801c415   Thumb Code   284  stm32f4xx_hal_tim_ex.o(.text)
    HAL_TIMEx_OCN_Stop_IT                    0x0801c531   Thumb Code   218  stm32f4xx_hal_tim_ex.o(.text)
    HAL_TIMEx_OCN_Start_DMA                  0x0801c6b7   Thumb Code   448  stm32f4xx_hal_tim_ex.o(.text)
    HAL_TIMEx_OCN_Stop_DMA                   0x0801c877   Thumb Code   252  stm32f4xx_hal_tim_ex.o(.text)
    HAL_TIMEx_PWMN_Start                     0x0801c973   Thumb Code   214  stm32f4xx_hal_tim_ex.o(.text)
    HAL_TIMEx_PWMN_Stop                      0x0801ca49   Thumb Code   136  stm32f4xx_hal_tim_ex.o(.text)
    HAL_TIMEx_PWMN_Start_IT                  0x0801cad1   Thumb Code   284  stm32f4xx_hal_tim_ex.o(.text)
    HAL_TIMEx_PWMN_Stop_IT                   0x0801cbed   Thumb Code   218  stm32f4xx_hal_tim_ex.o(.text)
    HAL_TIMEx_PWMN_Start_DMA                 0x0801ccc7   Thumb Code   488  stm32f4xx_hal_tim_ex.o(.text)
    HAL_TIMEx_PWMN_Stop_DMA                  0x0801ceaf   Thumb Code   212  stm32f4xx_hal_tim_ex.o(.text)
    HAL_TIMEx_OnePulseN_Start                0x0801cf83   Thumb Code   118  stm32f4xx_hal_tim_ex.o(.text)
    HAL_TIMEx_OnePulseN_Stop                 0x0801cff9   Thumb Code   138  stm32f4xx_hal_tim_ex.o(.text)
    HAL_TIMEx_OnePulseN_Start_IT             0x0801d083   Thumb Code   142  stm32f4xx_hal_tim_ex.o(.text)
    HAL_TIMEx_OnePulseN_Stop_IT              0x0801d111   Thumb Code   162  stm32f4xx_hal_tim_ex.o(.text)
    HAL_TIMEx_ConfigCommutEvent              0x0801d1b3   Thumb Code   176  stm32f4xx_hal_tim_ex.o(.text)
    HAL_TIMEx_ConfigCommutEvent_IT           0x0801d263   Thumb Code   134  stm32f4xx_hal_tim_ex.o(.text)
    HAL_TIMEx_CommutHalfCpltCallback         0x0801d2e9   Thumb Code     2  stm32f4xx_hal_tim_ex.o(.text)
    TIMEx_DMACommutationHalfCplt             0x0801d2eb   Thumb Code    20  stm32f4xx_hal_tim_ex.o(.text)
    HAL_TIMEx_CommutCallback                 0x0801d2ff   Thumb Code     2  stm32f4xx_hal_tim_ex.o(.text)
    TIMEx_DMACommutationCplt                 0x0801d301   Thumb Code    20  stm32f4xx_hal_tim_ex.o(.text)
    HAL_TIMEx_ConfigCommutEvent_DMA          0x0801d315   Thumb Code   156  stm32f4xx_hal_tim_ex.o(.text)
    HAL_TIMEx_MasterConfigSynchronization    0x0801d3b1   Thumb Code   150  stm32f4xx_hal_tim_ex.o(.text)
    HAL_TIMEx_ConfigBreakDeadTime            0x0801d447   Thumb Code   116  stm32f4xx_hal_tim_ex.o(.text)
    HAL_TIMEx_RemapConfig                    0x0801d4bb   Thumb Code    42  stm32f4xx_hal_tim_ex.o(.text)
    HAL_TIMEx_BreakCallback                  0x0801d4e5   Thumb Code     2  stm32f4xx_hal_tim_ex.o(.text)
    HAL_TIMEx_HallSensor_GetState            0x0801d4e7   Thumb Code     8  stm32f4xx_hal_tim_ex.o(.text)
    HAL_TIMEx_GetChannelNState               0x0801d4ef   Thumb Code    38  stm32f4xx_hal_tim_ex.o(.text)
    HAL_UART_Init                            0x0801d759   Thumb Code   114  stm32f4xx_hal_uart.o(.text)
    HAL_HalfDuplex_Init                      0x0801d7cb   Thumb Code   118  stm32f4xx_hal_uart.o(.text)
    HAL_LIN_Init                             0x0801d841   Thumb Code   142  stm32f4xx_hal_uart.o(.text)
    HAL_MultiProcessor_Init                  0x0801d8cf   Thumb Code   162  stm32f4xx_hal_uart.o(.text)
    HAL_UART_DeInit                          0x0801d973   Thumb Code    60  stm32f4xx_hal_uart.o(.text)
    HAL_UART_Transmit                        0x0801da1b   Thumb Code   210  stm32f4xx_hal_uart.o(.text)
    HAL_UART_Receive                         0x0801daed   Thumb Code   220  stm32f4xx_hal_uart.o(.text)
    HAL_UART_Transmit_IT                     0x0801dbc9   Thumb Code    88  stm32f4xx_hal_uart.o(.text)
    UART_Start_Receive_IT                    0x0801dc21   Thumb Code    70  stm32f4xx_hal_uart.o(.text)
    HAL_UART_Receive_IT                      0x0801dc67   Thumb Code    66  stm32f4xx_hal_uart.o(.text)
    HAL_UART_ErrorCallback                   0x0801dca9   Thumb Code     2  stm32f4xx_hal_uart.o(.text)
    HAL_UART_TxHalfCpltCallback              0x0801dd45   Thumb Code     2  stm32f4xx_hal_uart.o(.text)
    HAL_UART_TxCpltCallback                  0x0801dd55   Thumb Code     2  stm32f4xx_hal_uart.o(.text)
    HAL_UART_Transmit_DMA                    0x0801dd8d   Thumb Code   142  stm32f4xx_hal_uart.o(.text)
    HAL_UART_RxHalfCpltCallback              0x0801de1b   Thumb Code     2  stm32f4xx_hal_uart.o(.text)
    HAL_UARTEx_RxEventCallback               0x0801de1d   Thumb Code     2  stm32f4xx_hal_uart.o(.text)
    HAL_UART_RxCpltCallback                  0x0801de3f   Thumb Code     2  stm32f4xx_hal_uart.o(.text)
    UART_Start_Receive_DMA                   0x0801dea9   Thumb Code   138  stm32f4xx_hal_uart.o(.text)
    HAL_UART_Receive_DMA                     0x0801df33   Thumb Code    66  stm32f4xx_hal_uart.o(.text)
    HAL_UART_DMAPause                        0x0801df75   Thumb Code   124  stm32f4xx_hal_uart.o(.text)
    HAL_UART_DMAResume                       0x0801dff1   Thumb Code   126  stm32f4xx_hal_uart.o(.text)
    HAL_UART_DMAStop                         0x0801e06f   Thumb Code   102  stm32f4xx_hal_uart.o(.text)
    HAL_UARTEx_ReceiveToIdle                 0x0801e0d5   Thumb Code   338  stm32f4xx_hal_uart.o(.text)
    HAL_UARTEx_ReceiveToIdle_IT              0x0801e227   Thumb Code   114  stm32f4xx_hal_uart.o(.text)
    HAL_UARTEx_ReceiveToIdle_DMA             0x0801e299   Thumb Code   114  stm32f4xx_hal_uart.o(.text)
    HAL_UART_Abort                           0x0801e30b   Thumb Code   192  stm32f4xx_hal_uart.o(.text)
    HAL_UART_AbortTransmit                   0x0801e3cb   Thumb Code    90  stm32f4xx_hal_uart.o(.text)
    HAL_UART_AbortReceive                    0x0801e425   Thumb Code   124  stm32f4xx_hal_uart.o(.text)
    HAL_UART_AbortCpltCallback               0x0801e4a1   Thumb Code     2  stm32f4xx_hal_uart.o(.text)
    HAL_UART_Abort_IT                        0x0801e513   Thumb Code   238  stm32f4xx_hal_uart.o(.text)
    HAL_UART_AbortTransmitCpltCallback       0x0801e601   Thumb Code     2  stm32f4xx_hal_uart.o(.text)
    HAL_UART_AbortTransmit_IT                0x0801e61b   Thumb Code   104  stm32f4xx_hal_uart.o(.text)
    HAL_UART_AbortReceiveCpltCallback        0x0801e683   Thumb Code     2  stm32f4xx_hal_uart.o(.text)
    HAL_UART_AbortReceive_IT                 0x0801e6a1   Thumb Code   142  stm32f4xx_hal_uart.o(.text)
    HAL_UART_IRQHandler                      0x0801e881   Thumb Code   606  stm32f4xx_hal_uart.o(.text)
    HAL_LIN_SendBreak                        0x0801eadf   Thumb Code    62  stm32f4xx_hal_uart.o(.text)
    HAL_MultiProcessor_EnterMuteMode         0x0801eb1d   Thumb Code    62  stm32f4xx_hal_uart.o(.text)
    HAL_MultiProcessor_ExitMuteMode          0x0801eb5b   Thumb Code    62  stm32f4xx_hal_uart.o(.text)
    HAL_HalfDuplex_EnableTransmitter         0x0801eb99   Thumb Code    68  stm32f4xx_hal_uart.o(.text)
    HAL_HalfDuplex_EnableReceiver            0x0801ebdd   Thumb Code    68  stm32f4xx_hal_uart.o(.text)
    HAL_UART_GetState                        0x0801ec21   Thumb Code    20  stm32f4xx_hal_uart.o(.text)
    HAL_UART_GetError                        0x0801ec35   Thumb Code     6  stm32f4xx_hal_uart.o(.text)
    USB_CoreInit                             0x0801ec87   Thumb Code   128  stm32f4xx_ll_usb.o(.text)
    USB_SetTurnaroundTime                    0x0801ed07   Thumb Code   192  stm32f4xx_ll_usb.o(.text)
    USB_EnableGlobalInt                      0x0801edc7   Thumb Code    14  stm32f4xx_ll_usb.o(.text)
    USB_DisableGlobalInt                     0x0801edd5   Thumb Code    14  stm32f4xx_ll_usb.o(.text)
    USB_SetCurrentMode                       0x0801ede3   Thumb Code    54  stm32f4xx_ll_usb.o(.text)
    USB_FlushRxFifo                          0x0801ee19   Thumb Code    38  stm32f4xx_ll_usb.o(.text)
    USB_FlushTxFifo                          0x0801ee3f   Thumb Code    44  stm32f4xx_ll_usb.o(.text)
    USB_SetDevSpeed                          0x0801ee6b   Thumb Code    18  stm32f4xx_ll_usb.o(.text)
    USB_DevInit                              0x0801ee7d   Thumb Code   526  stm32f4xx_ll_usb.o(.text)
    USB_GetDevSpeed                          0x0801f08b   Thumb Code    38  stm32f4xx_ll_usb.o(.text)
    USB_ActivateEndpoint                     0x0801f0b1   Thumb Code   202  stm32f4xx_ll_usb.o(.text)
    USB_ActivateDedicatedEndpoint            0x0801f17b   Thumb Code   198  stm32f4xx_ll_usb.o(.text)
    USB_DeactivateEndpoint                   0x0801f241   Thumb Code   318  stm32f4xx_ll_usb.o(.text)
    USB_DeactivateDedicatedEndpoint          0x0801f37f   Thumb Code   282  stm32f4xx_ll_usb.o(.text)
    USB_WritePacket                          0x0801f499   Thumb Code    60  stm32f4xx_ll_usb.o(.text)
    USB_EPStartXfer                          0x0801f4d5   Thumb Code   832  stm32f4xx_ll_usb.o(.text)
    USB_EP0StartXfer                         0x0801f815   Thumb Code   474  stm32f4xx_ll_usb.o(.text)
    USB_ReadPacket                           0x0801f9ef   Thumb Code    34  stm32f4xx_ll_usb.o(.text)
    USB_EPSetStall                           0x0801fa11   Thumb Code   154  stm32f4xx_ll_usb.o(.text)
    USB_EPClearStall                         0x0801faab   Thumb Code   142  stm32f4xx_ll_usb.o(.text)
    USB_StopDevice                           0x0801fb39   Thumb Code    92  stm32f4xx_ll_usb.o(.text)
    USB_SetDevAddress                        0x0801fb95   Thumb Code    42  stm32f4xx_ll_usb.o(.text)
    USB_DevConnect                           0x0801fbbf   Thumb Code    36  stm32f4xx_ll_usb.o(.text)
    USB_DevDisconnect                        0x0801fbe3   Thumb Code    36  stm32f4xx_ll_usb.o(.text)
    USB_ReadInterrupts                       0x0801fc07   Thumb Code    10  stm32f4xx_ll_usb.o(.text)
    USB_ReadDevAllOutEpInterrupt             0x0801fc11   Thumb Code    20  stm32f4xx_ll_usb.o(.text)
    USB_ReadDevAllInEpInterrupt              0x0801fc25   Thumb Code    20  stm32f4xx_ll_usb.o(.text)
    USB_ReadDevOutEPInterrupt                0x0801fc39   Thumb Code    26  stm32f4xx_ll_usb.o(.text)
    USB_ReadDevInEPInterrupt                 0x0801fc53   Thumb Code    50  stm32f4xx_ll_usb.o(.text)
    USB_ClearInterrupts                      0x0801fc85   Thumb Code     8  stm32f4xx_ll_usb.o(.text)
    USB_GetMode                              0x0801fc8d   Thumb Code    10  stm32f4xx_ll_usb.o(.text)
    USB_ActivateSetup                        0x0801fc97   Thumb Code    40  stm32f4xx_ll_usb.o(.text)
    USB_EP0_OutStart                         0x0801fcbf   Thumb Code   106  stm32f4xx_ll_usb.o(.text)
    USB_DriveVbus                            0x0801fd29   Thumb Code    84  stm32f4xx_ll_usb.o(.text)
    USB_HostInit                             0x0801fd7d   Thumb Code   234  stm32f4xx_ll_usb.o(.text)
    USB_InitFSLSPClkSel                      0x0801fe67   Thumb Code    68  stm32f4xx_ll_usb.o(.text)
    USB_ResetPort                            0x0801feab   Thumb Code    60  stm32f4xx_ll_usb.o(.text)
    USB_GetHostSpeed                         0x0801fee7   Thumb Code    24  stm32f4xx_ll_usb.o(.text)
    USB_GetCurrentFrame                      0x0801feff   Thumb Code    14  stm32f4xx_ll_usb.o(.text)
    USB_HC_Init                              0x0801ff0d   Thumb Code   420  stm32f4xx_ll_usb.o(.text)
    USB_DoPing                               0x080200b1   Thumb Code    64  stm32f4xx_ll_usb.o(.text)
    USB_HC_StartXfer                         0x080200f1   Thumb Code   482  stm32f4xx_ll_usb.o(.text)
    USB_HC_ReadInterrupt                     0x080202d3   Thumb Code    14  stm32f4xx_ll_usb.o(.text)
    USB_HC_Halt                              0x080202e1   Thumb Code   432  stm32f4xx_ll_usb.o(.text)
    USB_StopHost                             0x08020491   Thumb Code   180  stm32f4xx_ll_usb.o(.text)
    USB_ActivateRemoteWakeup                 0x08020545   Thumb Code    36  stm32f4xx_ll_usb.o(.text)
    USB_DeActivateRemoteWakeup               0x08020569   Thumb Code    24  stm32f4xx_ll_usb.o(.text)
    osKernelStart                            0x080205b1   Thumb Code    10  cmsis_os.o(.text)
    osKernelRunning                          0x080205bb   Thumb Code    18  cmsis_os.o(.text)
    osKernelSysTick                          0x080205cd   Thumb Code    20  cmsis_os.o(.text)
    osThreadCreate                           0x080205e1   Thumb Code    48  cmsis_os.o(.text)
    osThreadGetId                            0x08020611   Thumb Code     8  cmsis_os.o(.text)
    osThreadTerminate                        0x08020619   Thumb Code    14  cmsis_os.o(.text)
    osThreadYield                            0x08020627   Thumb Code    20  cmsis_os.o(.text)
    osThreadSetPriority                      0x0802063b   Thumb Code    26  cmsis_os.o(.text)
    osThreadGetPriority                      0x08020655   Thumb Code    38  cmsis_os.o(.text)
    osDelay                                  0x0802067b   Thumb Code    24  cmsis_os.o(.text)
    osTimerCreate                            0x08020693   Thumb Code     6  cmsis_os.o(.text)
    osTimerStart                             0x08020699   Thumb Code     8  cmsis_os.o(.text)
    osTimerStop                              0x080206a1   Thumb Code     8  cmsis_os.o(.text)
    osTimerDelete                            0x080206a9   Thumb Code     8  cmsis_os.o(.text)
    osSignalSet                              0x080206b1   Thumb Code    92  cmsis_os.o(.text)
    osSignalWait                             0x0802070d   Thumb Code    98  cmsis_os.o(.text)
    osMutexCreate                            0x0802076f   Thumb Code    12  cmsis_os.o(.text)
    osMutexWait                              0x0802077b   Thumb Code   100  cmsis_os.o(.text)
    osMutexRelease                           0x080207df   Thumb Code    76  cmsis_os.o(.text)
    osMutexDelete                            0x0802082b   Thumb Code    24  cmsis_os.o(.text)
    osSemaphoreCreate                        0x08020843   Thumb Code    50  cmsis_os.o(.text)
    osSemaphoreWait                          0x08020875   Thumb Code   100  cmsis_os.o(.text)
    osSemaphoreRelease                       0x080208d9   Thumb Code    76  cmsis_os.o(.text)
    osSemaphoreDelete                        0x08020925   Thumb Code    24  cmsis_os.o(.text)
    osPoolCreate                             0x0802093d   Thumb Code   112  cmsis_os.o(.text)
    osPoolAlloc                              0x080209ad   Thumb Code   130  cmsis_os.o(.text)
    osPoolCAlloc                             0x08020a2f   Thumb Code    22  cmsis_os.o(.text)
    osPoolFree                               0x08020a45   Thumb Code    74  cmsis_os.o(.text)
    osMessageCreate                          0x08020a8f   Thumb Code    18  cmsis_os.o(.text)
    osMessagePut                             0x08020aa1   Thumb Code    92  cmsis_os.o(.text)
    osMessageGet                             0x08020afd   Thumb Code   150  cmsis_os.o(.text)
    osMailCreate                             0x08020b93   Thumb Code   122  cmsis_os.o(.text)
    osMailAlloc                              0x08020c0d   Thumb Code    24  cmsis_os.o(.text)
    osMailCAlloc                             0x08020c25   Thumb Code    44  cmsis_os.o(.text)
    osMailPut                                0x08020c51   Thumb Code    90  cmsis_os.o(.text)
    osMailGet                                0x08020cab   Thumb Code   146  cmsis_os.o(.text)
    osMailFree                               0x08020d3d   Thumb Code    22  cmsis_os.o(.text)
    osSystickHandler                         0x08020d53   Thumb Code    16  cmsis_os.o(.text)
    osThreadSuspend                          0x08020d63   Thumb Code    14  cmsis_os.o(.text)
    osThreadResume                           0x08020d71   Thumb Code    46  cmsis_os.o(.text)
    osThreadSuspendAll                       0x08020d9f   Thumb Code    10  cmsis_os.o(.text)
    osThreadResumeAll                        0x08020da9   Thumb Code    18  cmsis_os.o(.text)
    osDelayUntil                             0x08020dbb   Thumb Code     6  cmsis_os.o(.text)
    osAbortDelay                             0x08020dc1   Thumb Code     6  cmsis_os.o(.text)
    osThreadList                             0x08020dc7   Thumb Code     6  cmsis_os.o(.text)
    osMessagePeek                            0x08020dcd   Thumb Code    86  cmsis_os.o(.text)
    osMessageWaiting                         0x08020e23   Thumb Code    26  cmsis_os.o(.text)
    osMessageAvailableSpace                  0x08020e3d   Thumb Code    12  cmsis_os.o(.text)
    osMessageDelete                          0x08020e49   Thumb Code    24  cmsis_os.o(.text)
    osRecursiveMutexCreate                   0x08020e61   Thumb Code     6  cmsis_os.o(.text)
    osRecursiveMutexRelease                  0x08020e67   Thumb Code     6  cmsis_os.o(.text)
    osRecursiveMutexWait                     0x08020e6d   Thumb Code     6  cmsis_os.o(.text)
    osSemaphoreGetCount                      0x08020e73   Thumb Code    12  cmsis_os.o(.text)
    pvPortMalloc                             0x08020f45   Thumb Code   306  heap_4.o(.text)
    vPortFree                                0x08021077   Thumb Code   150  heap_4.o(.text)
    xPortGetFreeHeapSize                     0x0802110d   Thumb Code     6  heap_4.o(.text)
    xPortGetMinimumEverFreeHeapSize          0x08021113   Thumb Code     6  heap_4.o(.text)
    vPortInitialiseBlocks                    0x08021119   Thumb Code     2  heap_4.o(.text)
    vPortGetHeapStats                        0x0802111b   Thumb Code   104  heap_4.o(.text)
    pxPortInitialiseStack                    0x080211e5   Thumb Code    38  port.o(.text)
    vPortSetupTimerInterrupt                 0x0802120b   Thumb Code    26  port.o(.text)
    xPortStartScheduler                      0x08021225   Thumb Code   288  port.o(.text)
    vPortEndScheduler                        0x08021345   Thumb Code    42  port.o(.text)
    vPortEnterCritical                       0x0802136f   Thumb Code    78  port.o(.text)
    vPortExitCritical                        0x080213bd   Thumb Code    56  port.o(.text)
    SysTick_Handler                          0x080213f5   Thumb Code    48  port.o(.text)
    vPortValidateInterruptPriority           0x08021425   Thumb Code   108  port.o(.text)
    vListInitialise                          0x080214b5   Thumb Code    26  list.o(.text)
    vListInitialiseItem                      0x080214cf   Thumb Code     6  list.o(.text)
    vListInsertEnd                           0x080214d5   Thumb Code    24  list.o(.text)
    vListInsert                              0x080214ed   Thumb Code    52  list.o(.text)
    uxListRemove                             0x08021521   Thumb Code    40  list.o(.text)
    xQueueGenericReset                       0x08021549   Thumb Code   146  queue.o(.text)
    xQueueGenericCreate                      0x08021601   Thumb Code    84  queue.o(.text)
    xQueueGenericSend                        0x0802176f   Thumb Code   420  queue.o(.text)
    xQueueCreateMutex                        0x08021931   Thumb Code    34  queue.o(.text)
    xQueueCreateCountingSemaphore            0x08021953   Thumb Code    98  queue.o(.text)
    xQueueGenericSendFromISR                 0x080219b5   Thumb Code   252  queue.o(.text)
    xQueueGiveFromISR                        0x08021ab1   Thumb Code   224  queue.o(.text)
    xQueueReceive                            0x08021bd5   Thumb Code   356  queue.o(.text)
    xQueueSemaphoreTake                      0x08021d4d   Thumb Code   434  queue.o(.text)
    xQueuePeek                               0x08021eff   Thumb Code   366  queue.o(.text)
    xQueueReceiveFromISR                     0x0802206d   Thumb Code   202  queue.o(.text)
    xQueuePeekFromISR                        0x08022137   Thumb Code   176  queue.o(.text)
    uxQueueMessagesWaiting                   0x080221e7   Thumb Code    42  queue.o(.text)
    uxQueueSpacesAvailable                   0x08022211   Thumb Code    48  queue.o(.text)
    uxQueueMessagesWaitingFromISR            0x08022241   Thumb Code    34  queue.o(.text)
    vQueueUnregisterQueue                    0x08022263   Thumb Code    44  queue.o(.text)
    vQueueDelete                             0x0802228f   Thumb Code    44  queue.o(.text)
    xQueueIsQueueEmptyFromISR                0x080222bb   Thumb Code    42  queue.o(.text)
    xQueueIsQueueFullFromISR                 0x080222e5   Thumb Code    46  queue.o(.text)
    vQueueAddToRegistry                      0x08022313   Thumb Code    38  queue.o(.text)
    pcQueueGetName                           0x08022339   Thumb Code    38  queue.o(.text)
    xTaskCreate                              0x080224f5   Thumb Code    96  tasks.o(.text)
    vTaskDelete                              0x08022591   Thumb Code   202  tasks.o(.text)
    xTaskIncrementTick                       0x0802265b   Thumb Code   362  tasks.o(.text)
    xTaskResumeAll                           0x080227c5   Thumb Code   224  tasks.o(.text)
    vTaskSuspendAll                          0x08022921   Thumb Code    12  tasks.o(.text)
    vTaskDelay                               0x0802292d   Thumb Code    82  tasks.o(.text)
    uxTaskPriorityGet                        0x0802297f   Thumb Code    30  tasks.o(.text)
    uxTaskPriorityGetFromISR                 0x0802299d   Thumb Code    62  tasks.o(.text)
    vTaskPrioritySet                         0x080229db   Thumb Code   260  tasks.o(.text)
    vTaskSwitchContext                       0x08022adf   Thumb Code   118  tasks.o(.text)
    vTaskSuspend                             0x08022b55   Thumb Code   268  tasks.o(.text)
    vTaskResume                              0x08022cb1   Thumb Code   128  tasks.o(.text)
    xTaskResumeFromISR                       0x08022d31   Thumb Code   158  tasks.o(.text)
    vTaskStartScheduler                      0x08022e2b   Thumb Code   108  tasks.o(.text)
    vTaskEndScheduler                        0x08022e97   Thumb Code    32  tasks.o(.text)
    xTaskGetTickCount                        0x08022eb7   Thumb Code     6  tasks.o(.text)
    xTaskGetTickCountFromISR                 0x08022ebd   Thumb Code    16  tasks.o(.text)
    uxTaskGetNumberOfTasks                   0x08022ecd   Thumb Code     6  tasks.o(.text)
    pcTaskGetName                            0x08022ed3   Thumb Code    44  tasks.o(.text)
    xTaskCatchUpTicks                        0x08022eff   Thumb Code    66  tasks.o(.text)
    vTaskPlaceOnEventList                    0x08022f41   Thumb Code    52  tasks.o(.text)
    vTaskPlaceOnUnorderedEventList           0x08022f75   Thumb Code   172  tasks.o(.text)
    xTaskRemoveFromEventList                 0x08023021   Thumb Code   128  tasks.o(.text)
    vTaskRemoveFromUnorderedEventList        0x080230a1   Thumb Code   142  tasks.o(.text)
    vTaskSetTimeOutState                     0x0802312f   Thumb Code    50  tasks.o(.text)
    vTaskInternalSetTimeOutState             0x08023161   Thumb Code    14  tasks.o(.text)
    xTaskCheckForTimeOut                     0x0802316f   Thumb Code   132  tasks.o(.text)
    vTaskMissedYield                         0x080231f3   Thumb Code     8  tasks.o(.text)
    xTaskGetCurrentTaskHandle                0x080231fb   Thumb Code     6  tasks.o(.text)
    xTaskGetSchedulerState                   0x08023201   Thumb Code    24  tasks.o(.text)
    xTaskPriorityInherit                     0x08023219   Thumb Code   172  tasks.o(.text)
    xTaskPriorityDisinherit                  0x080232c5   Thumb Code   188  tasks.o(.text)
    vTaskPriorityDisinheritAfterTimeout      0x08023381   Thumb Code   256  tasks.o(.text)
    uxTaskResetEventItemValue                0x08023481   Thumb Code    24  tasks.o(.text)
    pvTaskIncrementMutexHeldCount            0x08023499   Thumb Code    26  tasks.o(.text)
    ulTaskNotifyTake                         0x080234b3   Thumb Code   108  tasks.o(.text)
    xTaskNotifyWait                          0x0802351f   Thumb Code   150  tasks.o(.text)
    xTaskGenericNotify                       0x080235b5   Thumb Code   280  tasks.o(.text)
    xTaskGenericNotifyFromISR                0x080236cd   Thumb Code   334  tasks.o(.text)
    vTaskNotifyGiveFromISR                   0x0802381b   Thumb Code   246  tasks.o(.text)
    xTaskNotifyStateClear                    0x08023911   Thumb Code    48  tasks.o(.text)
    ulTaskNotifyValueClear                   0x08023941   Thumb Code    46  tasks.o(.text)
    HAL_HCD_MspInit                          0x08023989   Thumb Code   160  usbh_conf.o(.text)
    HAL_HCD_MspDeInit                        0x08023a29   Thumb Code    46  usbh_conf.o(.text)
    HAL_HCD_SOF_Callback                     0x08023a57   Thumb Code    14  usbh_conf.o(.text)
    HAL_HCD_Connect_Callback                 0x08023a65   Thumb Code    14  usbh_conf.o(.text)
    HAL_HCD_Disconnect_Callback              0x08023a73   Thumb Code    14  usbh_conf.o(.text)
    HAL_HCD_HC_NotifyURBChange_Callback      0x08023a81   Thumb Code    18  usbh_conf.o(.text)
    HAL_HCD_PortEnabled_Callback             0x08023a93   Thumb Code    14  usbh_conf.o(.text)
    HAL_HCD_PortDisabled_Callback            0x08023aa1   Thumb Code    14  usbh_conf.o(.text)
    USBH_LL_Init                             0x08023aaf   Thumb Code    82  usbh_conf.o(.text)
    USBH_Get_USB_Status                      0x08023b01   Thumb Code    44  usbh_conf.o(.text)
    USBH_LL_DeInit                           0x08023b2d   Thumb Code    30  usbh_conf.o(.text)
    USBH_LL_Start                            0x08023b4b   Thumb Code    30  usbh_conf.o(.text)
    USBH_LL_Stop                             0x08023b69   Thumb Code    30  usbh_conf.o(.text)
    USBH_LL_GetSpeed                         0x08023b87   Thumb Code    48  usbh_conf.o(.text)
    USBH_LL_ResetPort                        0x08023bb7   Thumb Code    30  usbh_conf.o(.text)
    USBH_LL_GetLastXferSize                  0x08023bd5   Thumb Code    18  usbh_conf.o(.text)
    USBH_LL_OpenPipe                         0x08023be7   Thumb Code    64  usbh_conf.o(.text)
    USBH_LL_ClosePipe                        0x08023c27   Thumb Code    38  usbh_conf.o(.text)
    USBH_LL_SubmitURB                        0x08023c4d   Thumb Code    64  usbh_conf.o(.text)
    USBH_LL_GetURBState                      0x08023c8d   Thumb Code    18  usbh_conf.o(.text)
    USBH_LL_DriverVBUS                       0x08023c9f   Thumb Code    26  usbh_conf.o(.text)
    USBH_LL_SetToggle                        0x08023cb9   Thumb Code    70  usbh_conf.o(.text)
    USBH_LL_GetToggle                        0x08023cff   Thumb Code    70  usbh_conf.o(.text)
    USBH_Delay                               0x08023d45   Thumb Code    12  usbh_conf.o(.text)
    GduTest_CameraGetMode                    0x080257b1   Thumb Code   138  test_payload_cam_emu_base.o(.text)
    GduTest_CameraEmuBaseStartService        0x0802583b   Thumb Code  1184  test_payload_cam_emu_base.o(.text)
    GduTest_CameraGetDigitalZoomFactor       0x08025cdb   Thumb Code   142  test_payload_cam_emu_base.o(.text)
    GduTest_CameraGetOpticalZoomFactor       0x08025d69   Thumb Code   154  test_payload_cam_emu_base.o(.text)
    GduTest_CameraGetVideoStreamType         0x08025e03   Thumb Code    26  test_payload_cam_emu_base.o(.text)
    GduTest_CameraIsInited                   0x08025e1d   Thumb Code     6  test_payload_cam_emu_base.o(.text)
    GduReceiveGpsPositionCallback            0x08025eb1   Thumb Code    16  test_fc_subscription.o(.text)
    GduTest_FcSubscriptionStartService       0x080260a9   Thumb Code   178  test_fc_subscription.o(.text)
    GduTest_FcSubscriptionRunSample          0x080265e7   Thumb Code  1466  test_fc_subscription.o(.text)
    GduTest_FcSubscriptionDataShowTrigger    0x08026ba1   Thumb Code    18  test_fc_subscription.o(.text)
    GduTest_FcSubscriptionGetTotalSatelliteNumber 0x08026bb3   Thumb Code    14  test_fc_subscription.o(.text)
    GduTest_GimbalRotate                     0x08028555   Thumb Code  1484  test_payload_gimbal_emu.o(.text)
    GduTest_GimbalStartService               0x08028e53   Thumb Code   362  test_payload_gimbal_emu.o(.text)
    GduTest_GimbalDeInit                     0x08028fbd   Thumb Code   244  test_payload_gimbal_emu.o(.text)
    GduTest_PositioningStartService          0x080294c9   Thumb Code   128  test_positioning.o(.text)
    GduTest_TimeSyncRegHandler               0x080297a1   Thumb Code    70  test_time_sync.o(.text)
    GduTest_TimeSyncStartService             0x080298e9   Thumb Code   256  test_time_sync.o(.text)
    GduTest_TimeSyncGetNewestPpsTriggerLocalTimeUs 0x080299e9   Thumb Code    42  test_time_sync.o(.text)
    UtilMd5_Transform                        0x08029c25   Thumb Code  2434  util_md5.o(.text)
    UtilMd5_Init                             0x0802a5a7   Thumb Code    30  util_md5.o(.text)
    UtilMd5_Update                           0x0802a5c5   Thumb Code    68  util_md5.o(.text)
    UtilMd5_Final                            0x0802a609   Thumb Code   234  util_md5.o(.text)
    GduTest_RegApplyHighPowerHandler         0x0802a7f9   Thumb Code    70  test_power_management.o(.text)
    GduTest_PowerManagementStartService      0x0802a83f   Thumb Code   322  test_power_management.o(.text)
    GduTest_WidgetStartService               0x0802ac4b   Thumb Code   232  test_widget.o(.text)
    GduTest_WidgetSetConfigFilePath          0x0802ad33   Thumb Code    62  test_widget.o(.text)
    GduTest_WidgetLogAppend                  0x0802ad71   Thumb Code     2  test_widget.o(.text)
    GduTest_UpgradeStartService              0x0802b101   Thumb Code   494  test_upgrade.o(.text)
    GduTestCommonFileTransfer_Start          0x0802b5d9   Thumb Code    86  test_upgrade_common_file_transfer.o(.text)
    GduTestCommonFileTransfer_getTransferProccess 0x0802b62f   Thumb Code    18  test_upgrade_common_file_transfer.o(.text)
    GduTestCommonFileTransfer_Transfer       0x0802b641   Thumb Code   118  test_upgrade_common_file_transfer.o(.text)
    GduTestCommonFileTransfer_Finish         0x0802b79f   Thumb Code   154  test_upgrade_common_file_transfer.o(.text)
    GduTest_RegUpgradePlatformOpt            0x0802b971   Thumb Code   280  test_upgrade_platform_opt.o(.text)
    GduTest_RebootSystem                     0x0802ba89   Thumb Code    10  test_upgrade_platform_opt.o(.text)
    GduTest_CleanUpgradeProgramFileStoreArea 0x0802ba93   Thumb Code    10  test_upgrade_platform_opt.o(.text)
    GduTest_CreateUpgradeProgramFile         0x0802ba9d   Thumb Code    14  test_upgrade_platform_opt.o(.text)
    GduTest_WriteUpgradeProgramFile          0x0802baab   Thumb Code    22  test_upgrade_platform_opt.o(.text)
    GduTest_ReadUpgradeProgramFile           0x0802bac1   Thumb Code    32  test_upgrade_platform_opt.o(.text)
    GduTest_CloseUpgradeProgramFile          0x0802bae1   Thumb Code    10  test_upgrade_platform_opt.o(.text)
    GduTest_ReplaceOldProgram                0x0802baeb   Thumb Code    10  test_upgrade_platform_opt.o(.text)
    GduTest_SetUpgradeRebootState            0x0802baf5   Thumb Code    14  test_upgrade_platform_opt.o(.text)
    GduTest_GetUpgradeRebootState            0x0802bb03   Thumb Code    18  test_upgrade_platform_opt.o(.text)
    GduTest_CleanUpgradeRebootState          0x0802bb15   Thumb Code    10  test_upgrade_platform_opt.o(.text)
    GduAircraftInfo_GetBaseInfo              0x0802bd59   Thumb Code     8  gdu_aircraft_info.o(.text)
    GduAircraftInfo_GetMobileAppInfo         0x0802bd61   Thumb Code    24  gdu_aircraft_info.o(.text)
    GduCore_SendData                         0x0802bf1d   Thumb Code    32  gdu_core.o(.text)
    GduCore_SetAliasMsgSend                  0x0802bf3d   Thumb Code   158  gdu_core.o(.text)
    GduCore_Init                             0x0802c09b   Thumb Code   252  gdu_core.o(.text)
    GduCore_SetAlias                         0x0802c197   Thumb Code    26  gdu_core.o(.text)
    GduCore_ApplicationStart                 0x0802c1b1   Thumb Code    18  gdu_core.o(.text)
    GduCore_Reg_FunList                      0x0802c1c3   Thumb Code   144  gdu_core.o(.text)
    GduCore_Del_FunList                      0x0802c253   Thumb Code    72  gdu_core.o(.text)
    GduCode_GetIdInfo                        0x0802c29b   Thumb Code    74  gdu_core.o(.text)
    GduCore_Subscibe                         0x0802c2e5   Thumb Code   496  gdu_core.o(.text)
    GduGimbal_RegCommonHandler               0x0802c4d9   Thumb Code   118  gdu_gimbal.o(.text)
    GimbalSetMode                            0x0802c54f   Thumb Code    60  gdu_gimbal.o(.text)
    GimbalReset                              0x0802c58b   Thumb Code    44  gdu_gimbal.o(.text)
    ctrlDeviceCheck                          0x0802c5b7   Thumb Code    30  gdu_gimbal.o(.text)
    GduGimbal_Init                           0x0802c92b   Thumb Code    52  gdu_gimbal.o(.text)
    GduGimbal_DeInit                         0x0802c95f   Thumb Code     6  gdu_gimbal.o(.text)
    GduLogger_LogInit                        0x0802c971   Thumb Code    16  gdu_logger.o(.text)
    GduLogger_AddConsole                     0x0802c981   Thumb Code    68  gdu_logger.o(.text)
    Gdu_LogColourSet                         0x0802c9c5   Thumb Code    56  gdu_logger.o(.text)
    GduLogger_LogOutput                      0x0802cab1   Thumb Code   118  gdu_logger.o(.text)
    GduLogger_LogBin                         0x0802cb27   Thumb Code    28  gdu_logger.o(.text)
    GduCam_TakeVideoStatus                   0x0802cf03   Thumb Code   116  gdu_payload_camera.o(.text)
    GduPayloadCamera_Init                    0x0802d073   Thumb Code   106  gdu_payload_camera.o(.text)
    GduPayloadCamera_RegCommonHandler        0x0802d0dd   Thumb Code   320  gdu_payload_camera.o(.text)
    GduPayloadCamera_RegExposureMeteringHandler 0x0802d21d   Thumb Code    80  gdu_payload_camera.o(.text)
    GduPayloadCamera_RegFocusHandler         0x0802d26d   Thumb Code   100  gdu_payload_camera.o(.text)
    GduPayloadCamera_RegDigitalZoomHandler   0x0802d2d1   Thumb Code    72  gdu_payload_camera.o(.text)
    GduPayloadCamera_RegOpticalZoomHandler   0x0802d319   Thumb Code    92  gdu_payload_camera.o(.text)
    GduPayloadCamera_RegTapZoomHandler       0x0802d375   Thumb Code    92  gdu_payload_camera.o(.text)
    GduPayloadCamera_SetVideoStreamType      0x0802d3d1   Thumb Code     8  gdu_payload_camera.o(.text)
    GduPayloadCamera_GetVideoStreamRemoteAddress 0x0802d3d9   Thumb Code    10  gdu_payload_camera.o(.text)
    GduPayloadCamera_RegMediaDownloadPlaybackHandler 0x0802d3e3   Thumb Code     8  gdu_payload_camera.o(.text)
    GduPayloadCamera_SendVideoStream         0x0802d3eb   Thumb Code    10  gdu_payload_camera.o(.text)
    GduPayloadCamera_GetVideoStreamState     0x0802d3f5   Thumb Code     8  gdu_payload_camera.o(.text)
    GduPayloadCamera_PushAddedMediaFileInfo  0x0802d3fd   Thumb Code    10  gdu_payload_camera.o(.text)
    GduPayloadCamera_GetCameraTypeOfPayload  0x0802d407   Thumb Code    10  gdu_payload_camera.o(.text)
    GduPayloadCamera_GetCameraOpticalZoomSpecOfPayload 0x0802d411   Thumb Code    10  gdu_payload_camera.o(.text)
    GduPayloadCamera_GetCameraHybridZoomFocalLengthOfPayload 0x0802d41b   Thumb Code    10  gdu_payload_camera.o(.text)
    GduCam_GetParam                          0x0802d425   Thumb Code   318  gdu_payload_camera.o(.text)
    GduCam_SetMode                           0x0802d563   Thumb Code   826  gdu_payload_camera.o(.text)
    GduCam_Cmd                               0x0802d8f1   Thumb Code   416  gdu_payload_camera.o(.text)
    GduCam_SetShootPhotoP                    0x0802da91   Thumb Code   228  gdu_payload_camera.o(.text)
    GduCam_ShootPhoto                        0x0802db75   Thumb Code   500  gdu_payload_camera.o(.text)
    GduCam_SetShootPhotoPar                  0x0802dd69   Thumb Code   238  gdu_payload_camera.o(.text)
    GduCam_RecordVideo                       0x0802de57   Thumb Code   354  gdu_payload_camera.o(.text)
    GduCam_FormatSDCard                      0x0802dfb9   Thumb Code   236  gdu_payload_camera.o(.text)
    GduCam_Focus                             0x0802e0a5   Thumb Code   514  gdu_payload_camera.o(.text)
    GduCam_DigitalZoomFocus                  0x0802e2a7   Thumb Code     8  gdu_payload_camera.o(.text)
    GduCam_OpticalZoomFocal                  0x0802e2af   Thumb Code   224  gdu_payload_camera.o(.text)
    GduCam_OpticalZoomFocalParSet            0x0802e38f   Thumb Code   162  gdu_payload_camera.o(.text)
    GduCam_Metering                          0x0802e431   Thumb Code   308  gdu_payload_camera.o(.text)
    GduCam_DigitalZoomFactor                 0x0802e565   Thumb Code   198  gdu_payload_camera.o(.text)
    GduPlatform_RegHalUartHandler            0x0802ef41   Thumb Code    20  gdu_platform.o(.text)
    GduPlatform_RegHalUsbBulkHandler         0x0802ef55   Thumb Code    20  gdu_platform.o(.text)
    GduPlatform_RegHalNetworkHandler         0x0802ef69   Thumb Code    20  gdu_platform.o(.text)
    GduPlatform_RegOsalHandler               0x0802ef7d   Thumb Code    20  gdu_platform.o(.text)
    GduPlatform_RegFileSystemHandler         0x0802ef91   Thumb Code    20  gdu_platform.o(.text)
    GduPlatform_RegSocketHandler             0x0802efa5   Thumb Code    20  gdu_platform.o(.text)
    GduPlatform_GetOsalHandler               0x0802efb9   Thumb Code     6  gdu_platform.o(.text)
    GduPlatform_GetFileSystemHandler         0x0802efbf   Thumb Code     6  gdu_platform.o(.text)
    GduPlatform_GetSocketHandler             0x0802efc5   Thumb Code     6  gdu_platform.o(.text)
    GduPositioning_getDate                   0x0802f129   Thumb Code    34  gdu_positioning.o(.text)
    GduPositioning_setFlag                   0x0802f8a3   Thumb Code     6  gdu_positioning.o(.text)
    GduPositioning_Init                      0x0802f9b9   Thumb Code   184  gdu_positioning.o(.text)
    GduPositioning_SetTaskIndex              0x0802fa71   Thumb Code     2  gdu_positioning.o(.text)
    GduPositioning_GetPositionInformationSync 0x0802fb63   Thumb Code  2070  gdu_positioning.o(.text)
    GduPowerManagement_Init                  0x08030491   Thumb Code    14  gdu_power_management.o(.text)
    GduPowerManagement_ApplyHighPowerSync    0x0803049f   Thumb Code    20  gdu_power_management.o(.text)
    GduPowerManagement_RegWriteHighPowerApplyPinCallback 0x080304b3   Thumb Code    12  gdu_power_management.o(.text)
    GduFcSubscription_getPosSolutionProperty 0x080304c5   Thumb Code     6  gdu_subscribeinfo.o(.text)
    GduPayloadSubscribe_Init                 0x08030da7   Thumb Code    78  gdu_subscribeinfo.o(.text)
    GduFcSubscription_Init                   0x08030df5   Thumb Code    22  gdu_subscribeinfo.o(.text)
    GduFcSubscription_DeInit                 0x08030e0b   Thumb Code    22  gdu_subscribeinfo.o(.text)
    GduFcSubscription_SubscribeTopic         0x08030e21   Thumb Code   128  gdu_subscribeinfo.o(.text)
    GduFcSubscription_GetLatestValueOfTopic  0x08030ea1   Thumb Code    32  gdu_subscribeinfo.o(.text)
    getPostioningInfo                        0x08030ec1   Thumb Code     4  gdu_subscribeinfo.o(.text)
    GduUpdate_ftp_connect                    0x08031919   Thumb Code   120  gdu_upgrade.o(.text)
    GduUpdate_req_fileinfo                   0x08031991   Thumb Code   128  gdu_upgrade.o(.text)
    GduUpdate_req_download                   0x08031a11   Thumb Code   146  gdu_upgrade.o(.text)
    StringToHex                              0x08031aa3   Thumb Code   188  gdu_upgrade.o(.text)
    HandleRequest_Message                    0x08031b5f   Thumb Code   982  gdu_upgrade.o(.text)
    HandleRequestAckMessage                  0x08031f35   Thumb Code   216  gdu_upgrade.o(.text)
    GduUpgrade_Init                          0x08032051   Thumb Code   118  gdu_upgrade.o(.text)
    GduUpgrade_EnableLocalUpgrade            0x080320c7   Thumb Code     6  gdu_upgrade.o(.text)
    GduUpgrade_RegHandler                    0x080320cd   Thumb Code    18  gdu_upgrade.o(.text)
    GduUpgrade_PushUpgradeState              0x080320df   Thumb Code   140  gdu_upgrade.o(.text)
    GduWidget_Init                           0x08032bc1   Thumb Code    94  gdu_widget.o(.text)
    GduWidget_RegDefaultUiConfigByDirPath    0x08032c1f   Thumb Code     8  gdu_widget.o(.text)
    GduWidget_RegUiConfigByDirPath           0x08032c27   Thumb Code    12  gdu_widget.o(.text)
    GduWidget_RegDefaultUiConfigByBinaryArray 0x08032c33   Thumb Code    44  gdu_widget.o(.text)
    GduWidget_RegUiConfigByBinaryArray       0x08032c5f   Thumb Code    12  gdu_widget.o(.text)
    GduWidget_RegHandlerList                 0x08032c6b   Thumb Code    30  gdu_widget.o(.text)
    GduWidgetFloatingWindow_ShowMessage      0x08032c89   Thumb Code   236  gdu_widget.o(.text)
    GduWidgetFloatingWindow_GetChannelState  0x08032d75   Thumb Code     8  gdu_widget.o(.text)
    standard_to_stamp                        0x08033505   Thumb Code   108  time_sync.o(.text)
    GduTimeSync_Init                         0x0803386b   Thumb Code    82  time_sync.o(.text)
    GduTimeSync_RegGetNewestPpsTriggerTimeCallback 0x080338bd   Thumb Code    12  time_sync.o(.text)
    GduTimeSync_TransferToAircraftTime       0x080338c9   Thumb Code   180  time_sync.o(.text)
    GduFlightController_SetHorizontalVisualObstacleAvoidanceEnableStatus 0x08033ecf   Thumb Code    98  gdu_flight_controller.o(.text)
    GduFlightController_SetRCLostAction      0x08033f31   Thumb Code   166  gdu_flight_controller.o(.text)
    GduFlightController_StartLanding         0x08033fd7   Thumb Code   124  gdu_flight_controller.o(.text)
    GduFlightController_StartForceLanding    0x08034053   Thumb Code    12  gdu_flight_controller.o(.text)
    GduFlightController_CancelLanding        0x0803405f   Thumb Code    86  gdu_flight_controller.o(.text)
    GduFlightController_StartTakeoff         0x080340b5   Thumb Code   592  gdu_flight_controller.o(.text)
    GduFlightController_Init                 0x08034a07   Thumb Code   106  gdu_flight_controller.o(.text)
    GduFlightController_Deinit               0x08034a71   Thumb Code     2  gdu_flight_controller.o(.text)
    GduFlightController_SetRtkPositionEnableStatus 0x08034a73   Thumb Code     8  gdu_flight_controller.o(.text)
    GduFlightController_GetRtkPositionEnableStatus 0x08034a7b   Thumb Code     8  gdu_flight_controller.o(.text)
    GduFlightController_GetRCLostAction      0x08034a83   Thumb Code    56  gdu_flight_controller.o(.text)
    GduFlightController_GetHorizontalVisualObstacleAvoidanceEnableStatus 0x08034c3f   Thumb Code   324  gdu_flight_controller.o(.text)
    GduFlightController_SetHorizontalRadarObstacleAvoidanceEnableStatus 0x08034d83   Thumb Code    16  gdu_flight_controller.o(.text)
    GduFlightController_GetHorizontalRadarObstacleAvoidanceEnableStatus 0x08034d93   Thumb Code    24  gdu_flight_controller.o(.text)
    GduFlightController_SetUpwardsVisualObstacleAvoidanceEnableStatus 0x08034dab   Thumb Code   102  gdu_flight_controller.o(.text)
    GduFlightController_GetUpwardsVisualObstacleAvoidanceEnableStatus 0x08034e11   Thumb Code    24  gdu_flight_controller.o(.text)
    GduFlightController_SetUpwardsRadarObstacleAvoidanceEnableStatus 0x08034e29   Thumb Code    16  gdu_flight_controller.o(.text)
    GduFlightController_GetUpwardsRadarObstacleAvoidanceEnableStatus 0x08034e39   Thumb Code    24  gdu_flight_controller.o(.text)
    GduFlightController_SetDownwardsVisualObstacleAvoidanceEnableStatus 0x08034e51   Thumb Code   102  gdu_flight_controller.o(.text)
    GduFlightController_GetDownwardsVisualObstacleAvoidanceEnableStatus 0x08034eb7   Thumb Code    24  gdu_flight_controller.o(.text)
    GduFlightController_ArrestFlying         0x08034ecf   Thumb Code     6  gdu_flight_controller.o(.text)
    GduFlightController_CancelArrestFlying   0x08034ed5   Thumb Code     6  gdu_flight_controller.o(.text)
    GduFlightController_TurnOnMotors         0x08034edb   Thumb Code     6  gdu_flight_controller.o(.text)
    GduFlightController_TurnOffMotors        0x08034ee1   Thumb Code     6  gdu_flight_controller.o(.text)
    DjiFlightController_EmergencyStopMotor   0x08034ee7   Thumb Code    10  gdu_flight_controller.o(.text)
    GduFlightController_StartConfirmLanding  0x08034ef1   Thumb Code     6  gdu_flight_controller.o(.text)
    GduFlightController_SetHomeLocationUsingGPSCoordinates 0x08034ef7   Thumb Code   162  gdu_flight_controller.o(.text)
    GduFlightController_SetHomeLocationUsingCurrentAircraftLocation 0x08034f99   Thumb Code   182  gdu_flight_controller.o(.text)
    GduFlightController_SetGoHomeAltitude    0x0803504f   Thumb Code   122  gdu_flight_controller.o(.text)
    GduFlightController_GetGoHomeAltitude    0x080350c9   Thumb Code    14  gdu_flight_controller.o(.text)
    GduFlightController_StartGoHome          0x080350d7   Thumb Code   112  gdu_flight_controller.o(.text)
    GduFlightController_CancelGoHome         0x08035147   Thumb Code   488  gdu_flight_controller.o(.text)
    GduFlightController_ObtainJoystickCtrlAuthority 0x0803532f   Thumb Code     6  gdu_flight_controller.o(.text)
    GduFlightController_ReleaseJoystickCtrlAuthority 0x08035335   Thumb Code     6  gdu_flight_controller.o(.text)
    GduFlightController_RegJoystickCtrlAuthorityEventCallback 0x0803533b   Thumb Code     8  gdu_flight_controller.o(.text)
    GduFlightController_SetJoystickMode      0x08035343   Thumb Code     2  gdu_flight_controller.o(.text)
    GduFlightController_ExecuteJoystickAction 0x08035345   Thumb Code     6  gdu_flight_controller.o(.text)
    GduFlightController_ExecuteEmergencyBrakeAction 0x0803534b   Thumb Code   116  gdu_flight_controller.o(.text)
    GduFlightController_CancelEmergencyBrakeAction 0x080353bf   Thumb Code     6  gdu_flight_controller.o(.text)
    GduFlightController_GetGeneralInfo       0x080353c5   Thumb Code     8  gdu_flight_controller.o(.text)
    get_adaptRingSn                          0x08035b59   Thumb Code    16  basemsghandle.o(.text)
    get_comId                                0x08035b69   Thumb Code     6  basemsghandle.o(.text)
    get_appInfo                              0x08035b6f   Thumb Code    14  basemsghandle.o(.text)
    baseMessage_requestComID                 0x08035ba5   Thumb Code    72  basemsghandle.o(.text)
    getMobileAppInfo                         0x08035bed   Thumb Code    62  basemsghandle.o(.text)
    baseMsg_assignComId_ack                  0x08035c2b   Thumb Code   138  basemsghandle.o(.text)
    baseMsg_adapterRingSn_ack                0x08035cb5   Thumb Code    10  basemsghandle.o(.text)
    baseMsg_getAppInfo_ack                   0x08035cbf   Thumb Code   124  basemsghandle.o(.text)
    GduPayloadBaseMsg_Init                   0x08035d95   Thumb Code    30  basemsghandle.o(.text)
    GduSerial_Init                           0x08035f09   Thumb Code   128  gdu_serial.o(.text)
    GduSerial_Read                           0x08035f89   Thumb Code    76  gdu_serial.o(.text)
    GduSerial_Write                          0x08035fd5   Thumb Code    76  gdu_serial.o(.text)
    npcInit                                  0x08036419   Thumb Code    10  npc.o(.text)
    NpcLinkCreate                            0x08036423   Thumb Code   312  npc.o(.text)
    NpcLinkSendPacket                        0x0803655b   Thumb Code   182  npc.o(.text)
    NpcLinkconnect                           0x08036611   Thumb Code   118  npc.o(.text)
    NpcLinkDisconnect                        0x08036687   Thumb Code    74  npc.o(.text)
    NpcLinkSendHeartbeat                     0x080366d1   Thumb Code    90  npc.o(.text)
    NpcLinkHandleReadyPaket                  0x080367a9   Thumb Code    64  npc.o(.text)
    NpcLinkHandleData                        0x080367e9   Thumb Code   200  npc.o(.text)
    npcSendData                              0x080368b1   Thumb Code    76  npc.o(.text)
    NpcLinkSubscibe                          0x080368fd   Thumb Code   112  npc.o(.text)
    npc_recvServer                           0x0803696d   Thumb Code   206  npc.o(.text)
    npc_unpackProcessServer                  0x08036a3b   Thumb Code   152  npc.o(.text)
    npc_heartbeatServer                      0x08036ad3   Thumb Code   140  npc.o(.text)
    npc_sendServer                           0x08036b5f   Thumb Code   144  npc.o(.text)
    npcStart                                 0x08036bef   Thumb Code   236  npc.o(.text)
    Queue_Create                             0x08036fed   Thumb Code     2  gdu_cache.o(.text)
    Queue_Close                              0x08036fef   Thumb Code     2  gdu_cache.o(.text)
    EnQueue                                  0x08036ff1   Thumb Code    92  gdu_cache.o(.text)
    DeQueue                                  0x0803704d   Thumb Code    80  gdu_cache.o(.text)
    GetQueuePercentUsed                      0x0803709d   Thumb Code    40  gdu_cache.o(.text)
    glListInit                               0x080370cd   Thumb Code    48  general_linked_list.o(.text)
    glListInsterNode                         0x080370fd   Thumb Code    62  general_linked_list.o(.text)
    glListDeleteNode                         0x0803713b   Thumb Code    74  general_linked_list.o(.text)
    glListErgodic                            0x08037185   Thumb Code    34  general_linked_list.o(.text)
    glListClearNullNode                      0x080371a7   Thumb Code   124  general_linked_list.o(.text)
    __aeabi_uldivmod                         0x08037223   Thumb Code    98  uldiv.o(.text)
    mktime                                   0x08037285   Thumb Code   150  mktime.o(.text)
    __aeabi_memcpy                           0x0803732d   Thumb Code    36  memcpya.o(.text)
    __aeabi_memcpy4                          0x0803732d   Thumb Code     0  memcpya.o(.text)
    __aeabi_memcpy8                          0x0803732d   Thumb Code     0  memcpya.o(.text)
    __aeabi_memset                           0x08037351   Thumb Code    14  memseta.o(.text)
    __aeabi_memset4                          0x08037351   Thumb Code     0  memseta.o(.text)
    __aeabi_memset8                          0x08037351   Thumb Code     0  memseta.o(.text)
    __aeabi_memclr                           0x0803735f   Thumb Code     4  memseta.o(.text)
    __aeabi_memclr4                          0x0803735f   Thumb Code     0  memseta.o(.text)
    __aeabi_memclr8                          0x0803735f   Thumb Code     0  memseta.o(.text)
    _memset$wrapper                          0x08037363   Thumb Code    18  memseta.o(.text)
    strstr                                   0x08037375   Thumb Code    36  strstr.o(.text)
    strncpy                                  0x08037399   Thumb Code    24  strncpy.o(.text)
    strlen                                   0x080373b1   Thumb Code    14  strlen.o(.text)
    strcmp                                   0x080373bf   Thumb Code    28  strcmp.o(.text)
    memcmp                                   0x080373db   Thumb Code    26  memcmp.o(.text)
    strcpy                                   0x080373f5   Thumb Code    18  strcpy.o(.text)
    strncmp                                  0x08037407   Thumb Code    30  strncmp.o(.text)
    atoi                                     0x08037425   Thumb Code    26  atoi.o(.text)
    __aeabi_dadd                             0x0803743f   Thumb Code   322  dadd.o(.text)
    __aeabi_dsub                             0x08037581   Thumb Code     6  dadd.o(.text)
    __aeabi_drsub                            0x08037587   Thumb Code     6  dadd.o(.text)
    __aeabi_dmul                             0x0803758d   Thumb Code   228  dmul.o(.text)
    __aeabi_ddiv                             0x08037671   Thumb Code   222  ddiv.o(.text)
    __aeabi_i2d                              0x0803774f   Thumb Code    34  dflti.o(.text)
    __aeabi_d2iz                             0x08037771   Thumb Code    62  dfixi.o(.text)
    __aeabi_f2d                              0x080377af   Thumb Code    38  f2d.o(.text)
    __aeabi_cdrcmple                         0x080377d5   Thumb Code    48  cdrcmple.o(.text)
    __aeabi_uidiv                            0x08037805   Thumb Code     0  uidiv.o(.text)
    __aeabi_uidivmod                         0x08037805   Thumb Code    44  uidiv.o(.text)
    __aeabi_llsl                             0x08037831   Thumb Code    30  llshl.o(.text)
    _ll_shift_l                              0x08037831   Thumb Code     0  llshl.o(.text)
    __aeabi_llsr                             0x0803784f   Thumb Code    32  llushr.o(.text)
    _ll_ushift_r                             0x0803784f   Thumb Code     0  llushr.o(.text)
    __aeabi_lasr                             0x0803786f   Thumb Code    36  llsshr.o(.text)
    _ll_sshift_r                             0x0803786f   Thumb Code     0  llsshr.o(.text)
    localtime                                0x08037895   Thumb Code     6  localtime_w.o(.text)
    _localtime                               0x080378a1   Thumb Code   134  localtime_i.o(.text)
    strtol                                   0x0803792d   Thumb Code   112  strtol.o(.text)
    __I$use$fp                               0x0803799d   Thumb Code     0  iusefp.o(.text)
    _double_round                            0x0803799d   Thumb Code    30  depilogue.o(.text)
    _double_epilogue                         0x080379bb   Thumb Code   156  depilogue.o(.text)
    __aeabi_d2ulz                            0x08037a57   Thumb Code    48  dfixul.o(.text)
    __scatterload                            0x08037a89   Thumb Code    28  init.o(.text)
    __scatterload_rt2                        0x08037a89   Thumb Code     0  init.o(.text)
    __rt_ctype_table                         0x08037aad   Thumb Code     4  ctype_o.o(.text)
    _strtoul                                 0x08037ab5   Thumb Code   158  _strtoul.o(.text)
    _chval                                   0x08037b53   Thumb Code    28  _chval.o(.text)
    __decompress                             0x08037b6f   Thumb Code     0  __dczerorl2.o(.text)
    __decompress1                            0x08037b6f   Thumb Code    86  __dczerorl2.o(.text)
    __0printf                                0x08037bc5   Thumb Code    22  printfa.o(i.__0printf)
    __1printf                                0x08037bc5   Thumb Code     0  printfa.o(i.__0printf)
    __2printf                                0x08037bc5   Thumb Code     0  printfa.o(i.__0printf)
    __c89printf                              0x08037bc5   Thumb Code     0  printfa.o(i.__0printf)
    printf                                   0x08037bc5   Thumb Code     0  printfa.o(i.__0printf)
    __0snprintf                              0x08037be5   Thumb Code    44  printfa.o(i.__0snprintf)
    __1snprintf                              0x08037be5   Thumb Code     0  printfa.o(i.__0snprintf)
    __2snprintf                              0x08037be5   Thumb Code     0  printfa.o(i.__0snprintf)
    __c89snprintf                            0x08037be5   Thumb Code     0  printfa.o(i.__0snprintf)
    snprintf                                 0x08037be5   Thumb Code     0  printfa.o(i.__0snprintf)
    __0sprintf                               0x08037c15   Thumb Code    34  printfa.o(i.__0sprintf)
    __1sprintf                               0x08037c15   Thumb Code     0  printfa.o(i.__0sprintf)
    __2sprintf                               0x08037c15   Thumb Code     0  printfa.o(i.__0sprintf)
    __c89sprintf                             0x08037c15   Thumb Code     0  printfa.o(i.__0sprintf)
    sprintf                                  0x08037c15   Thumb Code     0  printfa.o(i.__0sprintf)
    __0vsprintf                              0x08037c3d   Thumb Code    30  printfa.o(i.__0vsprintf)
    __1vsprintf                              0x08037c3d   Thumb Code     0  printfa.o(i.__0vsprintf)
    __2vsprintf                              0x08037c3d   Thumb Code     0  printfa.o(i.__0vsprintf)
    __c89vsprintf                            0x08037c3d   Thumb Code     0  printfa.o(i.__0vsprintf)
    vsprintf                                 0x08037c3d   Thumb Code     0  printfa.o(i.__0vsprintf)
    __ARM_fpclassifyf                        0x08037c61   Thumb Code    38  fpclassifyf.o(i.__ARM_fpclassifyf)
    __aeabi_errno_addr                       0x08037c89   Thumb Code     4  errno.o(i.__aeabi_errno_addr)
    __rt_errno_addr                          0x08037c89   Thumb Code     0  errno.o(i.__aeabi_errno_addr)
    __hardfp_asinf                           0x08037c91   Thumb Code   258  asinf.o(i.__hardfp_asinf)
    __hardfp_atan2f                          0x08037dbd   Thumb Code   502  atan2f.o(i.__hardfp_atan2f)
    __mathlib_flt_infnan                     0x0803800d   Thumb Code     6  funder.o(i.__mathlib_flt_infnan)
    __mathlib_flt_infnan2                    0x08038013   Thumb Code     6  funder.o(i.__mathlib_flt_infnan2)
    __mathlib_flt_invalid                    0x08038019   Thumb Code    10  funder.o(i.__mathlib_flt_invalid)
    __mathlib_flt_underflow                  0x08038029   Thumb Code    10  funder.o(i.__mathlib_flt_underflow)
    __scatterload_copy                       0x08038039   Thumb Code    14  handlers.o(i.__scatterload_copy)
    __scatterload_null                       0x08038047   Thumb Code     2  handlers.o(i.__scatterload_null)
    __scatterload_zeroinit                   0x08038049   Thumb Code    14  handlers.o(i.__scatterload_zeroinit)
    __set_errno                              0x08038059   Thumb Code     6  errno.o(i.__set_errno)
    free                                     0x08038939   Thumb Code    76  malloc.o(i.free)
    malloc                                   0x08038989   Thumb Code    92  malloc.o(i.malloc)
    sqrtf                                    0x080389f5   Thumb Code    62  sqrtf.o(i.sqrtf)
    s_ledPin                                 0x08038b12   Data           8  led.o(.constdata)
    AHBPrescTable                            0x08038b41   Data          16  system_stm32f4xx.o(.constdata)
    APBPrescTable                            0x08038b51   Data           8  system_stm32f4xx.o(.constdata)
    __ctype_table                            0x0803ee88   Data         129  ctype_o.o(.constdata)
    Region$$Table$$Base                      0x0803f8f0   Number         0  anon$$obj.o(Region$$Table)
    Region$$Table$$Limit                     0x0803f910   Number         0  anon$$obj.o(Region$$Table)
    s_ledPort                                0x2000000c   Data          16  led.o(.data)
    usbIrqFlag                               0x2000002c   Data           4  stm32f4xx_it.o(.data)
    SystemCoreClock                          0x20000030   Data           4  system_stm32f4xx.o(.data)
    CDC_Class                                0x20000084   Data          32  usbh_cdc.o(.data)
    ACMDataRecvQueue                         0x200000a4   Data           4  usbh_cdc.o(.data)
    ACMDataSendQueue                         0x200000a8   Data           4  usbh_cdc.o(.data)
    uwTick                                   0x200000ac   Data           4  stm32f4xx_hal.o(.data)
    uwTickPrio                               0x200000b0   Data           4  stm32f4xx_hal.o(.data)
    uwTickFreq                               0x200000b4   Data           1  stm32f4xx_hal.o(.data)
    pxCurrentTCB                             0x200000e4   Data           4  tasks.o(.data)
    g_EnBinaryArrayCount                     0x20000228   Data           4  file_binary_array_list_en.o(.data)
    g_EnFileBinaryArrayList                  0x2000022c   Data           4  file_binary_array_list_en.o(.data)
    UserInfo                                 0x20000274   Data           4  gdu_core.o(.data)
    GimbalCommonHandler                      0x20000280   Data           4  gdu_gimbal.o(.data)
    GimbalFunList                            0x20000284   Data          24  gdu_gimbal.o(.data)
    start_time                               0x200002ac   Data           4  gdu_logger.o(.data)
    loogerMutexHandle                        0x200002b0   Data           4  gdu_logger.o(.data)
    OsalHandler                              0x20000388   Data           4  gdu_platform.o(.data)
    HalUartHandler                           0x2000038c   Data           4  gdu_platform.o(.data)
    HalUsbBulkHandler                        0x20000390   Data           4  gdu_platform.o(.data)
    HalNetworkHandler                        0x20000394   Data           4  gdu_platform.o(.data)
    FileSystemHandler                        0x20000398   Data           4  gdu_platform.o(.data)
    SocketHandler                            0x2000039c   Data           4  gdu_platform.o(.data)
    LoggerConsole                            0x200003a0   Data           8  gdu_platform.o(.data)
    downloadFileAck                          0x200004c1   Data           6  gdu_upgrade.o(.data)
    GetNewestPpsTriggerLocalTimeUsCallback   0x20000534   Data           4  time_sync.o(.data)
    year                                     0x20000540   Data           1  time_sync.o(.data)
    month                                    0x20000541   Data           1  time_sync.o(.data)
    day                                      0x20000542   Data           1  time_sync.o(.data)
    comId                                    0x200005c4   Data           1  basemsghandle.o(.data)
    appInfo                                  0x200005c5   Data           2  basemsghandle.o(.data)
    sendQueuePercent                         0x200005fa   Data           1  npc.o(.data)
    recvQueuePercent                         0x200005fb   Data           1  npc.o(.data)
    __stdout                                 0x200005fc   Data           4  stdout.o(.data)
    __microlib_freelist                      0x20000600   Data           4  mvars.o(.data)
    __microlib_freelist_initialised          0x20000604   Data           4  mvars.o(.data)
    hhcd_USB_OTG_FS                          0x2000060c   Data         772  stm32f4xx_it.o(.bss)
    htim1                                    0x20000910   Data          72  stm32f4xx_it.o(.bss)
    pFlash                                   0x2000430c   Data          32  stm32f4xx_hal_flash.o(.bss)
    xQueueRegistry                           0x20016824   Data          64  queue.o(.bss)
    ProductAlias                             0x20016cac   Data          30  gdu_core.o(.bss)
    sprint_buf                               0x20016cca   Data         512  gdu_logger.o(.bss)
    log_buf                                  0x20016eca   Data         512  gdu_logger.o(.bss)
    posAck                                   0x200174d8   Data          22  gdu_positioning.o(.bss)
    posState                                 0x200174ee   Data         189  gdu_positioning.o(.bss)
    aircraftBasicStateInfo1                  0x2001adf0   Data          97  gdu_subscribeinfo.o(.bss)
    aircraftBasicStateInfo2                  0x2001ae51   Data          72  gdu_subscribeinfo.o(.bss)
    aircraftAttitudeInfo                     0x2001ae99   Data          34  gdu_subscribeinfo.o(.bss)
    aircraftSpeedInfo                        0x2001aebb   Data          14  gdu_subscribeinfo.o(.bss)
    aircraftGnssInfo                         0x2001aec9   Data          43  gdu_subscribeinfo.o(.bss)
    aircraftBatteryInfo                      0x2001aef4   Data          37  gdu_subscribeinfo.o(.bss)
    timeSyncInfo                             0x2001af19   Data          16  gdu_subscribeinfo.o(.bss)
    subscribeInfo                            0x2001b901   Data         384  gdu_subscribeinfo.o(.bss)
    upgradeConf                              0x2001ba94   Data          20  gdu_upgrade.o(.bss)
    upgradeHandl                             0x2001baa8   Data          16  gdu_upgrade.o(.bss)
    upgradeFileInfo                          0x2001bc60   Data          68  gdu_upgrade.o(.bss)
    adapterRingSn                            0x2001bfb0   Data          20  basemsghandle.o(.bss)
    __heap_base                              0x2001bff0   Data           0  startup_stm32f407xx.o(HEAP)
    __heap_limit                             0x2001c1f0   Data           0  startup_stm32f407xx.o(HEAP)
    __initial_sp                             0x2001c5f0   Data           0  startup_stm32f407xx.o(STACK)



==============================================================================

Memory Map of the image

  Image Entry point : 0x08010189

  Load Region LR_IROM1 (Base: 0x08010000, Size: 0x0002ff1c, Max: 0x00070000, ABSOLUTE, COMPRESSED[0x0002fad4])

    Execution Region ER_IROM1 (Exec base: 0x08010000, Load base: 0x08010000, Size: 0x0002f910, Max: 0x00070000, ABSOLUTE)

    Exec Addr    Load Addr    Size         Type   Attr      Idx    E Section Name        Object

    0x08010000   0x08010000   0x00000188   Data   RO           38    RESET               startup_stm32f407xx.o
    0x08010188   0x08010188   0x00000000   Code   RO          364  * .ARM.Collect$$$$00000000  mc_w.l(entry.o)
    0x08010188   0x08010188   0x00000004   Code   RO          579    .ARM.Collect$$$$00000001  mc_w.l(entry2.o)
    0x0801018c   0x0801018c   0x00000004   Code   RO          582    .ARM.Collect$$$$00000004  mc_w.l(entry5.o)
    0x08010190   0x08010190   0x00000000   Code   RO          584    .ARM.Collect$$$$00000008  mc_w.l(entry7b.o)
    0x08010190   0x08010190   0x00000000   Code   RO          586    .ARM.Collect$$$$0000000A  mc_w.l(entry8b.o)
    0x08010190   0x08010190   0x00000008   Code   RO          587    .ARM.Collect$$$$0000000B  mc_w.l(entry9a.o)
    0x08010198   0x08010198   0x00000000   Code   RO          589    .ARM.Collect$$$$0000000D  mc_w.l(entry10a.o)
    0x08010198   0x08010198   0x00000000   Code   RO          591    .ARM.Collect$$$$0000000F  mc_w.l(entry11a.o)
    0x08010198   0x08010198   0x00000004   Code   RO          580    .ARM.Collect$$$$00002712  mc_w.l(entry2.o)
    0x0801019c   0x0801019c   0x000000b6   Code   RO          183    .emb_text           port.o
    0x08010252   0x08010252   0x00000002   PAD
    0x08010254   0x08010254   0x000008e8   Code   RO            4    .text               application.o
    0x08010b3c   0x08010b3c   0x000000dc   Code   RO           11    .text               hal_uart.o
    0x08010c18   0x08010c18   0x00000130   Code   RO           15    .text               main.o
    0x08010d48   0x08010d48   0x000001de   Code   RO           17    .text               osal.o
    0x08010f26   0x08010f26   0x00000002   PAD
    0x08010f28   0x08010f28   0x00000254   Code   RO           21    .text               flash_if.o
    0x0801117c   0x0801117c   0x000000f4   Code   RO           27    .text               led.o
    0x08011270   0x08011270   0x0000016c   Code   RO           33    .text               pps.o
    0x080113dc   0x080113dc   0x00000024   Code   RO           39    .text               startup_stm32f407xx.o
    0x08011400   0x08011400   0x00000348   Code   RO           43    .text               stm32f4xx_hal_msp.o
    0x08011748   0x08011748   0x000000b0   Code   RO           47    .text               stm32f4xx_hal_timebase_tim.o
    0x080117f8   0x080117f8   0x00000040   Code   RO           51    .text               stm32f4xx_it.o
    0x08011838   0x08011838   0x000000dc   Code   RO           57    .text               system_stm32f4xx.o
    0x08011914   0x08011914   0x00000774   Code   RO           63    .text               uart.o
    0x08012088   0x08012088   0x0000081c   Code   RO           69    .text               usbh_cdc.o
    0x080128a4   0x080128a4   0x000010d6   Code   RO           76    .text               usbh_core.o
    0x0801397a   0x0801397a   0x00000002   PAD
    0x0801397c   0x0801397c   0x00000730   Code   RO           82    .text               usbh_ctlreq.o
    0x080140ac   0x080140ac   0x00000190   Code   RO           86    .text               usbh_ioreq.o
    0x0801423c   0x0801423c   0x000000ac   Code   RO           90    .text               usbh_pipes.o
    0x080142e8   0x080142e8   0x0000013c   Code   RO           91    .text               gdu_ringbuffer.o
    0x08014424   0x08014424   0x000000b0   Code   RO           95    .text               apply_high_power.o
    0x080144d4   0x080144d4   0x000001b4   Code   RO          100    .text               upgrade_platform_opt_stm32.o
    0x08014688   0x08014688   0x00000204   Code   RO          105    .text               stm32f4xx_hal.o
    0x0801488c   0x0801488c   0x000003d0   Code   RO          110    .text               stm32f4xx_hal_cortex.o
    0x08014c5c   0x08014c5c   0x000008b0   Code   RO          114    .text               stm32f4xx_hal_dma.o
    0x0801550c   0x0801550c   0x00000468   Code   RO          127    .text               stm32f4xx_hal_flash.o
    0x08015974   0x08015974   0x000003dc   Code   RO          132    .text               stm32f4xx_hal_flash_ex.o
    0x08015d50   0x08015d50   0x000003bc   Code   RO          139    .text               stm32f4xx_hal_gpio.o
    0x0801610c   0x0801610c   0x000017ac   Code   RO          143    .text               stm32f4xx_hal_hcd.o
    0x080178b8   0x080178b8   0x00000948   Code   RO          155    .text               stm32f4xx_hal_rcc.o
    0x08018200   0x08018200   0x00003bac   Code   RO          163    .text               stm32f4xx_hal_tim.o
    0x0801bdac   0x0801bdac   0x00001788   Code   RO          167    .text               stm32f4xx_hal_tim_ex.o
    0x0801d534   0x0801d534   0x0000170c   Code   RO          171    .text               stm32f4xx_hal_uart.o
    0x0801ec40   0x0801ec40   0x00001940   Code   RO          175    .text               stm32f4xx_ll_usb.o
    0x08020580   0x08020580   0x00000904   Code   RO          179    .text               cmsis_os.o
    0x08020e84   0x08020e84   0x00000324   Code   RO          180    .text               heap_4.o
    0x080211a8   0x080211a8   0x0000030c   Code   RO          184    .text               port.o
    0x080214b4   0x080214b4   0x00000094   Code   RO          187    .text               list.o
    0x08021548   0x08021548   0x00000e1c   Code   RO          188    .text               queue.o
    0x08022364   0x08022364   0x00001624   Code   RO          190    .text               tasks.o
    0x08023988   0x08023988   0x000003d4   Code   RO          202    .text               usbh_conf.o
    0x08023d5c   0x08023d5c   0x00002154   Code   RO          203    .text               test_payload_cam_emu_base.o
    0x08025eb0   0x08025eb0   0x00000de0   Code   RO          208    .text               test_fc_subscription.o
    0x08026c90   0x08026c90   0x000025cc   Code   RO          212    .text               test_payload_gimbal_emu.o
    0x0802925c   0x0802925c   0x00000544   Code   RO          217    .text               test_positioning.o
    0x080297a0   0x080297a0   0x00000484   Code   RO          221    .text               test_time_sync.o
    0x08029c24   0x08029c24   0x00000bd4   Code   RO          226    .text               util_md5.o
    0x0802a7f8   0x0802a7f8   0x000003cc   Code   RO          227    .text               test_power_management.o
    0x0802abc4   0x0802abc4   0x00000398   Code   RO          233    .text               test_widget.o
    0x0802af5c   0x0802af5c   0x0000067c   Code   RO          238    .text               test_upgrade.o
    0x0802b5d8   0x0802b5d8   0x00000398   Code   RO          242    .text               test_upgrade_common_file_transfer.o
    0x0802b970   0x0802b970   0x000003e8   Code   RO          247    .text               test_upgrade_platform_opt.o
    0x0802bd58   0x0802bd58   0x00000020   Code   RO          254    .text               mdk_app.lib(gdu_aircraft_info.o)
    0x0802bd78   0x0802bd78   0x00000760   Code   RO          255    .text               mdk_app.lib(gdu_core.o)
    0x0802c4d8   0x0802c4d8   0x00000498   Code   RO          259    .text               mdk_app.lib(gdu_gimbal.o)
    0x0802c970   0x0802c970   0x00000234   Code   RO          262    .text               mdk_app.lib(gdu_logger.o)
    0x0802cba4   0x0802cba4   0x0000239a   Code   RO          267    .text               mdk_app.lib(gdu_payload_camera.o)
    0x0802ef3e   0x0802ef3e   0x00000002   PAD
    0x0802ef40   0x0802ef40   0x000000a4   Code   RO          272    .text               mdk_app.lib(gdu_platform.o)
    0x0802efe4   0x0802efe4   0x000014ac   Code   RO          274    .text               mdk_app.lib(gdu_positioning.o)
    0x08030490   0x08030490   0x00000034   Code   RO          279    .text               mdk_app.lib(gdu_power_management.o)
    0x080304c4   0x080304c4   0x00000e64   Code   RO          281    .text               mdk_app.lib(gdu_subscribeinfo.o)
    0x08031328   0x08031328   0x000011c8   Code   RO          285    .text               mdk_app.lib(gdu_upgrade.o)
    0x080324f0   0x080324f0   0x00001014   Code   RO          289    .text               mdk_app.lib(gdu_widget.o)
    0x08033504   0x08033504   0x00000604   Code   RO          295    .text               mdk_app.lib(time_sync.o)
    0x08033b08   0x08033b08   0x00001f0c   Code   RO          298    .text               mdk_app.lib(gdu_flight_controller.o)
    0x08035a14   0x08035a14   0x000004f4   Code   RO          303    .text               mdk_app.lib(basemsghandle.o)
    0x08035f08   0x08035f08   0x000001a4   Code   RO          307    .text               mdk_app.lib(gdu_serial.o)
    0x080360ac   0x080360ac   0x00000f40   Code   RO          310    .text               mdk_app.lib(npc.o)
    0x08036fec   0x08036fec   0x000000e0   Code   RO          313    .text               mdk_app.lib(gdu_cache.o)
    0x080370cc   0x080370cc   0x00000156   Code   RO          314    .text               mdk_app.lib(general_linked_list.o)
    0x08037222   0x08037222   0x00000062   Code   RO          367    .text               mc_w.l(uldiv.o)
    0x08037284   0x08037284   0x000000a8   Code   RO          371    .text               mc_w.l(mktime.o)
    0x0803732c   0x0803732c   0x00000024   Code   RO          373    .text               mc_w.l(memcpya.o)
    0x08037350   0x08037350   0x00000024   Code   RO          374    .text               mc_w.l(memseta.o)
    0x08037374   0x08037374   0x00000024   Code   RO          375    .text               mc_w.l(strstr.o)
    0x08037398   0x08037398   0x00000018   Code   RO          376    .text               mc_w.l(strncpy.o)
    0x080373b0   0x080373b0   0x0000000e   Code   RO          377    .text               mc_w.l(strlen.o)
    0x080373be   0x080373be   0x0000001c   Code   RO          378    .text               mc_w.l(strcmp.o)
    0x080373da   0x080373da   0x0000001a   Code   RO          379    .text               mc_w.l(memcmp.o)
    0x080373f4   0x080373f4   0x00000012   Code   RO          380    .text               mc_w.l(strcpy.o)
    0x08037406   0x08037406   0x0000001e   Code   RO          381    .text               mc_w.l(strncmp.o)
    0x08037424   0x08037424   0x0000001a   Code   RO          528    .text               mc_w.l(atoi.o)
    0x0803743e   0x0803743e   0x0000014e   Code   RO          529    .text               mf_w.l(dadd.o)
    0x0803758c   0x0803758c   0x000000e4   Code   RO          530    .text               mf_w.l(dmul.o)
    0x08037670   0x08037670   0x000000de   Code   RO          531    .text               mf_w.l(ddiv.o)
    0x0803774e   0x0803774e   0x00000022   Code   RO          532    .text               mf_w.l(dflti.o)
    0x08037770   0x08037770   0x0000003e   Code   RO          533    .text               mf_w.l(dfixi.o)
    0x080377ae   0x080377ae   0x00000026   Code   RO          534    .text               mf_w.l(f2d.o)
    0x080377d4   0x080377d4   0x00000030   Code   RO          536    .text               mf_w.l(cdrcmple.o)
    0x08037804   0x08037804   0x0000002c   Code   RO          594    .text               mc_w.l(uidiv.o)
    0x08037830   0x08037830   0x0000001e   Code   RO          595    .text               mc_w.l(llshl.o)
    0x0803784e   0x0803784e   0x00000020   Code   RO          596    .text               mc_w.l(llushr.o)
    0x0803786e   0x0803786e   0x00000024   Code   RO          597    .text               mc_w.l(llsshr.o)
    0x08037892   0x08037892   0x00000002   PAD
    0x08037894   0x08037894   0x0000000c   Code   RO          598    .text               mc_w.l(localtime_w.o)
    0x080378a0   0x080378a0   0x0000008c   Code   RO          600    .text               mc_w.l(localtime_i.o)
    0x0803792c   0x0803792c   0x00000070   Code   RO          608    .text               mc_w.l(strtol.o)
    0x0803799c   0x0803799c   0x00000000   Code   RO          609    .text               mc_w.l(iusefp.o)
    0x0803799c   0x0803799c   0x000000ba   Code   RO          611    .text               mf_w.l(depilogue.o)
    0x08037a56   0x08037a56   0x00000030   Code   RO          615    .text               mf_w.l(dfixul.o)
    0x08037a86   0x08037a86   0x00000002   PAD
    0x08037a88   0x08037a88   0x00000024   Code   RO          616    .text               mc_w.l(init.o)
    0x08037aac   0x08037aac   0x00000008   Code   RO          617    .text               mc_w.l(ctype_o.o)
    0x08037ab4   0x08037ab4   0x0000009e   Code   RO          632    .text               mc_w.l(_strtoul.o)
    0x08037b52   0x08037b52   0x0000001c   Code   RO          634    .text               mc_w.l(_chval.o)
    0x08037b6e   0x08037b6e   0x00000056   Code   RO          640    .text               mc_w.l(__dczerorl2.o)
    0x08037bc4   0x08037bc4   0x00000020   Code   RO          500    i.__0printf         mc_w.l(printfa.o)
    0x08037be4   0x08037be4   0x00000030   Code   RO          501    i.__0snprintf       mc_w.l(printfa.o)
    0x08037c14   0x08037c14   0x00000028   Code   RO          502    i.__0sprintf        mc_w.l(printfa.o)
    0x08037c3c   0x08037c3c   0x00000024   Code   RO          506    i.__0vsprintf       mc_w.l(printfa.o)
    0x08037c60   0x08037c60   0x00000026   Code   RO          556    i.__ARM_fpclassifyf  m_wm.l(fpclassifyf.o)
    0x08037c86   0x08037c86   0x00000002   PAD
    0x08037c88   0x08037c88   0x00000008   Code   RO          604    i.__aeabi_errno_addr  mc_w.l(errno.o)
    0x08037c90   0x08037c90   0x0000012c   Code   RO          323    i.__hardfp_asinf    m_wm.l(asinf.o)
    0x08037dbc   0x08037dbc   0x00000250   Code   RO          335    i.__hardfp_atan2f   m_wm.l(atan2f.o)
    0x0803800c   0x0803800c   0x00000006   Code   RO          558    i.__mathlib_flt_infnan  m_wm.l(funder.o)
    0x08038012   0x08038012   0x00000006   Code   RO          559    i.__mathlib_flt_infnan2  m_wm.l(funder.o)
    0x08038018   0x08038018   0x00000010   Code   RO          560    i.__mathlib_flt_invalid  m_wm.l(funder.o)
    0x08038028   0x08038028   0x00000010   Code   RO          563    i.__mathlib_flt_underflow  m_wm.l(funder.o)
    0x08038038   0x08038038   0x0000000e   Code   RO          637    i.__scatterload_copy  mc_w.l(handlers.o)
    0x08038046   0x08038046   0x00000002   Code   RO          638    i.__scatterload_null  mc_w.l(handlers.o)
    0x08038048   0x08038048   0x0000000e   Code   RO          639    i.__scatterload_zeroinit  mc_w.l(handlers.o)
    0x08038056   0x08038056   0x00000002   PAD
    0x08038058   0x08038058   0x0000000c   Code   RO          606    i.__set_errno       mc_w.l(errno.o)
    0x08038064   0x08038064   0x00000184   Code   RO          507    i._fp_digits        mc_w.l(printfa.o)
    0x080381e8   0x080381e8   0x000006dc   Code   RO          508    i._printf_core      mc_w.l(printfa.o)
    0x080388c4   0x080388c4   0x00000024   Code   RO          509    i._printf_post_padding  mc_w.l(printfa.o)
    0x080388e8   0x080388e8   0x0000002e   Code   RO          510    i._printf_pre_padding  mc_w.l(printfa.o)
    0x08038916   0x08038916   0x00000016   Code   RO          511    i._snputc           mc_w.l(printfa.o)
    0x0803892c   0x0803892c   0x0000000a   Code   RO          512    i._sputc            mc_w.l(printfa.o)
    0x08038936   0x08038936   0x00000002   PAD
    0x08038938   0x08038938   0x00000050   Code   RO          514    i.free              mc_w.l(malloc.o)
    0x08038988   0x08038988   0x0000006c   Code   RO          515    i.malloc            mc_w.l(malloc.o)
    0x080389f4   0x080389f4   0x0000003e   Code   RO          575    i.sqrtf             m_wm.l(sqrtf.o)
    0x08038a32   0x08038a32   0x00000002   PAD
    0x08038a34   0x08038a34   0x000000dd   Data   RO            5    .constdata          application.o
    0x08038b11   0x08038b11   0x00000001   PAD
    0x08038b12   0x08038b12   0x00000008   Data   RO           28    .constdata          led.o
    0x08038b1a   0x08038b1a   0x00000027   Data   RO           34    .constdata          pps.o
    0x08038b41   0x08038b41   0x00000018   Data   RO           58    .constdata          system_stm32f4xx.o
    0x08038b59   0x08038b59   0x00000003   PAD
    0x08038b5c   0x08038b5c   0x0000001c   Data   RO           77    .constdata          usbh_core.o
    0x08038b78   0x08038b78   0x0000001f   Data   RO           96    .constdata          apply_high_power.o
    0x08038b97   0x08038b97   0x00000008   Data   RO          115    .constdata          stm32f4xx_hal_dma.o
    0x08038b9f   0x08038b9f   0x000002d1   Data   RO          205    .constdata          test_payload_cam_emu_base.o
    0x08038e70   0x08038e70   0x0000008b   Data   RO          209    .constdata          test_fc_subscription.o
    0x08038efb   0x08038efb   0x000001c1   Data   RO          214    .constdata          test_payload_gimbal_emu.o
    0x080390bc   0x080390bc   0x00000038   Data   RO          218    .constdata          test_positioning.o
    0x080390f4   0x080390f4   0x0000007c   Data   RO          222    .constdata          test_time_sync.o
    0x08039170   0x08039170   0x0000006a   Data   RO          228    .constdata          test_power_management.o
    0x080391da   0x080391da   0x000051f1   Data   RO          230    .constdata          file_binary_array_list_en.o
    0x0803e3cb   0x0803e3cb   0x00000001   PAD
    0x0803e3cc   0x0803e3cc   0x00000113   Data   RO          235    .constdata          test_widget.o
    0x0803e4df   0x0803e4df   0x00000001   PAD
    0x0803e4e0   0x0803e4e0   0x0000007f   Data   RO          239    .constdata          test_upgrade.o
    0x0803e55f   0x0803e55f   0x00000082   Data   RO          244    .constdata          test_upgrade_common_file_transfer.o
    0x0803e5e1   0x0803e5e1   0x0000001e   Data   RO          249    .constdata          test_upgrade_platform_opt.o
    0x0803e5ff   0x0803e5ff   0x0000004d   Data   RO          257    .constdata          mdk_app.lib(gdu_core.o)
    0x0803e64c   0x0803e64c   0x0000002a   Data   RO          260    .constdata          mdk_app.lib(gdu_gimbal.o)
    0x0803e676   0x0803e676   0x00000002   PAD
    0x0803e678   0x0803e678   0x00000010   Data   RO          264    .constdata          mdk_app.lib(gdu_logger.o)
    0x0803e688   0x0803e688   0x00000132   Data   RO          269    .constdata          mdk_app.lib(gdu_payload_camera.o)
    0x0803e7ba   0x0803e7ba   0x00000084   Data   RO          276    .constdata          mdk_app.lib(gdu_positioning.o)
    0x0803e83e   0x0803e83e   0x0000004d   Data   RO          283    .constdata          mdk_app.lib(gdu_subscribeinfo.o)
    0x0803e88b   0x0803e88b   0x0000009e   Data   RO          287    .constdata          mdk_app.lib(gdu_upgrade.o)
    0x0803e929   0x0803e929   0x00000044   Data   RO          296    .constdata          mdk_app.lib(time_sync.o)
    0x0803e96d   0x0803e96d   0x00000468   Data   RO          300    .constdata          mdk_app.lib(gdu_flight_controller.o)
    0x0803edd5   0x0803edd5   0x0000002f   Data   RO          305    .constdata          mdk_app.lib(basemsghandle.o)
    0x0803ee04   0x0803ee04   0x0000002e   Data   RO          308    .constdata          mdk_app.lib(gdu_serial.o)
    0x0803ee32   0x0803ee32   0x0000003e   Data   RO          311    .constdata          mdk_app.lib(npc.o)
    0x0803ee70   0x0803ee70   0x0000000c   Data   RO          372    .constdata          mc_w.l(mktime.o)
    0x0803ee7c   0x0803ee7c   0x0000000c   Data   RO          601    .constdata          mc_w.l(localtime_i.o)
    0x0803ee88   0x0803ee88   0x00000081   Data   RO          618    .constdata          mc_w.l(ctype_o.o)
    0x0803ef09   0x0803ef09   0x00000003   PAD
    0x0803ef0c   0x0803ef0c   0x00000004   Data   RO          619    .constdata          mc_w.l(ctype_o.o)
    0x0803ef10   0x0803ef10   0x000000dd   Data   RO            6    .conststring        application.o
    0x0803efed   0x0803efed   0x00000003   PAD
    0x0803eff0   0x0803eff0   0x0000004d   Data   RO           71    .conststring        usbh_cdc.o
    0x0803f03d   0x0803f03d   0x00000003   PAD
    0x0803f040   0x0803f040   0x0000004e   Data   RO           78    .conststring        usbh_core.o
    0x0803f08e   0x0803f08e   0x00000002   PAD
    0x0803f090   0x0803f090   0x0000011a   Data   RO          206    .conststring        test_payload_cam_emu_base.o
    0x0803f1aa   0x0803f1aa   0x00000002   PAD
    0x0803f1ac   0x0803f1ac   0x00000172   Data   RO          210    .conststring        test_fc_subscription.o
    0x0803f31e   0x0803f31e   0x00000002   PAD
    0x0803f320   0x0803f320   0x00000113   Data   RO          215    .conststring        test_payload_gimbal_emu.o
    0x0803f433   0x0803f433   0x00000001   PAD
    0x0803f434   0x0803f434   0x00000049   Data   RO          219    .conststring        test_positioning.o
    0x0803f47d   0x0803f47d   0x00000003   PAD
    0x0803f480   0x0803f480   0x0000012b   Data   RO          223    .conststring        test_time_sync.o
    0x0803f5ab   0x0803f5ab   0x00000001   PAD
    0x0803f5ac   0x0803f5ac   0x000000a7   Data   RO          231    .conststring        file_binary_array_list_en.o
    0x0803f653   0x0803f653   0x00000001   PAD
    0x0803f654   0x0803f654   0x000000ce   Data   RO          236    .conststring        test_widget.o
    0x0803f722   0x0803f722   0x00000002   PAD
    0x0803f724   0x0803f724   0x00000042   Data   RO          240    .conststring        test_upgrade.o
    0x0803f766   0x0803f766   0x00000002   PAD
    0x0803f768   0x0803f768   0x00000041   Data   RO          245    .conststring        test_upgrade_common_file_transfer.o
    0x0803f7a9   0x0803f7a9   0x00000003   PAD
    0x0803f7ac   0x0803f7ac   0x0000001e   Data   RO          265    .conststring        mdk_app.lib(gdu_logger.o)
    0x0803f7ca   0x0803f7ca   0x00000002   PAD
    0x0803f7cc   0x0803f7cc   0x00000042   Data   RO          270    .conststring        mdk_app.lib(gdu_payload_camera.o)
    0x0803f80e   0x0803f80e   0x00000002   PAD
    0x0803f810   0x0803f810   0x0000004b   Data   RO          277    .conststring        mdk_app.lib(gdu_positioning.o)
    0x0803f85b   0x0803f85b   0x00000001   PAD
    0x0803f85c   0x0803f85c   0x00000091   Data   RO          301    .conststring        mdk_app.lib(gdu_flight_controller.o)
    0x0803f8ed   0x0803f8ed   0x00000003   PAD
    0x0803f8f0   0x0803f8f0   0x00000020   Data   RO          635    Region$$Table       anon$$obj.o


    Execution Region RW_IRAM1 (Exec base: 0x20000000, Load base: 0x0803f910, Size: 0x0001c5f0, Max: 0x00020000, ABSOLUTE, COMPRESSED[0x000001c4])

    Exec Addr    Load Addr    Size         Type   Attr      Idx    E Section Name        Object

    0x20000000   COMPRESSED   0x00000004   Data   RW            7    .data               application.o
    0x20000004   COMPRESSED   0x00000008   Data   RW           16    .data               main.o
    0x2000000c   COMPRESSED   0x00000010   Data   RW           29    .data               led.o
    0x2000001c   COMPRESSED   0x00000004   PAD
    0x20000020   COMPRESSED   0x0000000c   Data   RW           35    .data               pps.o
    0x2000002c   COMPRESSED   0x00000004   Data   RW           53    .data               stm32f4xx_it.o
    0x20000030   COMPRESSED   0x00000004   Data   RW           59    .data               system_stm32f4xx.o
    0x20000034   COMPRESSED   0x00000050   Data   RW           65    .data               uart.o
    0x20000084   COMPRESSED   0x00000028   Data   RW           72    .data               usbh_cdc.o
    0x200000ac   COMPRESSED   0x00000009   Data   RW          106    .data               stm32f4xx_hal.o
    0x200000b5   COMPRESSED   0x00000003   PAD
    0x200000b8   COMPRESSED   0x00000020   Data   RW          182    .data               heap_4.o
    0x200000d8   COMPRESSED   0x0000000c   Data   RW          185    .data               port.o
    0x200000e4   COMPRESSED   0x0000003c   Data   RW          192    .data               tasks.o
    0x20000120   COMPRESSED   0x00000060   Data   RW          207    .data               test_payload_cam_emu_base.o
    0x20000180   COMPRESSED   0x00000006   Data   RW          211    .data               test_fc_subscription.o
    0x20000186   COMPRESSED   0x00000002   PAD
    0x20000188   COMPRESSED   0x00000024   Data   RW          216    .data               test_payload_gimbal_emu.o
    0x200001ac   COMPRESSED   0x00000008   Data   RW          220    .data               test_positioning.o
    0x200001b4   COMPRESSED   0x0000000c   Data   RW          224    .data               test_time_sync.o
    0x200001c0   COMPRESSED   0x00000008   Data   RW          229    .data               test_power_management.o
    0x200001c8   COMPRESSED   0x00000068   Data   RW          232    .data               file_binary_array_list_en.o
    0x20000230   COMPRESSED   0x00000020   Data   RW          237    .data               test_widget.o
    0x20000250   COMPRESSED   0x00000012   Data   RW          241    .data               test_upgrade.o
    0x20000262   COMPRESSED   0x00000002   PAD
    0x20000264   COMPRESSED   0x00000004   Data   RW          246    .data               test_upgrade_common_file_transfer.o
    0x20000268   COMPRESSED   0x00000015   Data   RW          258    .data               mdk_app.lib(gdu_core.o)
    0x2000027d   COMPRESSED   0x00000003   PAD
    0x20000280   COMPRESSED   0x0000002c   Data   RW          261    .data               mdk_app.lib(gdu_gimbal.o)
    0x200002ac   COMPRESSED   0x00000008   Data   RW          266    .data               mdk_app.lib(gdu_logger.o)
    0x200002b4   COMPRESSED   0x000000d1   Data   RW          271    .data               mdk_app.lib(gdu_payload_camera.o)
    0x20000385   COMPRESSED   0x00000003   PAD
    0x20000388   COMPRESSED   0x00000020   Data   RW          273    .data               mdk_app.lib(gdu_platform.o)
    0x200003a8   COMPRESSED   0x00000069   Data   RW          278    .data               mdk_app.lib(gdu_positioning.o)
    0x20000411   COMPRESSED   0x00000003   PAD
    0x20000414   COMPRESSED   0x00000004   Data   RW          280    .data               mdk_app.lib(gdu_power_management.o)
    0x20000418   COMPRESSED   0x00000088   Data   RW          284    .data               mdk_app.lib(gdu_subscribeinfo.o)
    0x200004a0   COMPRESSED   0x00000034   Data   RW          288    .data               mdk_app.lib(gdu_upgrade.o)
    0x200004d4   COMPRESSED   0x00000047   Data   RW          291    .data               mdk_app.lib(gdu_widget.o)
    0x2000051b   COMPRESSED   0x00000005   PAD
    0x20000520   COMPRESSED   0x00000040   Data   RW          297    .data               mdk_app.lib(time_sync.o)
    0x20000560   COMPRESSED   0x00000060   Data   RW          302    .data               mdk_app.lib(gdu_flight_controller.o)
    0x200005c0   COMPRESSED   0x0000001f   Data   RW          306    .data               mdk_app.lib(basemsghandle.o)
    0x200005df   COMPRESSED   0x00000001   PAD
    0x200005e0   COMPRESSED   0x00000004   Data   RW          309    .data               mdk_app.lib(gdu_serial.o)
    0x200005e4   COMPRESSED   0x00000018   Data   RW          312    .data               mdk_app.lib(npc.o)
    0x200005fc   COMPRESSED   0x00000004   Data   RW          593    .data               mc_w.l(stdout.o)
    0x20000600   COMPRESSED   0x00000004   Data   RW          602    .data               mc_w.l(mvars.o)
    0x20000604   COMPRESSED   0x00000004   Data   RW          603    .data               mc_w.l(mvars.o)
    0x20000608   COMPRESSED   0x00000004   Data   RW          607    .data               mc_w.l(errno.o)
    0x2000060c        -       0x0000034c   Zero   RW           52    .bss                stm32f4xx_it.o
    0x20000958        -       0x00003570   Zero   RW           64    .bss                uart.o
    0x20003ec8        -       0x00000400   Zero   RW           70    .bss                usbh_cdc.o
    0x200042c8        -       0x00000044   Zero   RW          101    .bss                upgrade_platform_opt_stm32.o
    0x2000430c        -       0x00000020   Zero   RW          128    .bss                stm32f4xx_hal_flash.o
    0x2000432c        -       0x000124f8   Zero   RW          181    .bss                heap_4.o
    0x20016824        -       0x00000040   Zero   RW          189    .bss                queue.o
    0x20016864        -       0x000000f0   Zero   RW          191    .bss                tasks.o
    0x20016954        -       0x000000ea   Zero   RW          204    .bss                test_payload_cam_emu_base.o
    0x20016a3e   COMPRESSED   0x00000002   PAD
    0x20016a40        -       0x00000098   Zero   RW          213    .bss                test_payload_gimbal_emu.o
    0x20016ad8        -       0x00000168   Zero   RW          234    .bss                test_widget.o
    0x20016c40        -       0x00000044   Zero   RW          243    .bss                test_upgrade_common_file_transfer.o
    0x20016c84        -       0x00000028   Zero   RW          248    .bss                test_upgrade_platform_opt.o
    0x20016cac        -       0x0000001e   Zero   RW          256    .bss                mdk_app.lib(gdu_core.o)
    0x20016cca        -       0x00000400   Zero   RW          263    .bss                mdk_app.lib(gdu_logger.o)
    0x200170ca   COMPRESSED   0x00000002   PAD
    0x200170cc        -       0x000002e4   Zero   RW          268    .bss                mdk_app.lib(gdu_payload_camera.o)
    0x200173b0        -       0x00003a40   Zero   RW          275    .bss                mdk_app.lib(gdu_positioning.o)
    0x2001adf0        -       0x00000ca1   Zero   RW          282    .bss                mdk_app.lib(gdu_subscribeinfo.o)
    0x2001ba91   COMPRESSED   0x00000003   PAD
    0x2001ba94        -       0x00000210   Zero   RW          286    .bss                mdk_app.lib(gdu_upgrade.o)
    0x2001bca4        -       0x000001bc   Zero   RW          290    .bss                mdk_app.lib(gdu_widget.o)
    0x2001be60        -       0x00000150   Zero   RW          299    .bss                mdk_app.lib(gdu_flight_controller.o)
    0x2001bfb0        -       0x00000014   Zero   RW          304    .bss                mdk_app.lib(basemsghandle.o)
    0x2001bfc4        -       0x0000002c   Zero   RW          599    .bss                mc_w.l(localtime_w.o)
    0x2001bff0        -       0x00000200   Zero   RW           37    HEAP                startup_stm32f407xx.o
    0x2001c1f0        -       0x00000400   Zero   RW           36    STACK               startup_stm32f407xx.o


==============================================================================

Image component sizes


      Code (inc. data)   RO Data    RW Data    ZI Data      Debug   Object Name

      2280        970        442          4          0          0   application.o
       176         52         31          0          0          0   apply_high_power.o
      2308         12          0          0          0          0   cmsis_os.o
         0          0      21144        104          0          0   file_binary_array_list_en.o
       596         52          0          0          0          0   flash_if.o
       316          0          0          0          0          0   gdu_ringbuffer.o
       220          0          0          0          0          0   hal_uart.o
       804         38          0         32      75000          0   heap_4.o
       244         12          8         16          0          0   led.o
       148          0          0          0          0          0   list.o
       304         56          0          8          0          0   main.o
       478          0          0          0          0          0   osal.o
       962         52          0         12          0          0   port.o
       364        108         39         12          0          0   pps.o
      3612         16          0          0         64          0   queue.o
        36          8        392          0       1536          0   startup_stm32f407xx.o
       516         40          0          9          0          0   stm32f4xx_hal.o
       976         20          0          0          0          0   stm32f4xx_hal_cortex.o
      2224         28          8          0          0          0   stm32f4xx_hal_dma.o
      1128         32          0          0         32          0   stm32f4xx_hal_flash.o
       988          8          0          0          0          0   stm32f4xx_hal_flash_ex.o
       956         46          0          0          0          0   stm32f4xx_hal_gpio.o
      6060          0          0          0          0          0   stm32f4xx_hal_hcd.o
       840         32          0          0          0          0   stm32f4xx_hal_msp.o
      2376         70          0          0          0          0   stm32f4xx_hal_rcc.o
     15276        346          0          0          0          0   stm32f4xx_hal_tim.o
      6024        192          0          0          0          0   stm32f4xx_hal_tim_ex.o
       176         18          0          0          0          0   stm32f4xx_hal_timebase_tim.o
      5900         52          0          0          0          0   stm32f4xx_hal_uart.o
        64         12          0          4        844          0   stm32f4xx_it.o
      6464        106          0          0          0          0   stm32f4xx_ll_usb.o
       220         28         24          4          0          0   system_stm32f4xx.o
      5668        312          0         60        240          0   tasks.o
      3552       1338        509          6          0          0   test_fc_subscription.o
      8532       2042       1003         96        234          0   test_payload_cam_emu_base.o
      9676       1868        724         36        152          0   test_payload_gimbal_emu.o
      1348        600        129          8          0          0   test_positioning.o
       972        550        106          8          0          0   test_power_management.o
      1156        530        423         12          0          0   test_time_sync.o
      1660        646        193         18          0          0   test_upgrade.o
       920        312        195          4         68          0   test_upgrade_common_file_transfer.o
      1000        570         30          0         40          0   test_upgrade_platform_opt.o
       920        408        481         32        360          0   test_widget.o
      1908        212          0         80      13680          0   uart.o
       436         38          0          0         68          0   upgrade_platform_opt_stm32.o
      2076        164         77         40       1024          0   usbh_cdc.o
       980         12          0          0          0          0   usbh_conf.o
      4310        956        106          0          0          0   usbh_core.o
      1840         66          0          0          0          0   usbh_ctlreq.o
       400          0          0          0          0          0   usbh_ioreq.o
       172          0          0          0          0          0   usbh_pipes.o
      3028        262          0          0          0          0   util_md5.o

    ----------------------------------------------------------------------
    113596      13292      26127        616      93344          0   Object Totals
         0          0         32          0          0          0   (incl. Generated)
         6          0         31         11          2          0   (incl. Padding)

    ----------------------------------------------------------------------

      Code (inc. data)   RO Data    RW Data    ZI Data      Debug   Library Member Name

       300         42          0          0          0          0   asinf.o
       592         90          0          0          0          0   atan2f.o
        38          0          0          0          0          0   fpclassifyf.o
        44         12          0          0          0          0   funder.o
        62          0          0          0          0          0   sqrtf.o
        86          0          0          0          0          0   __dczerorl2.o
        28          0          0          0          0          0   _chval.o
       158          0          0          0          0          0   _strtoul.o
        26          0          0          0          0          0   atoi.o
         8          4        133          0          0          0   ctype_o.o
         0          0          0          0          0          0   entry.o
         0          0          0          0          0          0   entry10a.o
         0          0          0          0          0          0   entry11a.o
         8          4          0          0          0          0   entry2.o
         4          0          0          0          0          0   entry5.o
         0          0          0          0          0          0   entry7b.o
         0          0          0          0          0          0   entry8b.o
         8          4          0          0          0          0   entry9a.o
        20         10          0          4          0          0   errno.o
        30          0          0          0          0          0   handlers.o
        36          8          0          0          0          0   init.o
         0          0          0          0          0          0   iusefp.o
        30          0          0          0          0          0   llshl.o
        36          0          0          0          0          0   llsshr.o
        32          0          0          0          0          0   llushr.o
       140          6         12          0          0          0   localtime_i.o
        12          6          0          0         44          0   localtime_w.o
       188         20          0          0          0          0   malloc.o
        26          0          0          0          0          0   memcmp.o
        36          0          0          0          0          0   memcpya.o
        36          0          0          0          0          0   memseta.o
       168         18         12          0          0          0   mktime.o
         0          0          0          8          0          0   mvars.o
      2414        106          0          0          0          0   printfa.o
         0          0          0          4          0          0   stdout.o
        28          0          0          0          0          0   strcmp.o
        18          0          0          0          0          0   strcpy.o
        14          0          0          0          0          0   strlen.o
        30          0          0          0          0          0   strncmp.o
        24          0          0          0          0          0   strncpy.o
        36          0          0          0          0          0   strstr.o
       112          0          0          0          0          0   strtol.o
        44          0          0          0          0          0   uidiv.o
        98          0          0          0          0          0   uldiv.o
      1268        128         47         31         20          0   basemsghandle.o
        32          0          0          0          0          0   gdu_aircraft_info.o
       224          8          0          0          0          0   gdu_cache.o
      1888        448         77         21         30          0   gdu_core.o
      7948       1590       1273         96        336          0   gdu_flight_controller.o
      1176        112         42         44          0          0   gdu_gimbal.o
       564         98         46          8       1024          0   gdu_logger.o
      9114       1030        372        209        740          0   gdu_payload_camera.o
       164         26          0         32          0          0   gdu_platform.o
      5292        514        207        105      14912          0   gdu_positioning.o
        52          6          0          4          0          0   gdu_power_management.o
       420        140         46          4          0          0   gdu_serial.o
      3684        474         77        136       3233          0   gdu_subscribeinfo.o
      4552        802        158         52        528          0   gdu_upgrade.o
      4116        176          0         71        444          0   gdu_widget.o
       342          0          0          0          0          0   general_linked_list.o
      3904        426         62         24          0          0   npc.o
      1540        396         68         64          0          0   time_sync.o
        48          0          0          0          0          0   cdrcmple.o
       334          0          0          0          0          0   dadd.o
       222          0          0          0          0          0   ddiv.o
       186          0          0          0          0          0   depilogue.o
        62          0          0          0          0          0   dfixi.o
        48          0          0          0          0          0   dfixul.o
        34          0          0          0          0          0   dflti.o
       228          0          0          0          0          0   dmul.o
        38          0          0          0          0          0   f2d.o

    ----------------------------------------------------------------------
     52464       6704       2645        932      21316          0   Library Totals
        14          0         13         15          5          0   (incl. Padding)

    ----------------------------------------------------------------------

      Code (inc. data)   RO Data    RW Data    ZI Data      Debug   Library Name

      1036        144          0          0          0          0   m_wm.l
      3934        186        157         16         44          0   mc_w.l
     46280       6374       2475        901      21267          0   mdk_app.lib
      1200          0          0          0          0          0   mf_w.l

    ----------------------------------------------------------------------
     52464       6704       2645        932      21316          0   Library Totals

    ----------------------------------------------------------------------

==============================================================================


      Code (inc. data)   RO Data    RW Data    ZI Data      Debug   

    166060      19996      28772       1548     114660          0   Grand Totals
    166060      19996      28772        452     114660          0   ELF Image Totals (compressed)
    166060      19996      28772        452          0          0   ROM Totals

==============================================================================

    Total RO  Size (Code + RO Data)               194832 ( 190.27kB)
    Total RW  Size (RW Data + ZI Data)            116208 ( 113.48kB)
    Total ROM Size (Code + RO Data + RW Data)     195284 ( 190.71kB)

==============================================================================

